EXPORTS 
	?$TSS0@?L@??StrtodDiyFp@internal@OTIO_rapidjson@@YA_NPEBDHHPEAN@Z@4HA 	 DATA
	??_R0?AU?$Retainer@VSerializableObject@v1_0@opentimelineio@@@SerializableObject@v1_0@opentimelineio@@@8 	 DATA
	??_R0?AUReferenceId@SerializableObject@v1_0@opentimelineio@@@8 	 DATA
	??_R0?AUUnknownType@SerializableObject@v1_0@opentimelineio@@@8 	 DATA
	??_R0?AV<lambda_0d80f6a868f8b36a1d5f68283412da7e>@@@8 	 DATA
	??_R0?AV<lambda_27988cd41ae6a4288cc8caa9931f6267>@@@8 	 DATA
	??_R0?AV<lambda_3732206c6b8af39d0d8542d4c00085cb>@@@8 	 DATA
	??_R0?AV<lambda_3a755e0d8b19c3b265999c93c407e624>@@@8 	 DATA
	??_R0?AV<lambda_5ddccacd3f77002255f4016c725c7a55>@@@8 	 DATA
	??_R0?AV<lambda_651a8b2021ee43daced787a936a58fab>@@@8 	 DATA
	??_R0?AV<lambda_69b8fad06dc2ded66a083d5ea69c9992>@@@8 	 DATA
	??_R0?AV<lambda_6cb77d3f4339c3ac20acbae2e2a5ac3e>@@@8 	 DATA
	??_R0?AV<lambda_6e89609f4599898de401668f9f0eac24>@@@8 	 DATA
	??_R0?AV<lambda_75a2f7577643b9f1ad091410b79c5b2c>@@@8 	 DATA
	??_R0?AV<lambda_76eca87a02e8a96c82650c9895946a93>@@@8 	 DATA
	??_R0?AV<lambda_7a39e7abaca8030fbed7b6163cf2ac7e>@@@8 	 DATA
	??_R0?AV<lambda_7ad123fd80a0e795f627b98885f054a9>@@@8 	 DATA
	??_R0?AV<lambda_9443c01dc1ed3db71386b1d5715e24ee>@@@8 	 DATA
	??_R0?AV<lambda_c6547d0cfce5b73f7e2493d990f979cb>@@@8 	 DATA
	??_R0?AV<lambda_c98e3b18bd6b6fb88298302e9b12aff7>@@@8 	 DATA
	??_R0?AV<lambda_cba0749f46c119f7b63682ec6ce1bdaa>@@@8 	 DATA
	??_R0?AV<lambda_d2673311fb86753a5af4fed0b679e1fc>@@@8 	 DATA
	??_R0?AV<lambda_d6bc8737d8bc7e3959c59b9691239ab6>@@@8 	 DATA
	??_R0?AV<lambda_e777b282161b9f497bc9ea4bd7150aef>@@@8 	 DATA
	??_R0?AV<lambda_ee5fcd274901b255b1db6ecbe82f8ba7>@@@8 	 DATA
	??_R0?AV<lambda_fd597aa0b1bb92b7cb8cbd2b41c97086>@@@8 	 DATA
	??_R0?AV?$JSONEncoder@V?$PrettyWriter@V?$BasicOStreamWrapper@V?$basic_ostream@DU?$char_traits@D@std@@@std@@@OTIO_rapidjson@@U?$UTF8@D@2@U32@VCrtAllocator@2@$0A@@OTIO_rapidjson@@@v1_0@opentimelineio@@@8 	 DATA
	??_R0?AV?$JSONEncoder@V?$PrettyWriter@V?$GenericStringBuffer@U?$UTF8@D@OTIO_rapidjson@@VCrtAllocator@2@@OTIO_rapidjson@@U?$UTF8@D@2@U32@VCrtAllocator@2@$0A@@OTIO_rapidjson@@@v1_0@opentimelineio@@@8 	 DATA
	??_R0?AV?$JSONEncoder@V?$Writer@V?$BasicOStreamWrapper@V?$basic_ostream@DU?$char_traits@D@std@@@std@@@OTIO_rapidjson@@U?$UTF8@D@2@U32@VCrtAllocator@2@$0A@@OTIO_rapidjson@@@v1_0@opentimelineio@@@8 	 DATA
	??_R0?AV?$JSONEncoder@V?$Writer@V?$GenericStringBuffer@U?$UTF8@D@OTIO_rapidjson@@VCrtAllocator@2@@OTIO_rapidjson@@U?$UTF8@D@2@U32@VCrtAllocator@2@$0A@@OTIO_rapidjson@@@v1_0@opentimelineio@@@8 	 DATA
	??_R0?AV?$_Binder@U_Unforced@std@@P8?$CursorStreamWrapper@U?$GenericStringStream@U?$UTF8@D@OTIO_rapidjson@@@OTIO_rapidjson@@U?$UTF8@D@2@@OTIO_rapidjson@@EBA_KXZPEAV34@@std@@@8 	 DATA
	??_R0?AV?$_Binder@U_Unforced@std@@P8?$CursorStreamWrapper@VFileReadStream@OTIO_rapidjson@@U?$UTF8@D@2@@OTIO_rapidjson@@EBA_KXZPEAV34@@std@@@8 	 DATA
	??_R0?AV?$_Binder@U_Unforced@std@@P8Encoder@v1_0@opentimelineio@@EAAXAEBUErrorStatus@45@@ZPEAVCloningEncoder@45@AEBU?$_Ph@$00@2@@std@@@8 	 DATA
	??_R0?AV?$_Binder@U_Unforced@std@@P8JSONDecoder@v1_0@opentimelineio@@EAAXAEBUErrorStatus@45@@ZPEAV345@AEBU?$_Ph@$00@2@@std@@@8 	 DATA
	??_R0?AV?$_Func_base@PEAVSerializableObject@v1_0@opentimelineio@@$$V@std@@@8 	 DATA
	??_R0?AV?$_Func_base@XAEBUErrorStatus@v1_0@opentimelineio@@@std@@@8 	 DATA
	??_R0?AV?$_Func_base@XAEBVany@linb@@@std@@@8 	 DATA
	??_R0?AV?$_Func_base@XPEAVAnyDictionary@v1_0@opentimelineio@@@std@@@8 	 DATA
	??_R0?AV?$_Func_base@_K$$V@std@@@8 	 DATA
	??_R0?AV?$_Func_base@_NAEBVany@linb@@AEBV12@@std@@@8 	 DATA
	??_R0?AV?$_Func_impl_no_alloc@P6A_NAEBVany@linb@@0@Z_NAEBV12@AEBV12@@std@@@8 	 DATA
	??_R0?AV?$_Func_impl_no_alloc@V<lambda_0d80f6a868f8b36a1d5f68283412da7e>@@PEAVSerializableObject@v1_0@opentimelineio@@$$V@std@@@8 	 DATA
	??_R0?AV?$_Func_impl_no_alloc@V<lambda_27988cd41ae6a4288cc8caa9931f6267>@@PEAVSerializableObject@v1_0@opentimelineio@@$$V@std@@@8 	 DATA
	??_R0?AV?$_Func_impl_no_alloc@V<lambda_3732206c6b8af39d0d8542d4c00085cb>@@PEAVSerializableObject@v1_0@opentimelineio@@$$V@std@@@8 	 DATA
	??_R0?AV?$_Func_impl_no_alloc@V<lambda_3a755e0d8b19c3b265999c93c407e624>@@PEAVSerializableObject@v1_0@opentimelineio@@$$V@std@@@8 	 DATA
	??_R0?AV?$_Func_impl_no_alloc@V<lambda_5ddccacd3f77002255f4016c725c7a55>@@PEAVSerializableObject@v1_0@opentimelineio@@$$V@std@@@8 	 DATA
	??_R0?AV?$_Func_impl_no_alloc@V<lambda_651a8b2021ee43daced787a936a58fab>@@PEAVSerializableObject@v1_0@opentimelineio@@$$V@std@@@8 	 DATA
	??_R0?AV?$_Func_impl_no_alloc@V<lambda_69b8fad06dc2ded66a083d5ea69c9992>@@PEAVSerializableObject@v1_0@opentimelineio@@$$V@std@@@8 	 DATA
	??_R0?AV?$_Func_impl_no_alloc@V<lambda_6cb77d3f4339c3ac20acbae2e2a5ac3e>@@PEAVSerializableObject@v1_0@opentimelineio@@$$V@std@@@8 	 DATA
	??_R0?AV?$_Func_impl_no_alloc@V<lambda_6e89609f4599898de401668f9f0eac24>@@PEAVSerializableObject@v1_0@opentimelineio@@$$V@std@@@8 	 DATA
	??_R0?AV?$_Func_impl_no_alloc@V<lambda_75a2f7577643b9f1ad091410b79c5b2c>@@PEAVSerializableObject@v1_0@opentimelineio@@$$V@std@@@8 	 DATA
	??_R0?AV?$_Func_impl_no_alloc@V<lambda_76eca87a02e8a96c82650c9895946a93>@@PEAVSerializableObject@v1_0@opentimelineio@@$$V@std@@@8 	 DATA
	??_R0?AV?$_Func_impl_no_alloc@V<lambda_7a39e7abaca8030fbed7b6163cf2ac7e>@@PEAVSerializableObject@v1_0@opentimelineio@@$$V@std@@@8 	 DATA
	??_R0?AV?$_Func_impl_no_alloc@V<lambda_7ad123fd80a0e795f627b98885f054a9>@@PEAVSerializableObject@v1_0@opentimelineio@@$$V@std@@@8 	 DATA
	??_R0?AV?$_Func_impl_no_alloc@V<lambda_9443c01dc1ed3db71386b1d5715e24ee>@@PEAVSerializableObject@v1_0@opentimelineio@@$$V@std@@@8 	 DATA
	??_R0?AV?$_Func_impl_no_alloc@V<lambda_c6547d0cfce5b73f7e2493d990f979cb>@@PEAVSerializableObject@v1_0@opentimelineio@@$$V@std@@@8 	 DATA
	??_R0?AV?$_Func_impl_no_alloc@V<lambda_c98e3b18bd6b6fb88298302e9b12aff7>@@PEAVSerializableObject@v1_0@opentimelineio@@$$V@std@@@8 	 DATA
	??_R0?AV?$_Func_impl_no_alloc@V<lambda_cba0749f46c119f7b63682ec6ce1bdaa>@@PEAVSerializableObject@v1_0@opentimelineio@@$$V@std@@@8 	 DATA
	??_R0?AV?$_Func_impl_no_alloc@V<lambda_d2673311fb86753a5af4fed0b679e1fc>@@PEAVSerializableObject@v1_0@opentimelineio@@$$V@std@@@8 	 DATA
	??_R0?AV?$_Func_impl_no_alloc@V<lambda_d6bc8737d8bc7e3959c59b9691239ab6>@@PEAVSerializableObject@v1_0@opentimelineio@@$$V@std@@@8 	 DATA
	??_R0?AV?$_Func_impl_no_alloc@V<lambda_e777b282161b9f497bc9ea4bd7150aef>@@PEAVSerializableObject@v1_0@opentimelineio@@$$V@std@@@8 	 DATA
	??_R0?AV?$_Func_impl_no_alloc@V<lambda_ee5fcd274901b255b1db6ecbe82f8ba7>@@PEAVSerializableObject@v1_0@opentimelineio@@$$V@std@@@8 	 DATA
	??_R0?AV?$_Func_impl_no_alloc@V<lambda_fd597aa0b1bb92b7cb8cbd2b41c97086>@@PEAVSerializableObject@v1_0@opentimelineio@@$$V@std@@@8 	 DATA
	??_R0?AV?$_Func_impl_no_alloc@V?$_Binder@U_Unforced@std@@P8?$CursorStreamWrapper@U?$GenericStringStream@U?$UTF8@D@OTIO_rapidjson@@@OTIO_rapidjson@@U?$UTF8@D@2@@OTIO_rapidjson@@EBA_KXZPEAV34@@std@@_K$$V@std@@@8 	 DATA
	??_R0?AV?$_Func_impl_no_alloc@V?$_Binder@U_Unforced@std@@P8?$CursorStreamWrapper@VFileReadStream@OTIO_rapidjson@@U?$UTF8@D@2@@OTIO_rapidjson@@EBA_KXZPEAV34@@std@@_K$$V@std@@@8 	 DATA
	??_R0?AV?$_Func_impl_no_alloc@V?$_Binder@U_Unforced@std@@P8Encoder@v1_0@opentimelineio@@EAAXAEBUErrorStatus@45@@ZPEAVCloningEncoder@45@AEBU?$_Ph@$00@2@@std@@XAEBUErrorStatus@v1_0@opentimelineio@@@std@@@8 	 DATA
	??_R0?AV?$_Func_impl_no_alloc@V?$_Binder@U_Unforced@std@@P8JSONDecoder@v1_0@opentimelineio@@EAAXAEBUErrorStatus@45@@ZPEAV345@AEBU?$_Ph@$00@2@@std@@XAEBUErrorStatus@v1_0@opentimelineio@@@std@@@8 	 DATA
	??_R0?AV?$_Iosb@H@std@@@8 	 DATA
	??_R0?AV?$basic_filebuf@DU?$char_traits@D@std@@@std@@@8 	 DATA
	??_R0?AV?$basic_ios@DU?$char_traits@D@std@@@std@@@8 	 DATA
	??_R0?AV?$basic_ofstream@DU?$char_traits@D@std@@@std@@@8 	 DATA
	??_R0?AV?$basic_ostream@DU?$char_traits@D@std@@@std@@@8 	 DATA
	??_R0?AV?$basic_streambuf@DU?$char_traits@D@std@@@std@@@8 	 DATA
	??_R0?AV?$basic_string@DU?$char_traits@D@std@@V?$allocator@D@2@@std@@@8 	 DATA
	??_R0?AVAnyDictionary@v1_0@opentimelineio@@@8 	 DATA
	??_R0?AVAnyVector@v1_0@opentimelineio@@@8 	 DATA
	??_R0?AVClip@v1_0@opentimelineio@@@8 	 DATA
	??_R0?AVCloningEncoder@v1_0@opentimelineio@@@8 	 DATA
	??_R0?AVComposable@v1_0@opentimelineio@@@8 	 DATA
	??_R0?AVComposition@v1_0@opentimelineio@@@8 	 DATA
	??_R0?AVEffect@v1_0@opentimelineio@@@8 	 DATA
	??_R0?AVEncoder@v1_0@opentimelineio@@@8 	 DATA
	??_R0?AVExternalReference@v1_0@opentimelineio@@@8 	 DATA
	??_R0?AVFreezeFrame@v1_0@opentimelineio@@@8 	 DATA
	??_R0?AVGap@v1_0@opentimelineio@@@8 	 DATA
	??_R0?AVGeneratorReference@v1_0@opentimelineio@@@8 	 DATA
	??_R0?AVImageSequenceReference@v1_0@opentimelineio@@@8 	 DATA
	??_R0?AVItem@v1_0@opentimelineio@@@8 	 DATA
	??_R0?AVLinearTimeWarp@v1_0@opentimelineio@@@8 	 DATA
	??_R0?AVMarker@v1_0@opentimelineio@@@8 	 DATA
	??_R0?AVMediaReference@v1_0@opentimelineio@@@8 	 DATA
	??_R0?AVMissingReference@v1_0@opentimelineio@@@8 	 DATA
	??_R0?AVRationalTime@v1_0@opentime@@@8 	 DATA
	??_R0?AVSerializableCollection@v1_0@opentimelineio@@@8 	 DATA
	??_R0?AVSerializableObject@v1_0@opentimelineio@@@8 	 DATA
	??_R0?AVSerializableObjectWithMetadata@v1_0@opentimelineio@@@8 	 DATA
	??_R0?AVStack@v1_0@opentimelineio@@@8 	 DATA
	??_R0?AVTimeEffect@v1_0@opentimelineio@@@8 	 DATA
	??_R0?AVTimeRange@v1_0@opentime@@@8 	 DATA
	??_R0?AVTimeTransform@v1_0@opentime@@@8 	 DATA
	??_R0?AVTimeline@v1_0@opentimelineio@@@8 	 DATA
	??_R0?AVTrack@v1_0@opentimelineio@@@8 	 DATA
	??_R0?AVTransition@v1_0@opentimelineio@@@8 	 DATA
	??_R0?AVUnknownSchema@v1_0@opentimelineio@@@8 	 DATA
	??_R0?AVbad_any_cast@linb@@@8 	 DATA
	??_R0?AVbad_cast@std@@@8 	 DATA
	??_R0?AVbad_optional_access@optional_lite@nonstd@@@8 	 DATA
	??_R0?AVexception@std@@@8 	 DATA
	??_R0?AVios_base@std@@@8 	 DATA
	??_R0?AVlogic_error@std@@@8 	 DATA
	??_R0H@8 	 DATA
	??_R0N@8 	 DATA
	??_R0P6A_NAEBVany@linb@@0@Z@8 	 DATA
	??_R0PEBD@8 	 DATA
	??_R0X@8 	 DATA
	??_R0_J@8 	 DATA
	??_R0_N@8 	 DATA
	?_OptionsStorage@?1??__local_stdio_printf_options@@9@4_KA 	 DATA
	?_Psave@?$_Facetptr@V?$codecvt@DDU_Mbstatet@@@std@@@std@@2PEBVfacet@locale@2@EB 	 DATA
	?_Stinit@?1??_Init@?$basic_filebuf@DU?$char_traits@D@std@@@std@@IEAAXPEAU_iobuf@@W4_Initfl@23@@Z@4U_Mbstatet@@A 	 DATA
	?kPow10@?L@??StrtodDiyFp@internal@OTIO_rapidjson@@YA_NPEBDHHPEAN@Z@4QBUDiyFp@23@B 	 DATA
	?table@?1???$vtable_for_type@H@any@linb@@CAPEAUvtable_type@12@XZ@4U312@A 	 DATA
	?table@?1???$vtable_for_type@N@any@linb@@CAPEAUvtable_type@12@XZ@4U312@A 	 DATA
	?table@?1???$vtable_for_type@U?$Retainer@VSerializableObject@v1_0@opentimelineio@@@SerializableObject@v1_0@opentimelineio@@@any@linb@@CAPEAUvtable_type@12@XZ@4U312@A 	 DATA
	?table@?1???$vtable_for_type@UReferenceId@SerializableObject@v1_0@opentimelineio@@@any@linb@@CAPEAUvtable_type@12@XZ@4U312@A 	 DATA
	?table@?1???$vtable_for_type@V?$basic_string@DU?$char_traits@D@std@@V?$allocator@D@2@@std@@@any@linb@@CAPEAUvtable_type@12@XZ@4U312@A 	 DATA
	?table@?1???$vtable_for_type@VAnyDictionary@v1_0@opentimelineio@@@any@linb@@CAPEAUvtable_type@12@XZ@4U312@A 	 DATA
	?table@?1???$vtable_for_type@VAnyVector@v1_0@opentimelineio@@@any@linb@@CAPEAUvtable_type@12@XZ@4U312@A 	 DATA
	?table@?1???$vtable_for_type@VRationalTime@v1_0@opentime@@@any@linb@@CAPEAUvtable_type@12@XZ@4U312@A 	 DATA
	?table@?1???$vtable_for_type@VTimeRange@v1_0@opentime@@@any@linb@@CAPEAUvtable_type@12@XZ@4U312@A 	 DATA
	?table@?1???$vtable_for_type@VTimeTransform@v1_0@opentime@@@any@linb@@CAPEAUvtable_type@12@XZ@4U312@A 	 DATA
	?table@?1???$vtable_for_type@_J@any@linb@@CAPEAUvtable_type@12@XZ@4U312@A 	 DATA
	?table@?1???$vtable_for_type@_N@any@linb@@CAPEAUvtable_type@12@XZ@4U312@A 	 DATA
	??$?0$$QEAPEAVComposable@v1_0@opentimelineio@@$$Z$$V@?$pair@QEAVComposable@v1_0@opentimelineio@@VTimeRange@2opentime@@@std@@QEAA@Upiecewise_construct_t@1@V?$tuple@$$QEAPEAVComposable@v1_0@opentimelineio@@@1@V?$tuple@$$V@1@@Z
	??$?0$$QEAPEBVtype_info@@$$Z$$V@?$pair@QEBVtype_info@@V?$function@$$A6AXAEBVany@linb@@@Z@std@@@std@@QEAA@Upiecewise_construct_t@1@V?$tuple@$$QEAPEBVtype_info@@@1@V?$tuple@$$V@1@@Z
	??$?0$$QEAPEBVtype_info@@$$Z$$V@?$pair@QEBVtype_info@@V?$function@$$A6A_NAEBVany@linb@@0@Z@std@@@std@@QEAA@Upiecewise_construct_t@1@V?$tuple@$$QEAPEBVtype_info@@@1@V?$tuple@$$V@1@@Z
	??$?0$$QEAV?$basic_string@DU?$char_traits@D@std@@V?$allocator@D@2@@std@@$$Z$$V@?$pair@$$CBV?$basic_string@DU?$char_traits@D@std@@V?$allocator@D@2@@std@@PEAV_TypeRecord@TypeRegistry@v1_0@opentimelineio@@@std@@QEAA@Upiecewise_construct_t@1@V?$tuple@$$QEAV?$basic_string@DU?$char_traits@D@std@@V?$allocator@D@2@@std@@@1@V?$tuple@$$V@1@@Z
	??$?0$$QEAV?$basic_string@DU?$char_traits@D@std@@V?$allocator@D@2@@std@@$$Z$$V@?$pair@$$CBV?$basic_string@DU?$char_traits@D@std@@V?$allocator@D@2@@std@@V?$function@$$A6AXAEBVany@linb@@@Z@2@@std@@QEAA@Upiecewise_construct_t@1@V?$tuple@$$QEAV?$basic_string@DU?$char_traits@D@std@@V?$allocator@D@2@@std@@@1@V?$tuple@$$V@1@@Z
	??$?0$$QEAV?$basic_string@DU?$char_traits@D@std@@V?$allocator@D@2@@std@@$$Z$$V@?$pair@$$CBV?$basic_string@DU?$char_traits@D@std@@V?$allocator@D@2@@std@@Vany@linb@@@std@@QEAA@Upiecewise_construct_t@1@V?$tuple@$$QEAV?$basic_string@DU?$char_traits@D@std@@V?$allocator@D@2@@std@@@1@V?$tuple@$$V@1@@Z
	??$?0$$T$$T$0A@@?$pair@U?$Retainer@VComposable@v1_0@opentimelineio@@@SerializableObject@v1_0@opentimelineio@@U1234@@std@@QEAA@$$QEA$$T0@Z
	??$?0$$V@?$_Compressed_pair@V?$allocator@D@std@@V?$_String_val@U?$_Simple_types@D@std@@@2@$00@std@@QEAA@U_Zero_then_variadic_args_t@1@@Z
	??$?0$$V@?$_Compressed_pair@V?$allocator@PEAVComposable@v1_0@opentimelineio@@@std@@V?$_Vector_val@U?$_Simple_types@PEAVComposable@v1_0@opentimelineio@@@std@@@2@$00@std@@QEAA@U_Zero_then_variadic_args_t@1@@Z
	??$?0$$V@?$_Compressed_pair@V?$allocator@PEAVEffect@v1_0@opentimelineio@@@std@@V?$_Vector_val@U?$_Simple_types@PEAVEffect@v1_0@opentimelineio@@@std@@@2@$00@std@@QEAA@U_Zero_then_variadic_args_t@1@@Z
	??$?0$$V@?$_Compressed_pair@V?$allocator@PEAVMarker@v1_0@opentimelineio@@@std@@V?$_Vector_val@U?$_Simple_types@PEAVMarker@v1_0@opentimelineio@@@std@@@2@$00@std@@QEAA@U_Zero_then_variadic_args_t@1@@Z
	??$?0$$V@?$_Compressed_pair@V?$allocator@PEAVSerializableObject@v1_0@opentimelineio@@@std@@V?$_Vector_val@U?$_Simple_types@PEAVSerializableObject@v1_0@opentimelineio@@@std@@@2@$00@std@@QEAA@U_Zero_then_variadic_args_t@1@@Z
	??$?0$$V@?$_Compressed_pair@V?$allocator@PEAVTrack@v1_0@opentimelineio@@@std@@V?$_Vector_val@U?$_Simple_types@PEAVTrack@v1_0@opentimelineio@@@std@@@2@$00@std@@QEAA@U_Zero_then_variadic_args_t@1@@Z
	??$?0$$V@?$_Compressed_pair@V?$allocator@U?$Retainer@VComposable@v1_0@opentimelineio@@@SerializableObject@v1_0@opentimelineio@@@std@@V?$_Vector_val@U?$_Simple_types@U?$Retainer@VComposable@v1_0@opentimelineio@@@SerializableObject@v1_0@opentimelineio@@@std@@@2@$00@std@@QEAA@U_Zero_then_variadic_args_t@1@@Z
	??$?0$$V@?$_Compressed_pair@V?$allocator@U?$Retainer@VEffect@v1_0@opentimelineio@@@SerializableObject@v1_0@opentimelineio@@@std@@V?$_Vector_val@U?$_Simple_types@U?$Retainer@VEffect@v1_0@opentimelineio@@@SerializableObject@v1_0@opentimelineio@@@std@@@2@$00@std@@QEAA@U_Zero_then_variadic_args_t@1@@Z
	??$?0$$V@?$_Compressed_pair@V?$allocator@U?$Retainer@VMarker@v1_0@opentimelineio@@@SerializableObject@v1_0@opentimelineio@@@std@@V?$_Vector_val@U?$_Simple_types@U?$Retainer@VMarker@v1_0@opentimelineio@@@SerializableObject@v1_0@opentimelineio@@@std@@@2@$00@std@@QEAA@U_Zero_then_variadic_args_t@1@@Z
	??$?0$$V@?$_Compressed_pair@V?$allocator@U?$Retainer@VSerializableObject@v1_0@opentimelineio@@@SerializableObject@v1_0@opentimelineio@@@std@@V?$_Vector_val@U?$_Simple_types@U?$Retainer@VSerializableObject@v1_0@opentimelineio@@@SerializableObject@v1_0@opentimelineio@@@std@@@2@$00@std@@QEAA@U_Zero_then_variadic_args_t@1@@Z
	??$?0$$V@?$_Compressed_pair@V?$allocator@U?$_Tree_node@PEAVComposable@v1_0@opentimelineio@@PEAX@std@@@std@@V?$_Tree_val@U?$_Tree_simple_types@PEAVComposable@v1_0@opentimelineio@@@std@@@2@$00@std@@QEAA@U_Zero_then_variadic_args_t@1@@Z
	??$?0$$V@?$_Compressed_pair@V?$allocator@U?$_Tree_node@PEBVComposition@v1_0@opentimelineio@@PEAX@std@@@std@@V?$_Tree_val@U?$_Tree_simple_types@PEBVComposition@v1_0@opentimelineio@@@std@@@2@$00@std@@QEAA@U_Zero_then_variadic_args_t@1@@Z
	??$?0$$V@?$_Compressed_pair@V?$allocator@U?$_Tree_node@U?$pair@$$CBHV?$function@$$A6AXPEAVAnyDictionary@v1_0@opentimelineio@@@Z@std@@@std@@PEAX@std@@@std@@V?$_Tree_val@U?$_Tree_simple_types@U?$pair@$$CBHV?$function@$$A6AXPEAVAnyDictionary@v1_0@opentimelineio@@@Z@std@@@std@@@std@@@2@$00@std@@QEAA@U_Zero_then_variadic_args_t@1@@Z
	??$?0$$V@?$_Compressed_pair@V?$allocator@U?$_Tree_node@U?$pair@$$CBV?$basic_string@DU?$char_traits@D@std@@V?$allocator@D@2@@std@@H@std@@PEAX@std@@@std@@V?$_Tree_val@U?$_Tree_simple_types@U?$pair@$$CBV?$basic_string@DU?$char_traits@D@std@@V?$allocator@D@2@@std@@H@std@@@std@@@2@$00@std@@QEAA@U_Zero_then_variadic_args_t@1@@Z
	??$?0$$V@?$_Compressed_pair@V?$allocator@U?$_Tree_node@U?$pair@$$CBV?$basic_string@DU?$char_traits@D@std@@V?$allocator@D@2@@std@@PEAVSerializableObject@v1_0@opentimelineio@@@std@@PEAX@std@@@std@@V?$_Tree_val@U?$_Tree_simple_types@U?$pair@$$CBV?$basic_string@DU?$char_traits@D@std@@V?$allocator@D@2@@std@@PEAVSerializableObject@v1_0@opentimelineio@@@std@@@std@@@2@$00@std@@QEAA@U_Zero_then_variadic_args_t@1@@Z
	??$?0$$V@?$_Compressed_pair@V?$allocator@U?$_Tree_node@U?$pair@$$CBV?$basic_string@DU?$char_traits@D@std@@V?$allocator@D@2@@std@@PEAV_TypeRecord@TypeRegistry@v1_0@opentimelineio@@@std@@PEAX@std@@@std@@V?$_Tree_val@U?$_Tree_simple_types@U?$pair@$$CBV?$basic_string@DU?$char_traits@D@std@@V?$allocator@D@2@@std@@PEAV_TypeRecord@TypeRegistry@v1_0@opentimelineio@@@std@@@std@@@2@$00@std@@QEAA@U_Zero_then_variadic_args_t@1@@Z
	??$?0$$V@?$_Compressed_pair@V?$allocator@U?$_Tree_node@U?$pair@$$CBV?$basic_string@DU?$char_traits@D@std@@V?$allocator@D@2@@std@@V?$function@$$A6AXAEBVany@linb@@@Z@2@@std@@PEAX@std@@@std@@V?$_Tree_val@U?$_Tree_simple_types@U?$pair@$$CBV?$basic_string@DU?$char_traits@D@std@@V?$allocator@D@2@@std@@V?$function@$$A6AXAEBVany@linb@@@Z@2@@std@@@std@@@2@$00@std@@QEAA@U_Zero_then_variadic_args_t@1@@Z
	??$?0$$V@?$_Compressed_pair@V?$allocator@U?$_Tree_node@U?$pair@$$CBV?$basic_string@DU?$char_traits@D@std@@V?$allocator@D@2@@std@@Vany@linb@@@std@@PEAX@std@@@std@@V?$_Tree_val@U?$_Tree_simple_types@U?$pair@$$CBV?$basic_string@DU?$char_traits@D@std@@V?$allocator@D@2@@std@@Vany@linb@@@std@@@std@@@2@$00@std@@QEAA@U_Zero_then_variadic_args_t@1@@Z
	??$?0$$V@?$_Compressed_pair@V?$allocator@U?$_Tree_node@U?$pair@QEAVComposable@v1_0@opentimelineio@@VTimeRange@2opentime@@@std@@PEAX@std@@@std@@V?$_Tree_val@U?$_Tree_simple_types@U?$pair@QEAVComposable@v1_0@opentimelineio@@VTimeRange@2opentime@@@std@@@std@@@2@$00@std@@QEAA@U_Zero_then_variadic_args_t@1@@Z
	??$?0$$V@?$_Compressed_pair@V?$allocator@U?$_Tree_node@U?$pair@QEAVSerializableObject@v1_0@opentimelineio@@H@std@@PEAX@std@@@std@@V?$_Tree_val@U?$_Tree_simple_types@U?$pair@QEAVSerializableObject@v1_0@opentimelineio@@H@std@@@std@@@2@$00@std@@QEAA@U_Zero_then_variadic_args_t@1@@Z
	??$?0$$V@?$_Compressed_pair@V?$allocator@U?$_Tree_node@U?$pair@QEAVSerializableObject@v1_0@opentimelineio@@VAnyDictionary@23@@std@@PEAX@std@@@std@@V?$_Tree_val@U?$_Tree_simple_types@U?$pair@QEAVSerializableObject@v1_0@opentimelineio@@VAnyDictionary@23@@std@@@std@@@2@$00@std@@QEAA@U_Zero_then_variadic_args_t@1@@Z
	??$?0$$V@?$_Compressed_pair@V?$allocator@U?$_Tree_node@U?$pair@QEAVTrack@v1_0@opentimelineio@@V?$map@PEAVComposable@v1_0@opentimelineio@@VTimeRange@2opentime@@U?$less@PEAVComposable@v1_0@opentimelineio@@@std@@V?$allocator@U?$pair@QEAVComposable@v1_0@opentimelineio@@VTimeRange@2opentime@@@std@@@7@@std@@@std@@PEAX@std@@@std@@V?$_Tree_val@U?$_Tree_simple_types@U?$pair@QEAVTrack@v1_0@opentimelineio@@V?$map@PEAVComposable@v1_0@opentimelineio@@VTimeRange@2opentime@@U?$less@PEAVComposable@v1_0@opentimelineio@@@std@@V?$allocator@U?$pair@QEAVComposable@v1_0@opentimelineio@@VTimeRange@2opentime@@@std@@@7@@std@@@std@@@std@@@2@$00@std@@QEAA@U_Zero_then_variadic_args_t@1@@Z
	??$?0$$V@?$_Compressed_pair@V?$allocator@U?$_Tree_node@U?$pair@QEBVSerializableObject@v1_0@opentimelineio@@V?$basic_string@DU?$char_traits@D@std@@V?$allocator@D@2@@std@@@std@@PEAX@std@@@std@@V?$_Tree_val@U?$_Tree_simple_types@U?$pair@QEBVSerializableObject@v1_0@opentimelineio@@V?$basic_string@DU?$char_traits@D@std@@V?$allocator@D@2@@std@@@std@@@std@@@2@$00@std@@QEAA@U_Zero_then_variadic_args_t@1@@Z
	??$?0$$V@?$_Compressed_pair@V?$allocator@U?$_Tree_node@U?$pair@QEBVtype_info@@V?$function@$$A6AXAEBVany@linb@@@Z@std@@@std@@PEAX@std@@@std@@V?$_Tree_val@U?$_Tree_simple_types@U?$pair@QEBVtype_info@@V?$function@$$A6AXAEBVany@linb@@@Z@std@@@std@@@std@@@2@$00@std@@QEAA@U_Zero_then_variadic_args_t@1@@Z
	??$?0$$V@?$_Compressed_pair@V?$allocator@U?$_Tree_node@U?$pair@QEBVtype_info@@V?$function@$$A6A_NAEBVany@linb@@0@Z@std@@@std@@PEAX@std@@@std@@V?$_Tree_val@U?$_Tree_simple_types@U?$pair@QEBVtype_info@@V?$function@$$A6A_NAEBVany@linb@@0@Z@std@@@std@@@std@@@2@$00@std@@QEAA@U_Zero_then_variadic_args_t@1@@Z
	??$?0$$V@?$_Compressed_pair@V?$allocator@U_DictOrArray@CloningEncoder@v1_0@opentimelineio@@@std@@V?$_Vector_val@U?$_Simple_types@U_DictOrArray@CloningEncoder@v1_0@opentimelineio@@@std@@@2@$00@std@@QEAA@U_Zero_then_variadic_args_t@1@@Z
	??$?0$$V@?$_Compressed_pair@V?$allocator@U_DictOrArray@JSONDecoder@v1_0@opentimelineio@@@std@@V?$_Vector_val@U?$_Simple_types@U_DictOrArray@JSONDecoder@v1_0@opentimelineio@@@std@@@2@$00@std@@QEAA@U_Zero_then_variadic_args_t@1@@Z
	??$?0$$V@?$_Compressed_pair@V?$allocator@Vany@linb@@@std@@V?$_Vector_val@U?$_Simple_types@Vany@linb@@@std@@@2@$00@std@@QEAA@U_Zero_then_variadic_args_t@1@@Z
	??$?0AEAH@?$optional@H@optional_lite@nonstd@@QEAA@AEAHPEAX@Z
	??$?0AEAHX@any@linb@@QEAA@AEAH@Z
	??$?0AEAN@?$optional@N@optional_lite@nonstd@@QEAA@AEANPEAX@Z
	??$?0AEANX@any@linb@@QEAA@AEAN@Z
	??$?0AEAPEAD@?$_Compressed_pair@U?$default_delete@$$BY0A@D@std@@PEAD$00@std@@QEAA@U_Zero_then_variadic_args_t@1@AEAPEAD@Z
	??$?0AEAPEAVSerializableObject@v1_0@opentimelineio@@VAnyDictionary@12@$0A@@?$pair@QEAVSerializableObject@v1_0@opentimelineio@@VAnyDictionary@23@@std@@QEAA@AEAPEAVSerializableObject@v1_0@opentimelineio@@$$QEAVAnyDictionary@34@@Z
	??$?0AEAPEAVTrack@v1_0@opentimelineio@@V?$map@PEAVComposable@v1_0@opentimelineio@@VTimeRange@2opentime@@U?$less@PEAVComposable@v1_0@opentimelineio@@@std@@V?$allocator@U?$pair@QEAVComposable@v1_0@opentimelineio@@VTimeRange@2opentime@@@std@@@7@@std@@$0A@@?$pair@QEAVTrack@v1_0@opentimelineio@@V?$map@PEAVComposable@v1_0@opentimelineio@@VTimeRange@2opentime@@U?$less@PEAVComposable@v1_0@opentimelineio@@@std@@V?$allocator@U?$pair@QEAVComposable@v1_0@opentimelineio@@VTimeRange@2opentime@@@std@@@7@@std@@@std@@QEAA@AEAPEAVTrack@v1_0@opentimelineio@@$$QEAV?$map@PEAVComposable@v1_0@opentimelineio@@VTimeRange@2opentime@@U?$less@PEAVComposable@v1_0@opentimelineio@@@std@@V?$allocator@U?$pair@QEAVComposable@v1_0@opentimelineio@@VTimeRange@2opentime@@@std@@@7@@1@@Z
	??$?0AEAPEAV_Facet_base@std@@@?$_Compressed_pair@U?$default_delete@V_Facet_base@std@@@std@@PEAV_Facet_base@2@$00@std@@QEAA@U_Zero_then_variadic_args_t@1@AEAPEAV_Facet_base@1@@Z
	??$?0AEAUReferenceId@SerializableObject@v1_0@opentimelineio@@X@any@linb@@QEAA@AEAUReferenceId@SerializableObject@v1_0@opentimelineio@@@Z
	??$?0AEAV?$_Tree_const_iterator@V?$_Tree_val@U?$_Tree_simple_types@PEAVComposable@v1_0@opentimelineio@@@std@@@std@@@std@@AEAV01@$0A@@?$pair@V?$_Tree_const_iterator@V?$_Tree_val@U?$_Tree_simple_types@PEAVComposable@v1_0@opentimelineio@@@std@@@std@@@std@@V12@@std@@QEAA@AEAV?$_Tree_const_iterator@V?$_Tree_val@U?$_Tree_simple_types@PEAVComposable@v1_0@opentimelineio@@@std@@@std@@@1@0@Z
	??$?0AEAV?$_Tree_const_iterator@V?$_Tree_val@U?$_Tree_simple_types@PEAVComposable@v1_0@opentimelineio@@@std@@@std@@@std@@_N$0A@@?$pair@V?$_Tree_const_iterator@V?$_Tree_val@U?$_Tree_simple_types@PEAVComposable@v1_0@opentimelineio@@@std@@@std@@@std@@_N@std@@QEAA@AEAV?$_Tree_const_iterator@V?$_Tree_val@U?$_Tree_simple_types@PEAVComposable@v1_0@opentimelineio@@@std@@@std@@@1@$$QEA_N@Z
	??$?0AEAV?$_Tree_const_iterator@V?$_Tree_val@U?$_Tree_simple_types@PEBVComposition@v1_0@opentimelineio@@@std@@@std@@@std@@AEAV01@$0A@@?$pair@V?$_Tree_const_iterator@V?$_Tree_val@U?$_Tree_simple_types@PEBVComposition@v1_0@opentimelineio@@@std@@@std@@@std@@V12@@std@@QEAA@AEAV?$_Tree_const_iterator@V?$_Tree_val@U?$_Tree_simple_types@PEBVComposition@v1_0@opentimelineio@@@std@@@std@@@1@0@Z
	??$?0AEAV?$_Tree_const_iterator@V?$_Tree_val@U?$_Tree_simple_types@PEBVComposition@v1_0@opentimelineio@@@std@@@std@@@std@@_N$0A@@?$pair@V?$_Tree_const_iterator@V?$_Tree_val@U?$_Tree_simple_types@PEBVComposition@v1_0@opentimelineio@@@std@@@std@@@std@@_N@std@@QEAA@AEAV?$_Tree_const_iterator@V?$_Tree_val@U?$_Tree_simple_types@PEBVComposition@v1_0@opentimelineio@@@std@@@std@@@1@$$QEA_N@Z
	??$?0AEAV?$_Tree_const_iterator@V?$_Tree_val@U?$_Tree_simple_types@U?$pair@$$CBV?$basic_string@DU?$char_traits@D@std@@V?$allocator@D@2@@std@@Vany@linb@@@std@@@std@@@std@@@std@@AEAV01@$0A@@?$pair@V?$_Tree_const_iterator@V?$_Tree_val@U?$_Tree_simple_types@U?$pair@$$CBV?$basic_string@DU?$char_traits@D@std@@V?$allocator@D@2@@std@@Vany@linb@@@std@@@std@@@std@@@std@@V12@@std@@QEAA@AEAV?$_Tree_const_iterator@V?$_Tree_val@U?$_Tree_simple_types@U?$pair@$$CBV?$basic_string@DU?$char_traits@D@std@@V?$allocator@D@2@@std@@Vany@linb@@@std@@@std@@@std@@@1@0@Z
	??$?0AEAV?$_Tree_const_iterator@V?$_Tree_val@U?$_Tree_simple_types@U?$pair@QEAVTrack@v1_0@opentimelineio@@V?$map@PEAVComposable@v1_0@opentimelineio@@VTimeRange@2opentime@@U?$less@PEAVComposable@v1_0@opentimelineio@@@std@@V?$allocator@U?$pair@QEAVComposable@v1_0@opentimelineio@@VTimeRange@2opentime@@@std@@@7@@std@@@std@@@std@@@std@@@std@@AEAV01@$0A@@?$pair@V?$_Tree_const_iterator@V?$_Tree_val@U?$_Tree_simple_types@U?$pair@QEAVTrack@v1_0@opentimelineio@@V?$map@PEAVComposable@v1_0@opentimelineio@@VTimeRange@2opentime@@U?$less@PEAVComposable@v1_0@opentimelineio@@@std@@V?$allocator@U?$pair@QEAVComposable@v1_0@opentimelineio@@VTimeRange@2opentime@@@std@@@7@@std@@@std@@@std@@@std@@@std@@V12@@std@@QEAA@AEAV?$_Tree_const_iterator@V?$_Tree_val@U?$_Tree_simple_types@U?$pair@QEAVTrack@v1_0@opentimelineio@@V?$map@PEAVComposable@v1_0@opentimelineio@@VTimeRange@2opentime@@U?$less@PEAVComposable@v1_0@opentimelineio@@@std@@V?$allocator@U?$pair@QEAVComposable@v1_0@opentimelineio@@VTimeRange@2opentime@@@std@@@7@@std@@@std@@@std@@@std@@@1@0@Z
	??$?0AEAV?$_Tree_iterator@V?$_Tree_val@U?$_Tree_simple_types@U?$pair@$$CBHV?$function@$$A6AXPEAVAnyDictionary@v1_0@opentimelineio@@@Z@std@@@std@@@std@@@std@@@std@@_N$0A@@?$pair@V?$_Tree_iterator@V?$_Tree_val@U?$_Tree_simple_types@U?$pair@$$CBHV?$function@$$A6AXPEAVAnyDictionary@v1_0@opentimelineio@@@Z@std@@@std@@@std@@@std@@@std@@_N@std@@QEAA@AEAV?$_Tree_iterator@V?$_Tree_val@U?$_Tree_simple_types@U?$pair@$$CBHV?$function@$$A6AXPEAVAnyDictionary@v1_0@opentimelineio@@@Z@std@@@std@@@std@@@std@@@1@$$QEA_N@Z
	??$?0AEAV?$_Tree_iterator@V?$_Tree_val@U?$_Tree_simple_types@U?$pair@$$CBV?$basic_string@DU?$char_traits@D@std@@V?$allocator@D@2@@std@@H@std@@@std@@@std@@@std@@_N$0A@@?$pair@V?$_Tree_iterator@V?$_Tree_val@U?$_Tree_simple_types@U?$pair@$$CBV?$basic_string@DU?$char_traits@D@std@@V?$allocator@D@2@@std@@H@std@@@std@@@std@@@std@@_N@std@@QEAA@AEAV?$_Tree_iterator@V?$_Tree_val@U?$_Tree_simple_types@U?$pair@$$CBV?$basic_string@DU?$char_traits@D@std@@V?$allocator@D@2@@std@@H@std@@@std@@@std@@@1@$$QEA_N@Z
	??$?0AEAV?$_Tree_iterator@V?$_Tree_val@U?$_Tree_simple_types@U?$pair@$$CBV?$basic_string@DU?$char_traits@D@std@@V?$allocator@D@2@@std@@PEAVSerializableObject@v1_0@opentimelineio@@@std@@@std@@@std@@@std@@_N$0A@@?$pair@V?$_Tree_iterator@V?$_Tree_val@U?$_Tree_simple_types@U?$pair@$$CBV?$basic_string@DU?$char_traits@D@std@@V?$allocator@D@2@@std@@PEAVSerializableObject@v1_0@opentimelineio@@@std@@@std@@@std@@@std@@_N@std@@QEAA@AEAV?$_Tree_iterator@V?$_Tree_val@U?$_Tree_simple_types@U?$pair@$$CBV?$basic_string@DU?$char_traits@D@std@@V?$allocator@D@2@@std@@PEAVSerializableObject@v1_0@opentimelineio@@@std@@@std@@@std@@@1@$$QEA_N@Z
	??$?0AEAV?$_Tree_iterator@V?$_Tree_val@U?$_Tree_simple_types@U?$pair@$$CBV?$basic_string@DU?$char_traits@D@std@@V?$allocator@D@2@@std@@PEAV_TypeRecord@TypeRegistry@v1_0@opentimelineio@@@std@@@std@@@std@@@std@@_N$0A@@?$pair@V?$_Tree_iterator@V?$_Tree_val@U?$_Tree_simple_types@U?$pair@$$CBV?$basic_string@DU?$char_traits@D@std@@V?$allocator@D@2@@std@@PEAV_TypeRecord@TypeRegistry@v1_0@opentimelineio@@@std@@@std@@@std@@@std@@_N@std@@QEAA@AEAV?$_Tree_iterator@V?$_Tree_val@U?$_Tree_simple_types@U?$pair@$$CBV?$basic_string@DU?$char_traits@D@std@@V?$allocator@D@2@@std@@PEAV_TypeRecord@TypeRegistry@v1_0@opentimelineio@@@std@@@std@@@std@@@1@$$QEA_N@Z
	??$?0AEAV?$_Tree_iterator@V?$_Tree_val@U?$_Tree_simple_types@U?$pair@$$CBV?$basic_string@DU?$char_traits@D@std@@V?$allocator@D@2@@std@@V?$function@$$A6AXAEBVany@linb@@@Z@2@@std@@@std@@@std@@@std@@_N$0A@@?$pair@V?$_Tree_iterator@V?$_Tree_val@U?$_Tree_simple_types@U?$pair@$$CBV?$basic_string@DU?$char_traits@D@std@@V?$allocator@D@2@@std@@V?$function@$$A6AXAEBVany@linb@@@Z@2@@std@@@std@@@std@@@std@@_N@std@@QEAA@AEAV?$_Tree_iterator@V?$_Tree_val@U?$_Tree_simple_types@U?$pair@$$CBV?$basic_string@DU?$char_traits@D@std@@V?$allocator@D@2@@std@@V?$function@$$A6AXAEBVany@linb@@@Z@2@@std@@@std@@@std@@@1@$$QEA_N@Z
	??$?0AEAV?$_Tree_iterator@V?$_Tree_val@U?$_Tree_simple_types@U?$pair@$$CBV?$basic_string@DU?$char_traits@D@std@@V?$allocator@D@2@@std@@Vany@linb@@@std@@@std@@@std@@@std@@AEAV01@$0A@@?$pair@V?$_Tree_iterator@V?$_Tree_val@U?$_Tree_simple_types@U?$pair@$$CBV?$basic_string@DU?$char_traits@D@std@@V?$allocator@D@2@@std@@Vany@linb@@@std@@@std@@@std@@@std@@V12@@std@@QEAA@AEAV?$_Tree_iterator@V?$_Tree_val@U?$_Tree_simple_types@U?$pair@$$CBV?$basic_string@DU?$char_traits@D@std@@V?$allocator@D@2@@std@@Vany@linb@@@std@@@std@@@std@@@1@0@Z
	??$?0AEAV?$_Tree_iterator@V?$_Tree_val@U?$_Tree_simple_types@U?$pair@$$CBV?$basic_string@DU?$char_traits@D@std@@V?$allocator@D@2@@std@@Vany@linb@@@std@@@std@@@std@@@std@@_N$0A@@?$pair@V?$_Tree_iterator@V?$_Tree_val@U?$_Tree_simple_types@U?$pair@$$CBV?$basic_string@DU?$char_traits@D@std@@V?$allocator@D@2@@std@@Vany@linb@@@std@@@std@@@std@@@std@@_N@std@@QEAA@AEAV?$_Tree_iterator@V?$_Tree_val@U?$_Tree_simple_types@U?$pair@$$CBV?$basic_string@DU?$char_traits@D@std@@V?$allocator@D@2@@std@@Vany@linb@@@std@@@std@@@std@@@1@$$QEA_N@Z
	??$?0AEAV?$_Tree_iterator@V?$_Tree_val@U?$_Tree_simple_types@U?$pair@QEAVComposable@v1_0@opentimelineio@@VTimeRange@2opentime@@@std@@@std@@@std@@@std@@_N$0A@@?$pair@V?$_Tree_iterator@V?$_Tree_val@U?$_Tree_simple_types@U?$pair@QEAVComposable@v1_0@opentimelineio@@VTimeRange@2opentime@@@std@@@std@@@std@@@std@@_N@std@@QEAA@AEAV?$_Tree_iterator@V?$_Tree_val@U?$_Tree_simple_types@U?$pair@QEAVComposable@v1_0@opentimelineio@@VTimeRange@2opentime@@@std@@@std@@@std@@@1@$$QEA_N@Z
	??$?0AEAV?$_Tree_iterator@V?$_Tree_val@U?$_Tree_simple_types@U?$pair@QEAVSerializableObject@v1_0@opentimelineio@@H@std@@@std@@@std@@@std@@_N$0A@@?$pair@V?$_Tree_iterator@V?$_Tree_val@U?$_Tree_simple_types@U?$pair@QEAVSerializableObject@v1_0@opentimelineio@@H@std@@@std@@@std@@@std@@_N@std@@QEAA@AEAV?$_Tree_iterator@V?$_Tree_val@U?$_Tree_simple_types@U?$pair@QEAVSerializableObject@v1_0@opentimelineio@@H@std@@@std@@@std@@@1@$$QEA_N@Z
	??$?0AEAV?$_Tree_iterator@V?$_Tree_val@U?$_Tree_simple_types@U?$pair@QEAVSerializableObject@v1_0@opentimelineio@@VAnyDictionary@23@@std@@@std@@@std@@@std@@_N$0A@@?$pair@V?$_Tree_iterator@V?$_Tree_val@U?$_Tree_simple_types@U?$pair@QEAVSerializableObject@v1_0@opentimelineio@@VAnyDictionary@23@@std@@@std@@@std@@@std@@_N@std@@QEAA@AEAV?$_Tree_iterator@V?$_Tree_val@U?$_Tree_simple_types@U?$pair@QEAVSerializableObject@v1_0@opentimelineio@@VAnyDictionary@23@@std@@@std@@@std@@@1@$$QEA_N@Z
	??$?0AEAV?$_Tree_iterator@V?$_Tree_val@U?$_Tree_simple_types@U?$pair@QEAVTrack@v1_0@opentimelineio@@V?$map@PEAVComposable@v1_0@opentimelineio@@VTimeRange@2opentime@@U?$less@PEAVComposable@v1_0@opentimelineio@@@std@@V?$allocator@U?$pair@QEAVComposable@v1_0@opentimelineio@@VTimeRange@2opentime@@@std@@@7@@std@@@std@@@std@@@std@@@std@@AEAV01@$0A@@?$pair@V?$_Tree_iterator@V?$_Tree_val@U?$_Tree_simple_types@U?$pair@QEAVTrack@v1_0@opentimelineio@@V?$map@PEAVComposable@v1_0@opentimelineio@@VTimeRange@2opentime@@U?$less@PEAVComposable@v1_0@opentimelineio@@@std@@V?$allocator@U?$pair@QEAVComposable@v1_0@opentimelineio@@VTimeRange@2opentime@@@std@@@7@@std@@@std@@@std@@@std@@@std@@V12@@std@@QEAA@AEAV?$_Tree_iterator@V?$_Tree_val@U?$_Tree_simple_types@U?$pair@QEAVTrack@v1_0@opentimelineio@@V?$map@PEAVComposable@v1_0@opentimelineio@@VTimeRange@2opentime@@U?$less@PEAVComposable@v1_0@opentimelineio@@@std@@V?$allocator@U?$pair@QEAVComposable@v1_0@opentimelineio@@VTimeRange@2opentime@@@std@@@7@@std@@@std@@@std@@@std@@@1@0@Z
	??$?0AEAV?$_Tree_iterator@V?$_Tree_val@U?$_Tree_simple_types@U?$pair@QEAVTrack@v1_0@opentimelineio@@V?$map@PEAVComposable@v1_0@opentimelineio@@VTimeRange@2opentime@@U?$less@PEAVComposable@v1_0@opentimelineio@@@std@@V?$allocator@U?$pair@QEAVComposable@v1_0@opentimelineio@@VTimeRange@2opentime@@@std@@@7@@std@@@std@@@std@@@std@@@std@@_N$0A@@?$pair@V?$_Tree_iterator@V?$_Tree_val@U?$_Tree_simple_types@U?$pair@QEAVTrack@v1_0@opentimelineio@@V?$map@PEAVComposable@v1_0@opentimelineio@@VTimeRange@2opentime@@U?$less@PEAVComposable@v1_0@opentimelineio@@@std@@V?$allocator@U?$pair@QEAVComposable@v1_0@opentimelineio@@VTimeRange@2opentime@@@std@@@7@@std@@@std@@@std@@@std@@@std@@_N@std@@QEAA@AEAV?$_Tree_iterator@V?$_Tree_val@U?$_Tree_simple_types@U?$pair@QEAVTrack@v1_0@opentimelineio@@V?$map@PEAVComposable@v1_0@opentimelineio@@VTimeRange@2opentime@@U?$less@PEAVComposable@v1_0@opentimelineio@@@std@@V?$allocator@U?$pair@QEAVComposable@v1_0@opentimelineio@@VTimeRange@2opentime@@@std@@@7@@std@@@std@@@std@@@std@@@1@$$QEA_N@Z
	??$?0AEAV?$_Tree_iterator@V?$_Tree_val@U?$_Tree_simple_types@U?$pair@QEBVSerializableObject@v1_0@opentimelineio@@V?$basic_string@DU?$char_traits@D@std@@V?$allocator@D@2@@std@@@std@@@std@@@std@@@std@@_N$0A@@?$pair@V?$_Tree_iterator@V?$_Tree_val@U?$_Tree_simple_types@U?$pair@QEBVSerializableObject@v1_0@opentimelineio@@V?$basic_string@DU?$char_traits@D@std@@V?$allocator@D@2@@std@@@std@@@std@@@std@@@std@@_N@std@@QEAA@AEAV?$_Tree_iterator@V?$_Tree_val@U?$_Tree_simple_types@U?$pair@QEBVSerializableObject@v1_0@opentimelineio@@V?$basic_string@DU?$char_traits@D@std@@V?$allocator@D@2@@std@@@std@@@std@@@std@@@1@$$QEA_N@Z
	??$?0AEAV?$_Tree_iterator@V?$_Tree_val@U?$_Tree_simple_types@U?$pair@QEBVtype_info@@V?$function@$$A6AXAEBVany@linb@@@Z@std@@@std@@@std@@@std@@@std@@_N$0A@@?$pair@V?$_Tree_iterator@V?$_Tree_val@U?$_Tree_simple_types@U?$pair@QEBVtype_info@@V?$function@$$A6AXAEBVany@linb@@@Z@std@@@std@@@std@@@std@@@std@@_N@std@@QEAA@AEAV?$_Tree_iterator@V?$_Tree_val@U?$_Tree_simple_types@U?$pair@QEBVtype_info@@V?$function@$$A6AXAEBVany@linb@@@Z@std@@@std@@@std@@@std@@@1@$$QEA_N@Z
	??$?0AEAV?$_Tree_iterator@V?$_Tree_val@U?$_Tree_simple_types@U?$pair@QEBVtype_info@@V?$function@$$A6A_NAEBVany@linb@@0@Z@std@@@std@@@std@@@std@@@std@@_N$0A@@?$pair@V?$_Tree_iterator@V?$_Tree_val@U?$_Tree_simple_types@U?$pair@QEBVtype_info@@V?$function@$$A6A_NAEBVany@linb@@0@Z@std@@@std@@@std@@@std@@@std@@_N@std@@QEAA@AEAV?$_Tree_iterator@V?$_Tree_val@U?$_Tree_simple_types@U?$pair@QEBVtype_info@@V?$function@$$A6A_NAEBVany@linb@@0@Z@std@@@std@@@std@@@std@@@1@$$QEA_N@Z
	??$?0AEAV?$basic_string@DU?$char_traits@D@std@@V?$allocator@D@2@@std@@AEAVany@linb@@$0A@@?$pair@$$CBV?$basic_string@DU?$char_traits@D@std@@V?$allocator@D@2@@std@@Vany@linb@@@std@@QEAA@AEAV?$basic_string@DU?$char_traits@D@std@@V?$allocator@D@2@@1@AEAVany@linb@@@Z
	??$?0AEAV?$basic_string@DU?$char_traits@D@std@@V?$allocator@D@2@@std@@X@any@linb@@QEAA@AEAV?$basic_string@DU?$char_traits@D@std@@V?$allocator@D@2@@std@@@Z
	??$?0AEAV?$optional@VRationalTime@v1_0@opentime@@@optional_lite@nonstd@@AEAV012@$0A@@?$pair@V?$optional@VRationalTime@v1_0@opentime@@@optional_lite@nonstd@@V123@@std@@QEAA@AEAV?$optional@VRationalTime@v1_0@opentime@@@optional_lite@nonstd@@0@Z
	??$?0AEAVRationalTime@v1_0@opentime@@@?$optional@VRationalTime@v1_0@opentime@@@optional_lite@nonstd@@QEAA@AEAVRationalTime@v1_0@opentime@@PEAX@Z
	??$?0AEAVRationalTime@v1_0@opentime@@X@any@linb@@QEAA@AEAVRationalTime@v1_0@opentime@@@Z
	??$?0AEAVTimeRange@v1_0@opentime@@@?$optional@VTimeRange@v1_0@opentime@@@optional_lite@nonstd@@QEAA@AEAVTimeRange@v1_0@opentime@@PEAX@Z
	??$?0AEAVTimeRange@v1_0@opentime@@X@any@linb@@QEAA@AEAVTimeRange@v1_0@opentime@@@Z
	??$?0AEAVTimeTransform@v1_0@opentime@@@?$optional@VTimeTransform@v1_0@opentime@@@optional_lite@nonstd@@QEAA@AEAVTimeTransform@v1_0@opentime@@PEAX@Z
	??$?0AEAVTimeTransform@v1_0@opentime@@X@any@linb@@QEAA@AEAVTimeTransform@v1_0@opentime@@@Z
	??$?0AEA_JX@any@linb@@QEAA@AEA_J@Z
	??$?0AEA_N@?$optional@_N@optional_lite@nonstd@@QEAA@AEA_NPEAX@Z
	??$?0AEA_NX@any@linb@@QEAA@AEA_N@Z
	??$?0AEBH$$Z$$V@?$pair@$$CBHV?$function@$$A6AXPEAVAnyDictionary@v1_0@opentimelineio@@@Z@std@@@std@@QEAA@Upiecewise_construct_t@1@V?$tuple@AEBH@1@V?$tuple@$$V@1@@Z
	??$?0AEBH$0A@@?$tuple@AEBH@std@@QEAA@AEBH@Z
	??$?0AEBH@?$_Tuple_val@AEBH@std@@QEAA@AEBH@Z
	??$?0AEBQ6A_NAEBVany@linb@@0@ZX@?$_Func_impl_no_alloc@P6A_NAEBVany@linb@@0@Z_NAEBV12@AEBV12@@std@@QEAA@AEBQ6A_NAEBVany@linb@@0@Z@Z
	??$?0AEBQEAVComposable@v1_0@opentimelineio@@$$Z$$V@?$pair@QEAVComposable@v1_0@opentimelineio@@VTimeRange@2opentime@@@std@@QEAA@Upiecewise_construct_t@1@V?$tuple@AEBQEAVComposable@v1_0@opentimelineio@@@1@V?$tuple@$$V@1@@Z
	??$?0AEBQEAVComposable@v1_0@opentimelineio@@$0A@@?$tuple@AEBQEAVComposable@v1_0@opentimelineio@@@std@@QEAA@AEBQEAVComposable@v1_0@opentimelineio@@@Z
	??$?0AEBQEAVComposable@v1_0@opentimelineio@@@?$_Tuple_val@AEBQEAVComposable@v1_0@opentimelineio@@@std@@QEAA@AEBQEAVComposable@v1_0@opentimelineio@@@Z
	??$?0AEBQEAVSerializableObject@v1_0@opentimelineio@@$$Z$$V@?$pair@QEAVSerializableObject@v1_0@opentimelineio@@H@std@@QEAA@Upiecewise_construct_t@1@V?$tuple@AEBQEAVSerializableObject@v1_0@opentimelineio@@@1@V?$tuple@$$V@1@@Z
	??$?0AEBQEAVSerializableObject@v1_0@opentimelineio@@$0A@@?$tuple@AEBQEAVSerializableObject@v1_0@opentimelineio@@@std@@QEAA@AEBQEAVSerializableObject@v1_0@opentimelineio@@@Z
	??$?0AEBQEAVSerializableObject@v1_0@opentimelineio@@@?$_Tuple_val@AEBQEAVSerializableObject@v1_0@opentimelineio@@@std@@QEAA@AEBQEAVSerializableObject@v1_0@opentimelineio@@@Z
	??$?0AEBQEBVSerializableObject@v1_0@opentimelineio@@$$Z$$V@?$pair@QEBVSerializableObject@v1_0@opentimelineio@@V?$basic_string@DU?$char_traits@D@std@@V?$allocator@D@2@@std@@@std@@QEAA@Upiecewise_construct_t@1@V?$tuple@AEBQEBVSerializableObject@v1_0@opentimelineio@@@1@V?$tuple@$$V@1@@Z
	??$?0AEBQEBVSerializableObject@v1_0@opentimelineio@@$0A@@?$tuple@AEBQEBVSerializableObject@v1_0@opentimelineio@@@std@@QEAA@AEBQEBVSerializableObject@v1_0@opentimelineio@@@Z
	??$?0AEBQEBVSerializableObject@v1_0@opentimelineio@@@?$_Tuple_val@AEBQEBVSerializableObject@v1_0@opentimelineio@@@std@@QEAA@AEBQEBVSerializableObject@v1_0@opentimelineio@@@Z
	??$?0AEBU?$_Ph@$00@std@@@?$_Tuple_val@U?$_Ph@$00@std@@@std@@QEAA@AEBU?$_Ph@$00@1@@Z
	??$?0AEBU?$less@H@std@@U_Zero_then_variadic_args_t@1@@?$_Compressed_pair@U?$less@H@std@@V?$_Compressed_pair@V?$allocator@U?$_Tree_node@U?$pair@$$CBHV?$function@$$A6AXPEAVAnyDictionary@v1_0@opentimelineio@@@Z@std@@@std@@PEAX@std@@@std@@V?$_Tree_val@U?$_Tree_simple_types@U?$pair@$$CBHV?$function@$$A6AXPEAVAnyDictionary@v1_0@opentimelineio@@@Z@std@@@std@@@std@@@2@$00@2@$00@std@@QEAA@U_One_then_variadic_args_t@1@AEBU?$less@H@1@$$QEAU_Zero_then_variadic_args_t@1@@Z
	??$?0AEBU?$less@PEAVComposable@v1_0@opentimelineio@@@std@@U_One_then_variadic_args_t@1@V?$allocator@U?$_Tree_node@U?$pair@QEAVComposable@v1_0@opentimelineio@@VTimeRange@2opentime@@@std@@PEAX@std@@@1@@?$_Compressed_pair@U?$less@PEAVComposable@v1_0@opentimelineio@@@std@@V?$_Compressed_pair@V?$allocator@U?$_Tree_node@U?$pair@QEAVComposable@v1_0@opentimelineio@@VTimeRange@2opentime@@@std@@PEAX@std@@@std@@V?$_Tree_val@U?$_Tree_simple_types@U?$pair@QEAVComposable@v1_0@opentimelineio@@VTimeRange@2opentime@@@std@@@std@@@2@$00@2@$00@std@@QEAA@U_One_then_variadic_args_t@1@AEBU?$less@PEAVComposable@v1_0@opentimelineio@@@1@$$QEAU21@$$QEAV?$allocator@U?$_Tree_node@U?$pair@QEAVComposable@v1_0@opentimelineio@@VTimeRange@2opentime@@@std@@PEAX@std@@@1@@Z
	??$?0AEBU?$less@PEAVComposable@v1_0@opentimelineio@@@std@@U_Zero_then_variadic_args_t@1@@?$_Compressed_pair@U?$less@PEAVComposable@v1_0@opentimelineio@@@std@@V?$_Compressed_pair@V?$allocator@U?$_Tree_node@PEAVComposable@v1_0@opentimelineio@@PEAX@std@@@std@@V?$_Tree_val@U?$_Tree_simple_types@PEAVComposable@v1_0@opentimelineio@@@std@@@2@$00@2@$00@std@@QEAA@U_One_then_variadic_args_t@1@AEBU?$less@PEAVComposable@v1_0@opentimelineio@@@1@$$QEAU_Zero_then_variadic_args_t@1@@Z
	??$?0AEBU?$less@PEAVComposable@v1_0@opentimelineio@@@std@@U_Zero_then_variadic_args_t@1@@?$_Compressed_pair@U?$less@PEAVComposable@v1_0@opentimelineio@@@std@@V?$_Compressed_pair@V?$allocator@U?$_Tree_node@U?$pair@QEAVComposable@v1_0@opentimelineio@@VTimeRange@2opentime@@@std@@PEAX@std@@@std@@V?$_Tree_val@U?$_Tree_simple_types@U?$pair@QEAVComposable@v1_0@opentimelineio@@VTimeRange@2opentime@@@std@@@std@@@2@$00@2@$00@std@@QEAA@U_One_then_variadic_args_t@1@AEBU?$less@PEAVComposable@v1_0@opentimelineio@@@1@$$QEAU_Zero_then_variadic_args_t@1@@Z
	??$?0AEBU?$less@PEAVSerializableObject@v1_0@opentimelineio@@@std@@U_Zero_then_variadic_args_t@1@@?$_Compressed_pair@U?$less@PEAVSerializableObject@v1_0@opentimelineio@@@std@@V?$_Compressed_pair@V?$allocator@U?$_Tree_node@U?$pair@QEAVSerializableObject@v1_0@opentimelineio@@H@std@@PEAX@std@@@std@@V?$_Tree_val@U?$_Tree_simple_types@U?$pair@QEAVSerializableObject@v1_0@opentimelineio@@H@std@@@std@@@2@$00@2@$00@std@@QEAA@U_One_then_variadic_args_t@1@AEBU?$less@PEAVSerializableObject@v1_0@opentimelineio@@@1@$$QEAU_Zero_then_variadic_args_t@1@@Z
	??$?0AEBU?$less@PEAVSerializableObject@v1_0@opentimelineio@@@std@@U_Zero_then_variadic_args_t@1@@?$_Compressed_pair@U?$less@PEAVSerializableObject@v1_0@opentimelineio@@@std@@V?$_Compressed_pair@V?$allocator@U?$_Tree_node@U?$pair@QEAVSerializableObject@v1_0@opentimelineio@@VAnyDictionary@23@@std@@PEAX@std@@@std@@V?$_Tree_val@U?$_Tree_simple_types@U?$pair@QEAVSerializableObject@v1_0@opentimelineio@@VAnyDictionary@23@@std@@@std@@@2@$00@2@$00@std@@QEAA@U_One_then_variadic_args_t@1@AEBU?$less@PEAVSerializableObject@v1_0@opentimelineio@@@1@$$QEAU_Zero_then_variadic_args_t@1@@Z
	??$?0AEBU?$less@PEAVTrack@v1_0@opentimelineio@@@std@@U_Zero_then_variadic_args_t@1@@?$_Compressed_pair@U?$less@PEAVTrack@v1_0@opentimelineio@@@std@@V?$_Compressed_pair@V?$allocator@U?$_Tree_node@U?$pair@QEAVTrack@v1_0@opentimelineio@@V?$map@PEAVComposable@v1_0@opentimelineio@@VTimeRange@2opentime@@U?$less@PEAVComposable@v1_0@opentimelineio@@@std@@V?$allocator@U?$pair@QEAVComposable@v1_0@opentimelineio@@VTimeRange@2opentime@@@std@@@7@@std@@@std@@PEAX@std@@@std@@V?$_Tree_val@U?$_Tree_simple_types@U?$pair@QEAVTrack@v1_0@opentimelineio@@V?$map@PEAVComposable@v1_0@opentimelineio@@VTimeRange@2opentime@@U?$less@PEAVComposable@v1_0@opentimelineio@@@std@@V?$allocator@U?$pair@QEAVComposable@v1_0@opentimelineio@@VTimeRange@2opentime@@@std@@@7@@std@@@std@@@std@@@2@$00@2@$00@std@@QEAA@U_One_then_variadic_args_t@1@AEBU?$less@PEAVTrack@v1_0@opentimelineio@@@1@$$QEAU_Zero_then_variadic_args_t@1@@Z
	??$?0AEBU?$less@PEBVComposition@v1_0@opentimelineio@@@std@@U_Zero_then_variadic_args_t@1@@?$_Compressed_pair@U?$less@PEBVComposition@v1_0@opentimelineio@@@std@@V?$_Compressed_pair@V?$allocator@U?$_Tree_node@PEBVComposition@v1_0@opentimelineio@@PEAX@std@@@std@@V?$_Tree_val@U?$_Tree_simple_types@PEBVComposition@v1_0@opentimelineio@@@std@@@2@$00@2@$00@std@@QEAA@U_One_then_variadic_args_t@1@AEBU?$less@PEBVComposition@v1_0@opentimelineio@@@1@$$QEAU_Zero_then_variadic_args_t@1@@Z
	??$?0AEBU?$less@PEBVSerializableObject@v1_0@opentimelineio@@@std@@U_Zero_then_variadic_args_t@1@@?$_Compressed_pair@U?$less@PEBVSerializableObject@v1_0@opentimelineio@@@std@@V?$_Compressed_pair@V?$allocator@U?$_Tree_node@U?$pair@QEBVSerializableObject@v1_0@opentimelineio@@V?$basic_string@DU?$char_traits@D@std@@V?$allocator@D@2@@std@@@std@@PEAX@std@@@std@@V?$_Tree_val@U?$_Tree_simple_types@U?$pair@QEBVSerializableObject@v1_0@opentimelineio@@V?$basic_string@DU?$char_traits@D@std@@V?$allocator@D@2@@std@@@std@@@std@@@2@$00@2@$00@std@@QEAA@U_One_then_variadic_args_t@1@AEBU?$less@PEBVSerializableObject@v1_0@opentimelineio@@@1@$$QEAU_Zero_then_variadic_args_t@1@@Z
	??$?0AEBU?$less@PEBVtype_info@@@std@@U_Zero_then_variadic_args_t@1@@?$_Compressed_pair@U?$less@PEBVtype_info@@@std@@V?$_Compressed_pair@V?$allocator@U?$_Tree_node@U?$pair@QEBVtype_info@@V?$function@$$A6AXAEBVany@linb@@@Z@std@@@std@@PEAX@std@@@std@@V?$_Tree_val@U?$_Tree_simple_types@U?$pair@QEBVtype_info@@V?$function@$$A6AXAEBVany@linb@@@Z@std@@@std@@@std@@@2@$00@2@$00@std@@QEAA@U_One_then_variadic_args_t@1@AEBU?$less@PEBVtype_info@@@1@$$QEAU_Zero_then_variadic_args_t@1@@Z
	??$?0AEBU?$less@PEBVtype_info@@@std@@U_Zero_then_variadic_args_t@1@@?$_Compressed_pair@U?$less@PEBVtype_info@@@std@@V?$_Compressed_pair@V?$allocator@U?$_Tree_node@U?$pair@QEBVtype_info@@V?$function@$$A6A_NAEBVany@linb@@0@Z@std@@@std@@PEAX@std@@@std@@V?$_Tree_val@U?$_Tree_simple_types@U?$pair@QEBVtype_info@@V?$function@$$A6A_NAEBVany@linb@@0@Z@std@@@std@@@std@@@2@$00@2@$00@std@@QEAA@U_One_then_variadic_args_t@1@AEBU?$less@PEBVtype_info@@@1@$$QEAU_Zero_then_variadic_args_t@1@@Z
	??$?0AEBU?$less@V?$basic_string@DU?$char_traits@D@std@@V?$allocator@D@2@@std@@@std@@U_One_then_variadic_args_t@1@V?$allocator@U?$_Tree_node@U?$pair@$$CBV?$basic_string@DU?$char_traits@D@std@@V?$allocator@D@2@@std@@Vany@linb@@@std@@PEAX@std@@@1@@?$_Compressed_pair@U?$less@V?$basic_string@DU?$char_traits@D@std@@V?$allocator@D@2@@std@@@std@@V?$_Compressed_pair@V?$allocator@U?$_Tree_node@U?$pair@$$CBV?$basic_string@DU?$char_traits@D@std@@V?$allocator@D@2@@std@@Vany@linb@@@std@@PEAX@std@@@std@@V?$_Tree_val@U?$_Tree_simple_types@U?$pair@$$CBV?$basic_string@DU?$char_traits@D@std@@V?$allocator@D@2@@std@@Vany@linb@@@std@@@std@@@2@$00@2@$00@std@@QEAA@U_One_then_variadic_args_t@1@AEBU?$less@V?$basic_string@DU?$char_traits@D@std@@V?$allocator@D@2@@std@@@1@$$QEAU21@$$QEAV?$allocator@U?$_Tree_node@U?$pair@$$CBV?$basic_string@DU?$char_traits@D@std@@V?$allocator@D@2@@std@@Vany@linb@@@std@@PEAX@std@@@1@@Z
	??$?0AEBU?$less@V?$basic_string@DU?$char_traits@D@std@@V?$allocator@D@2@@std@@@std@@U_Zero_then_variadic_args_t@1@@?$_Compressed_pair@U?$less@V?$basic_string@DU?$char_traits@D@std@@V?$allocator@D@2@@std@@@std@@V?$_Compressed_pair@V?$allocator@U?$_Tree_node@U?$pair@$$CBV?$basic_string@DU?$char_traits@D@std@@V?$allocator@D@2@@std@@H@std@@PEAX@std@@@std@@V?$_Tree_val@U?$_Tree_simple_types@U?$pair@$$CBV?$basic_string@DU?$char_traits@D@std@@V?$allocator@D@2@@std@@H@std@@@std@@@2@$00@2@$00@std@@QEAA@U_One_then_variadic_args_t@1@AEBU?$less@V?$basic_string@DU?$char_traits@D@std@@V?$allocator@D@2@@std@@@1@$$QEAU_Zero_then_variadic_args_t@1@@Z
	??$?0AEBU?$less@V?$basic_string@DU?$char_traits@D@std@@V?$allocator@D@2@@std@@@std@@U_Zero_then_variadic_args_t@1@@?$_Compressed_pair@U?$less@V?$basic_string@DU?$char_traits@D@std@@V?$allocator@D@2@@std@@@std@@V?$_Compressed_pair@V?$allocator@U?$_Tree_node@U?$pair@$$CBV?$basic_string@DU?$char_traits@D@std@@V?$allocator@D@2@@std@@PEAVSerializableObject@v1_0@opentimelineio@@@std@@PEAX@std@@@std@@V?$_Tree_val@U?$_Tree_simple_types@U?$pair@$$CBV?$basic_string@DU?$char_traits@D@std@@V?$allocator@D@2@@std@@PEAVSerializableObject@v1_0@opentimelineio@@@std@@@std@@@2@$00@2@$00@std@@QEAA@U_One_then_variadic_args_t@1@AEBU?$less@V?$basic_string@DU?$char_traits@D@std@@V?$allocator@D@2@@std@@@1@$$QEAU_Zero_then_variadic_args_t@1@@Z
	??$?0AEBU?$less@V?$basic_string@DU?$char_traits@D@std@@V?$allocator@D@2@@std@@@std@@U_Zero_then_variadic_args_t@1@@?$_Compressed_pair@U?$less@V?$basic_string@DU?$char_traits@D@std@@V?$allocator@D@2@@std@@@std@@V?$_Compressed_pair@V?$allocator@U?$_Tree_node@U?$pair@$$CBV?$basic_string@DU?$char_traits@D@std@@V?$allocator@D@2@@std@@PEAV_TypeRecord@TypeRegistry@v1_0@opentimelineio@@@std@@PEAX@std@@@std@@V?$_Tree_val@U?$_Tree_simple_types@U?$pair@$$CBV?$basic_string@DU?$char_traits@D@std@@V?$allocator@D@2@@std@@PEAV_TypeRecord@TypeRegistry@v1_0@opentimelineio@@@std@@@std@@@2@$00@2@$00@std@@QEAA@U_One_then_variadic_args_t@1@AEBU?$less@V?$basic_string@DU?$char_traits@D@std@@V?$allocator@D@2@@std@@@1@$$QEAU_Zero_then_variadic_args_t@1@@Z
	??$?0AEBU?$less@V?$basic_string@DU?$char_traits@D@std@@V?$allocator@D@2@@std@@@std@@U_Zero_then_variadic_args_t@1@@?$_Compressed_pair@U?$less@V?$basic_string@DU?$char_traits@D@std@@V?$allocator@D@2@@std@@@std@@V?$_Compressed_pair@V?$allocator@U?$_Tree_node@U?$pair@$$CBV?$basic_string@DU?$char_traits@D@std@@V?$allocator@D@2@@std@@V?$function@$$A6AXAEBVany@linb@@@Z@2@@std@@PEAX@std@@@std@@V?$_Tree_val@U?$_Tree_simple_types@U?$pair@$$CBV?$basic_string@DU?$char_traits@D@std@@V?$allocator@D@2@@std@@V?$function@$$A6AXAEBVany@linb@@@Z@2@@std@@@std@@@2@$00@2@$00@std@@QEAA@U_One_then_variadic_args_t@1@AEBU?$less@V?$basic_string@DU?$char_traits@D@std@@V?$allocator@D@2@@std@@@1@$$QEAU_Zero_then_variadic_args_t@1@@Z
	??$?0AEBU?$less@V?$basic_string@DU?$char_traits@D@std@@V?$allocator@D@2@@std@@@std@@U_Zero_then_variadic_args_t@1@@?$_Compressed_pair@U?$less@V?$basic_string@DU?$char_traits@D@std@@V?$allocator@D@2@@std@@@std@@V?$_Compressed_pair@V?$allocator@U?$_Tree_node@U?$pair@$$CBV?$basic_string@DU?$char_traits@D@std@@V?$allocator@D@2@@std@@Vany@linb@@@std@@PEAX@std@@@std@@V?$_Tree_val@U?$_Tree_simple_types@U?$pair@$$CBV?$basic_string@DU?$char_traits@D@std@@V?$allocator@D@2@@std@@Vany@linb@@@std@@@std@@@2@$00@2@$00@std@@QEAA@U_One_then_variadic_args_t@1@AEBU?$less@V?$basic_string@DU?$char_traits@D@std@@V?$allocator@D@2@@std@@@1@$$QEAU_Zero_then_variadic_args_t@1@@Z
	??$?0AEBUErrorStatus@v1_0@opentimelineio@@$0A@@?$tuple@AEBUErrorStatus@v1_0@opentimelineio@@@std@@QEAA@AEBUErrorStatus@v1_0@opentimelineio@@@Z
	??$?0AEBUErrorStatus@v1_0@opentimelineio@@@?$_Tuple_val@AEBUErrorStatus@v1_0@opentimelineio@@@std@@QEAA@AEBUErrorStatus@v1_0@opentimelineio@@@Z
	??$?0AEBV<lambda_0d80f6a868f8b36a1d5f68283412da7e>@@X@?$_Func_impl_no_alloc@V<lambda_0d80f6a868f8b36a1d5f68283412da7e>@@PEAVSerializableObject@v1_0@opentimelineio@@$$V@std@@QEAA@AEBV<lambda_0d80f6a868f8b36a1d5f68283412da7e>@@@Z
	??$?0AEBV<lambda_27988cd41ae6a4288cc8caa9931f6267>@@X@?$_Func_impl_no_alloc@V<lambda_27988cd41ae6a4288cc8caa9931f6267>@@PEAVSerializableObject@v1_0@opentimelineio@@$$V@std@@QEAA@AEBV<lambda_27988cd41ae6a4288cc8caa9931f6267>@@@Z
	??$?0AEBV<lambda_3732206c6b8af39d0d8542d4c00085cb>@@X@?$_Func_impl_no_alloc@V<lambda_3732206c6b8af39d0d8542d4c00085cb>@@PEAVSerializableObject@v1_0@opentimelineio@@$$V@std@@QEAA@AEBV<lambda_3732206c6b8af39d0d8542d4c00085cb>@@@Z
	??$?0AEBV<lambda_3a755e0d8b19c3b265999c93c407e624>@@X@?$_Func_impl_no_alloc@V<lambda_3a755e0d8b19c3b265999c93c407e624>@@PEAVSerializableObject@v1_0@opentimelineio@@$$V@std@@QEAA@AEBV<lambda_3a755e0d8b19c3b265999c93c407e624>@@@Z
	??$?0AEBV<lambda_5ddccacd3f77002255f4016c725c7a55>@@X@?$_Func_impl_no_alloc@V<lambda_5ddccacd3f77002255f4016c725c7a55>@@PEAVSerializableObject@v1_0@opentimelineio@@$$V@std@@QEAA@AEBV<lambda_5ddccacd3f77002255f4016c725c7a55>@@@Z
	??$?0AEBV<lambda_651a8b2021ee43daced787a936a58fab>@@X@?$_Func_impl_no_alloc@V<lambda_651a8b2021ee43daced787a936a58fab>@@PEAVSerializableObject@v1_0@opentimelineio@@$$V@std@@QEAA@AEBV<lambda_651a8b2021ee43daced787a936a58fab>@@@Z
	??$?0AEBV<lambda_69b8fad06dc2ded66a083d5ea69c9992>@@X@?$_Func_impl_no_alloc@V<lambda_69b8fad06dc2ded66a083d5ea69c9992>@@PEAVSerializableObject@v1_0@opentimelineio@@$$V@std@@QEAA@AEBV<lambda_69b8fad06dc2ded66a083d5ea69c9992>@@@Z
	??$?0AEBV<lambda_6cb77d3f4339c3ac20acbae2e2a5ac3e>@@X@?$_Func_impl_no_alloc@V<lambda_6cb77d3f4339c3ac20acbae2e2a5ac3e>@@PEAVSerializableObject@v1_0@opentimelineio@@$$V@std@@QEAA@AEBV<lambda_6cb77d3f4339c3ac20acbae2e2a5ac3e>@@@Z
	??$?0AEBV<lambda_6e89609f4599898de401668f9f0eac24>@@X@?$_Func_impl_no_alloc@V<lambda_6e89609f4599898de401668f9f0eac24>@@PEAVSerializableObject@v1_0@opentimelineio@@$$V@std@@QEAA@AEBV<lambda_6e89609f4599898de401668f9f0eac24>@@@Z
	??$?0AEBV<lambda_75a2f7577643b9f1ad091410b79c5b2c>@@X@?$_Func_impl_no_alloc@V<lambda_75a2f7577643b9f1ad091410b79c5b2c>@@PEAVSerializableObject@v1_0@opentimelineio@@$$V@std@@QEAA@AEBV<lambda_75a2f7577643b9f1ad091410b79c5b2c>@@@Z
	??$?0AEBV<lambda_76eca87a02e8a96c82650c9895946a93>@@X@?$_Func_impl_no_alloc@V<lambda_76eca87a02e8a96c82650c9895946a93>@@PEAVSerializableObject@v1_0@opentimelineio@@$$V@std@@QEAA@AEBV<lambda_76eca87a02e8a96c82650c9895946a93>@@@Z
	??$?0AEBV<lambda_7a39e7abaca8030fbed7b6163cf2ac7e>@@X@?$_Func_impl_no_alloc@V<lambda_7a39e7abaca8030fbed7b6163cf2ac7e>@@PEAVSerializableObject@v1_0@opentimelineio@@$$V@std@@QEAA@AEBV<lambda_7a39e7abaca8030fbed7b6163cf2ac7e>@@@Z
	??$?0AEBV<lambda_7ad123fd80a0e795f627b98885f054a9>@@X@?$_Func_impl_no_alloc@V<lambda_7ad123fd80a0e795f627b98885f054a9>@@PEAVSerializableObject@v1_0@opentimelineio@@$$V@std@@QEAA@AEBV<lambda_7ad123fd80a0e795f627b98885f054a9>@@@Z
	??$?0AEBV<lambda_9443c01dc1ed3db71386b1d5715e24ee>@@X@?$_Func_impl_no_alloc@V<lambda_9443c01dc1ed3db71386b1d5715e24ee>@@PEAVSerializableObject@v1_0@opentimelineio@@$$V@std@@QEAA@AEBV<lambda_9443c01dc1ed3db71386b1d5715e24ee>@@@Z
	??$?0AEBV<lambda_c6547d0cfce5b73f7e2493d990f979cb>@@X@?$_Func_impl_no_alloc@V<lambda_c6547d0cfce5b73f7e2493d990f979cb>@@PEAVSerializableObject@v1_0@opentimelineio@@$$V@std@@QEAA@AEBV<lambda_c6547d0cfce5b73f7e2493d990f979cb>@@@Z
	??$?0AEBV<lambda_c98e3b18bd6b6fb88298302e9b12aff7>@@X@?$_Func_impl_no_alloc@V<lambda_c98e3b18bd6b6fb88298302e9b12aff7>@@PEAVSerializableObject@v1_0@opentimelineio@@$$V@std@@QEAA@AEBV<lambda_c98e3b18bd6b6fb88298302e9b12aff7>@@@Z
	??$?0AEBV<lambda_cba0749f46c119f7b63682ec6ce1bdaa>@@X@?$_Func_impl_no_alloc@V<lambda_cba0749f46c119f7b63682ec6ce1bdaa>@@PEAVSerializableObject@v1_0@opentimelineio@@$$V@std@@QEAA@AEBV<lambda_cba0749f46c119f7b63682ec6ce1bdaa>@@@Z
	??$?0AEBV<lambda_d2673311fb86753a5af4fed0b679e1fc>@@X@?$_Func_impl_no_alloc@V<lambda_d2673311fb86753a5af4fed0b679e1fc>@@PEAVSerializableObject@v1_0@opentimelineio@@$$V@std@@QEAA@AEBV<lambda_d2673311fb86753a5af4fed0b679e1fc>@@@Z
	??$?0AEBV<lambda_d6bc8737d8bc7e3959c59b9691239ab6>@@X@?$_Func_impl_no_alloc@V<lambda_d6bc8737d8bc7e3959c59b9691239ab6>@@PEAVSerializableObject@v1_0@opentimelineio@@$$V@std@@QEAA@AEBV<lambda_d6bc8737d8bc7e3959c59b9691239ab6>@@@Z
	??$?0AEBV<lambda_e777b282161b9f497bc9ea4bd7150aef>@@X@?$_Func_impl_no_alloc@V<lambda_e777b282161b9f497bc9ea4bd7150aef>@@PEAVSerializableObject@v1_0@opentimelineio@@$$V@std@@QEAA@AEBV<lambda_e777b282161b9f497bc9ea4bd7150aef>@@@Z
	??$?0AEBV<lambda_ee5fcd274901b255b1db6ecbe82f8ba7>@@X@?$_Func_impl_no_alloc@V<lambda_ee5fcd274901b255b1db6ecbe82f8ba7>@@PEAVSerializableObject@v1_0@opentimelineio@@$$V@std@@QEAA@AEBV<lambda_ee5fcd274901b255b1db6ecbe82f8ba7>@@@Z
	??$?0AEBV<lambda_fd597aa0b1bb92b7cb8cbd2b41c97086>@@X@?$_Func_impl_no_alloc@V<lambda_fd597aa0b1bb92b7cb8cbd2b41c97086>@@PEAVSerializableObject@v1_0@opentimelineio@@$$V@std@@QEAA@AEBV<lambda_fd597aa0b1bb92b7cb8cbd2b41c97086>@@@Z
	??$?0AEBV?$_Binder@U_Unforced@std@@P8?$CursorStreamWrapper@U?$GenericStringStream@U?$UTF8@D@OTIO_rapidjson@@@OTIO_rapidjson@@U?$UTF8@D@2@@OTIO_rapidjson@@EBA_KXZPEAV34@@std@@X@?$_Func_impl_no_alloc@V?$_Binder@U_Unforced@std@@P8?$CursorStreamWrapper@U?$GenericStringStream@U?$UTF8@D@OTIO_rapidjson@@@OTIO_rapidjson@@U?$UTF8@D@2@@OTIO_rapidjson@@EBA_KXZPEAV34@@std@@_K$$V@std@@QEAA@AEBV?$_Binder@U_Unforced@std@@P8?$CursorStreamWrapper@U?$GenericStringStream@U?$UTF8@D@OTIO_rapidjson@@@OTIO_rapidjson@@U?$UTF8@D@2@@OTIO_rapidjson@@EBA_KXZPEAV34@@1@@Z
	??$?0AEBV?$_Binder@U_Unforced@std@@P8?$CursorStreamWrapper@VFileReadStream@OTIO_rapidjson@@U?$UTF8@D@2@@OTIO_rapidjson@@EBA_KXZPEAV34@@std@@X@?$_Func_impl_no_alloc@V?$_Binder@U_Unforced@std@@P8?$CursorStreamWrapper@VFileReadStream@OTIO_rapidjson@@U?$UTF8@D@2@@OTIO_rapidjson@@EBA_KXZPEAV34@@std@@_K$$V@std@@QEAA@AEBV?$_Binder@U_Unforced@std@@P8?$CursorStreamWrapper@VFileReadStream@OTIO_rapidjson@@U?$UTF8@D@2@@OTIO_rapidjson@@EBA_KXZPEAV34@@1@@Z
	??$?0AEBV?$_Binder@U_Unforced@std@@P8Encoder@v1_0@opentimelineio@@EAAXAEBUErrorStatus@45@@ZPEAVCloningEncoder@45@AEBU?$_Ph@$00@2@@std@@X@?$_Func_impl_no_alloc@V?$_Binder@U_Unforced@std@@P8Encoder@v1_0@opentimelineio@@EAAXAEBUErrorStatus@45@@ZPEAVCloningEncoder@45@AEBU?$_Ph@$00@2@@std@@XAEBUErrorStatus@v1_0@opentimelineio@@@std@@QEAA@AEBV?$_Binder@U_Unforced@std@@P8Encoder@v1_0@opentimelineio@@EAAXAEBUErrorStatus@45@@ZPEAVCloningEncoder@45@AEBU?$_Ph@$00@2@@1@@Z
	??$?0AEBV?$_Binder@U_Unforced@std@@P8JSONDecoder@v1_0@opentimelineio@@EAAXAEBUErrorStatus@45@@ZPEAV345@AEBU?$_Ph@$00@2@@std@@X@?$_Func_impl_no_alloc@V?$_Binder@U_Unforced@std@@P8JSONDecoder@v1_0@opentimelineio@@EAAXAEBUErrorStatus@45@@ZPEAV345@AEBU?$_Ph@$00@2@@std@@XAEBUErrorStatus@v1_0@opentimelineio@@@std@@QEAA@AEBV?$_Binder@U_Unforced@std@@P8JSONDecoder@v1_0@opentimelineio@@EAAXAEBUErrorStatus@45@@ZPEAV345@AEBU?$_Ph@$00@2@@1@@Z
	??$?0AEBV?$allocator@D@std@@$$V@?$_Compressed_pair@V?$allocator@D@std@@V?$_String_val@U?$_Simple_types@D@std@@@2@$00@std@@QEAA@U_One_then_variadic_args_t@1@AEBV?$allocator@D@1@@Z
	??$?0AEBV?$allocator@D@std@@X@?$_String_alloc@U?$_String_base_types@DV?$allocator@D@std@@@std@@@std@@QEAA@AEBV?$allocator@D@1@@Z
	??$?0AEBV?$allocator@PEAVComposable@v1_0@opentimelineio@@@std@@$$V@?$_Compressed_pair@V?$allocator@PEAVComposable@v1_0@opentimelineio@@@std@@V?$_Vector_val@U?$_Simple_types@PEAVComposable@v1_0@opentimelineio@@@std@@@2@$00@std@@QEAA@U_One_then_variadic_args_t@1@AEBV?$allocator@PEAVComposable@v1_0@opentimelineio@@@1@@Z
	??$?0AEBV?$allocator@PEAVComposable@v1_0@opentimelineio@@@std@@X@?$_Vector_alloc@U?$_Vec_base_types@PEAVComposable@v1_0@opentimelineio@@V?$allocator@PEAVComposable@v1_0@opentimelineio@@@std@@@std@@@std@@QEAA@AEBV?$allocator@PEAVComposable@v1_0@opentimelineio@@@1@@Z
	??$?0AEBV?$allocator@PEAVComposition@v1_0@opentimelineio@@@std@@$$V@?$_Compressed_pair@V?$allocator@PEAVComposition@v1_0@opentimelineio@@@std@@V?$_Vector_val@U?$_Simple_types@PEAVComposition@v1_0@opentimelineio@@@std@@@2@$00@std@@QEAA@U_One_then_variadic_args_t@1@AEBV?$allocator@PEAVComposition@v1_0@opentimelineio@@@1@@Z
	??$?0AEBV?$allocator@PEAVComposition@v1_0@opentimelineio@@@std@@X@?$_Vector_alloc@U?$_Vec_base_types@PEAVComposition@v1_0@opentimelineio@@V?$allocator@PEAVComposition@v1_0@opentimelineio@@@std@@@std@@@std@@QEAA@AEBV?$allocator@PEAVComposition@v1_0@opentimelineio@@@1@@Z
	??$?0AEBV?$allocator@U?$Retainer@VComposable@v1_0@opentimelineio@@@SerializableObject@v1_0@opentimelineio@@@std@@$$V@?$_Compressed_pair@V?$allocator@U?$Retainer@VComposable@v1_0@opentimelineio@@@SerializableObject@v1_0@opentimelineio@@@std@@V?$_Vector_val@U?$_Simple_types@U?$Retainer@VComposable@v1_0@opentimelineio@@@SerializableObject@v1_0@opentimelineio@@@std@@@2@$00@std@@QEAA@U_One_then_variadic_args_t@1@AEBV?$allocator@U?$Retainer@VComposable@v1_0@opentimelineio@@@SerializableObject@v1_0@opentimelineio@@@1@@Z
	??$?0AEBV?$allocator@U?$Retainer@VComposable@v1_0@opentimelineio@@@SerializableObject@v1_0@opentimelineio@@@std@@X@?$_Vector_alloc@U?$_Vec_base_types@U?$Retainer@VComposable@v1_0@opentimelineio@@@SerializableObject@v1_0@opentimelineio@@V?$allocator@U?$Retainer@VComposable@v1_0@opentimelineio@@@SerializableObject@v1_0@opentimelineio@@@std@@@std@@@std@@QEAA@AEBV?$allocator@U?$Retainer@VComposable@v1_0@opentimelineio@@@SerializableObject@v1_0@opentimelineio@@@1@@Z
	??$?0AEBV?$allocator@U?$Retainer@VEffect@v1_0@opentimelineio@@@SerializableObject@v1_0@opentimelineio@@@std@@$$V@?$_Compressed_pair@V?$allocator@U?$Retainer@VEffect@v1_0@opentimelineio@@@SerializableObject@v1_0@opentimelineio@@@std@@V?$_Vector_val@U?$_Simple_types@U?$Retainer@VEffect@v1_0@opentimelineio@@@SerializableObject@v1_0@opentimelineio@@@std@@@2@$00@std@@QEAA@U_One_then_variadic_args_t@1@AEBV?$allocator@U?$Retainer@VEffect@v1_0@opentimelineio@@@SerializableObject@v1_0@opentimelineio@@@1@@Z
	??$?0AEBV?$allocator@U?$Retainer@VEffect@v1_0@opentimelineio@@@SerializableObject@v1_0@opentimelineio@@@std@@X@?$_Vector_alloc@U?$_Vec_base_types@U?$Retainer@VEffect@v1_0@opentimelineio@@@SerializableObject@v1_0@opentimelineio@@V?$allocator@U?$Retainer@VEffect@v1_0@opentimelineio@@@SerializableObject@v1_0@opentimelineio@@@std@@@std@@@std@@QEAA@AEBV?$allocator@U?$Retainer@VEffect@v1_0@opentimelineio@@@SerializableObject@v1_0@opentimelineio@@@1@@Z
	??$?0AEBV?$allocator@U?$Retainer@VMarker@v1_0@opentimelineio@@@SerializableObject@v1_0@opentimelineio@@@std@@$$V@?$_Compressed_pair@V?$allocator@U?$Retainer@VMarker@v1_0@opentimelineio@@@SerializableObject@v1_0@opentimelineio@@@std@@V?$_Vector_val@U?$_Simple_types@U?$Retainer@VMarker@v1_0@opentimelineio@@@SerializableObject@v1_0@opentimelineio@@@std@@@2@$00@std@@QEAA@U_One_then_variadic_args_t@1@AEBV?$allocator@U?$Retainer@VMarker@v1_0@opentimelineio@@@SerializableObject@v1_0@opentimelineio@@@1@@Z
	??$?0AEBV?$allocator@U?$Retainer@VMarker@v1_0@opentimelineio@@@SerializableObject@v1_0@opentimelineio@@@std@@X@?$_Vector_alloc@U?$_Vec_base_types@U?$Retainer@VMarker@v1_0@opentimelineio@@@SerializableObject@v1_0@opentimelineio@@V?$allocator@U?$Retainer@VMarker@v1_0@opentimelineio@@@SerializableObject@v1_0@opentimelineio@@@std@@@std@@@std@@QEAA@AEBV?$allocator@U?$Retainer@VMarker@v1_0@opentimelineio@@@SerializableObject@v1_0@opentimelineio@@@1@@Z
	??$?0AEBV?$allocator@U?$Retainer@VSerializableObject@v1_0@opentimelineio@@@SerializableObject@v1_0@opentimelineio@@@std@@$$V@?$_Compressed_pair@V?$allocator@U?$Retainer@VSerializableObject@v1_0@opentimelineio@@@SerializableObject@v1_0@opentimelineio@@@std@@V?$_Vector_val@U?$_Simple_types@U?$Retainer@VSerializableObject@v1_0@opentimelineio@@@SerializableObject@v1_0@opentimelineio@@@std@@@2@$00@std@@QEAA@U_One_then_variadic_args_t@1@AEBV?$allocator@U?$Retainer@VSerializableObject@v1_0@opentimelineio@@@SerializableObject@v1_0@opentimelineio@@@1@@Z
	??$?0AEBV?$allocator@U?$Retainer@VSerializableObject@v1_0@opentimelineio@@@SerializableObject@v1_0@opentimelineio@@@std@@X@?$_Vector_alloc@U?$_Vec_base_types@U?$Retainer@VSerializableObject@v1_0@opentimelineio@@@SerializableObject@v1_0@opentimelineio@@V?$allocator@U?$Retainer@VSerializableObject@v1_0@opentimelineio@@@SerializableObject@v1_0@opentimelineio@@@std@@@std@@@std@@QEAA@AEBV?$allocator@U?$Retainer@VSerializableObject@v1_0@opentimelineio@@@SerializableObject@v1_0@opentimelineio@@@1@@Z
	??$?0AEBV?$basic_string@DU?$char_traits@D@std@@V?$allocator@D@2@@std@@$$Z$$V@?$pair@$$CBV?$basic_string@DU?$char_traits@D@std@@V?$allocator@D@2@@std@@H@std@@QEAA@Upiecewise_construct_t@1@V?$tuple@AEBV?$basic_string@DU?$char_traits@D@std@@V?$allocator@D@2@@std@@@1@V?$tuple@$$V@1@@Z
	??$?0AEBV?$basic_string@DU?$char_traits@D@std@@V?$allocator@D@2@@std@@$$Z$$V@?$pair@$$CBV?$basic_string@DU?$char_traits@D@std@@V?$allocator@D@2@@std@@PEAVSerializableObject@v1_0@opentimelineio@@@std@@QEAA@Upiecewise_construct_t@1@V?$tuple@AEBV?$basic_string@DU?$char_traits@D@std@@V?$allocator@D@2@@std@@@1@V?$tuple@$$V@1@@Z
	??$?0AEBV?$basic_string@DU?$char_traits@D@std@@V?$allocator@D@2@@std@@$$Z$$V@?$pair@$$CBV?$basic_string@DU?$char_traits@D@std@@V?$allocator@D@2@@std@@PEAV_TypeRecord@TypeRegistry@v1_0@opentimelineio@@@std@@QEAA@Upiecewise_construct_t@1@V?$tuple@AEBV?$basic_string@DU?$char_traits@D@std@@V?$allocator@D@2@@std@@@1@V?$tuple@$$V@1@@Z
	??$?0AEBV?$basic_string@DU?$char_traits@D@std@@V?$allocator@D@2@@std@@$0A@@?$tuple@AEBV?$basic_string@DU?$char_traits@D@std@@V?$allocator@D@2@@std@@@std@@QEAA@AEBV?$basic_string@DU?$char_traits@D@std@@V?$allocator@D@2@@1@@Z
	??$?0AEBV?$basic_string@DU?$char_traits@D@std@@V?$allocator@D@2@@std@@@?$_Tuple_val@AEBV?$basic_string@DU?$char_traits@D@std@@V?$allocator@D@2@@std@@@std@@QEAA@AEBV?$basic_string@DU?$char_traits@D@std@@V?$allocator@D@2@@1@@Z
	??$?0AEBV?$basic_string@DU?$char_traits@D@std@@V?$allocator@D@2@@std@@Vany@linb@@$0A@@?$pair@$$CBV?$basic_string@DU?$char_traits@D@std@@V?$allocator@D@2@@std@@Vany@linb@@@std@@QEAA@AEBV?$basic_string@DU?$char_traits@D@std@@V?$allocator@D@2@@1@$$QEAVany@linb@@@Z
	??$?0AEBV?$basic_string@DU?$char_traits@D@std@@V?$allocator@D@2@@std@@X@any@linb@@QEAA@AEBV?$basic_string@DU?$char_traits@D@std@@V?$allocator@D@2@@std@@@Z
	??$?0AEBVRationalTime@v1_0@opentime@@X@any@linb@@QEAA@AEBVRationalTime@v1_0@opentime@@@Z
	??$?0AEBVTimeRange@v1_0@opentime@@@?$optional@VTimeRange@v1_0@opentime@@@optional_lite@nonstd@@QEAA@AEBVTimeRange@v1_0@opentime@@PEAX@Z
	??$?0AEBVTimeRange@v1_0@opentime@@X@any@linb@@QEAA@AEBVTimeRange@v1_0@opentime@@@Z
	??$?0AEBVTimeTransform@v1_0@opentime@@X@any@linb@@QEAA@AEBVTimeTransform@v1_0@opentime@@@Z
	??$?0HX@any@linb@@QEAA@$$QEAH@Z
	??$?0P6A_NAEBVany@linb@@0@ZX@?$_Func_impl_no_alloc@P6A_NAEBVany@linb@@0@Z_NAEBV12@AEBV12@@std@@QEAA@$$QEAP6A_NAEBVany@linb@@0@Z@Z
	??$?0P6A_NAEBVany@linb@@0@ZX@?$function@$$A6A_NAEBVany@linb@@0@Z@std@@QEAA@P6A_NAEBVany@linb@@0@Z@Z
	??$?0P8?$CursorStreamWrapper@U?$GenericStringStream@U?$UTF8@D@OTIO_rapidjson@@@OTIO_rapidjson@@U?$UTF8@D@2@@OTIO_rapidjson@@EBA_KXZPEAV01@@?$_Compressed_pair@P8?$CursorStreamWrapper@U?$GenericStringStream@U?$UTF8@D@OTIO_rapidjson@@@OTIO_rapidjson@@U?$UTF8@D@2@@OTIO_rapidjson@@EBA_KXZV?$tuple@PEAV?$CursorStreamWrapper@U?$GenericStringStream@U?$UTF8@D@OTIO_rapidjson@@@OTIO_rapidjson@@U?$UTF8@D@2@@OTIO_rapidjson@@@std@@$0A@@std@@QEAA@U_One_then_variadic_args_t@1@$$QEAP8?$CursorStreamWrapper@U?$GenericStringStream@U?$UTF8@D@OTIO_rapidjson@@@OTIO_rapidjson@@U?$UTF8@D@2@@OTIO_rapidjson@@EBA_KXZ$$QEAPEAV34@@Z
	??$?0P8?$CursorStreamWrapper@VFileReadStream@OTIO_rapidjson@@U?$UTF8@D@2@@OTIO_rapidjson@@EBA_KXZPEAV01@@?$_Compressed_pair@P8?$CursorStreamWrapper@VFileReadStream@OTIO_rapidjson@@U?$UTF8@D@2@@OTIO_rapidjson@@EBA_KXZV?$tuple@PEAV?$CursorStreamWrapper@VFileReadStream@OTIO_rapidjson@@U?$UTF8@D@2@@OTIO_rapidjson@@@std@@$0A@@std@@QEAA@U_One_then_variadic_args_t@1@$$QEAP8?$CursorStreamWrapper@VFileReadStream@OTIO_rapidjson@@U?$UTF8@D@2@@OTIO_rapidjson@@EBA_KXZ$$QEAPEAV34@@Z
	??$?0P8Encoder@v1_0@opentimelineio@@EAAXAEBUErrorStatus@12@@ZPEAVCloningEncoder@12@AEBU?$_Ph@$00@std@@@?$_Compressed_pair@P8Encoder@v1_0@opentimelineio@@EAAXAEBUErrorStatus@23@@ZV?$tuple@PEAVCloningEncoder@v1_0@opentimelineio@@U?$_Ph@$00@std@@@std@@$0A@@std@@QEAA@U_One_then_variadic_args_t@1@$$QEAP8Encoder@v1_0@opentimelineio@@EAAXAEBUErrorStatus@45@@Z$$QEAPEAVCloningEncoder@45@AEBU?$_Ph@$00@1@@Z
	??$?0P8JSONDecoder@v1_0@opentimelineio@@EAAXAEBUErrorStatus@12@@ZPEAV012@AEBU?$_Ph@$00@std@@@?$_Compressed_pair@P8JSONDecoder@v1_0@opentimelineio@@EAAXAEBUErrorStatus@23@@ZV?$tuple@PEAVJSONDecoder@v1_0@opentimelineio@@U?$_Ph@$00@std@@@std@@$0A@@std@@QEAA@U_One_then_variadic_args_t@1@$$QEAP8JSONDecoder@v1_0@opentimelineio@@EAAXAEBUErrorStatus@45@@Z$$QEAPEAV345@AEBU?$_Ph@$00@1@@Z
	??$?0PEAD@?$_Unique_ptr_base@DU?$default_delete@$$BY0A@D@std@@@std@@QEAA@PEAD@Z
	??$?0PEADU?$default_delete@$$BY0A@D@std@@$0A@X@?$unique_ptr@$$BY0A@DU?$default_delete@$$BY0A@D@std@@@std@@QEAA@PEAD@Z
	??$?0PEADX@?$basic_string@DU?$char_traits@D@std@@V?$allocator@D@2@@std@@QEAA@PEAD0AEBV?$allocator@D@1@@Z
	??$?0PEAV?$CursorStreamWrapper@U?$GenericStringStream@U?$UTF8@D@OTIO_rapidjson@@@OTIO_rapidjson@@U?$UTF8@D@2@@OTIO_rapidjson@@$$V$0A@@?$tuple@PEAV?$CursorStreamWrapper@U?$GenericStringStream@U?$UTF8@D@OTIO_rapidjson@@@OTIO_rapidjson@@U?$UTF8@D@2@@OTIO_rapidjson@@@std@@QEAA@$$QEAPEAV?$CursorStreamWrapper@U?$GenericStringStream@U?$UTF8@D@OTIO_rapidjson@@@OTIO_rapidjson@@U?$UTF8@D@2@@OTIO_rapidjson@@@Z
	??$?0PEAV?$CursorStreamWrapper@U?$GenericStringStream@U?$UTF8@D@OTIO_rapidjson@@@OTIO_rapidjson@@U?$UTF8@D@2@@OTIO_rapidjson@@@?$_Tuple_val@PEAV?$CursorStreamWrapper@U?$GenericStringStream@U?$UTF8@D@OTIO_rapidjson@@@OTIO_rapidjson@@U?$UTF8@D@2@@OTIO_rapidjson@@@std@@QEAA@$$QEAPEAV?$CursorStreamWrapper@U?$GenericStringStream@U?$UTF8@D@OTIO_rapidjson@@@OTIO_rapidjson@@U?$UTF8@D@2@@OTIO_rapidjson@@@Z
	??$?0PEAV?$CursorStreamWrapper@VFileReadStream@OTIO_rapidjson@@U?$UTF8@D@2@@OTIO_rapidjson@@$$V$0A@@?$tuple@PEAV?$CursorStreamWrapper@VFileReadStream@OTIO_rapidjson@@U?$UTF8@D@2@@OTIO_rapidjson@@@std@@QEAA@$$QEAPEAV?$CursorStreamWrapper@VFileReadStream@OTIO_rapidjson@@U?$UTF8@D@2@@OTIO_rapidjson@@@Z
	??$?0PEAV?$CursorStreamWrapper@VFileReadStream@OTIO_rapidjson@@U?$UTF8@D@2@@OTIO_rapidjson@@@?$_Tuple_val@PEAV?$CursorStreamWrapper@VFileReadStream@OTIO_rapidjson@@U?$UTF8@D@2@@OTIO_rapidjson@@@std@@QEAA@$$QEAPEAV?$CursorStreamWrapper@VFileReadStream@OTIO_rapidjson@@U?$UTF8@D@2@@OTIO_rapidjson@@@Z
	??$?0PEAVCloningEncoder@v1_0@opentimelineio@@@?$_Tuple_val@PEAVCloningEncoder@v1_0@opentimelineio@@@std@@QEAA@$$QEAPEAVCloningEncoder@v1_0@opentimelineio@@@Z
	??$?0PEAVCloningEncoder@v1_0@opentimelineio@@AEBU?$_Ph@$00@std@@$0A@@?$tuple@PEAVCloningEncoder@v1_0@opentimelineio@@U?$_Ph@$00@std@@@std@@QEAA@$$QEAPEAVCloningEncoder@v1_0@opentimelineio@@AEBU?$_Ph@$00@1@@Z
	??$?0PEAVComposable@v1_0@opentimelineio@@$$V$0A@@?$tuple@$$QEAPEAVComposable@v1_0@opentimelineio@@@std@@QEAA@$$QEAPEAVComposable@v1_0@opentimelineio@@@Z
	??$?0PEAVComposable@v1_0@opentimelineio@@@?$_Tuple_val@$$QEAPEAVComposable@v1_0@opentimelineio@@@std@@QEAA@$$QEAPEAVComposable@v1_0@opentimelineio@@@Z
	??$?0PEAVJSONDecoder@v1_0@opentimelineio@@@?$_Tuple_val@PEAVJSONDecoder@v1_0@opentimelineio@@@std@@QEAA@$$QEAPEAVJSONDecoder@v1_0@opentimelineio@@@Z
	??$?0PEAVJSONDecoder@v1_0@opentimelineio@@AEBU?$_Ph@$00@std@@$0A@@?$tuple@PEAVJSONDecoder@v1_0@opentimelineio@@U?$_Ph@$00@std@@@std@@QEAA@$$QEAPEAVJSONDecoder@v1_0@opentimelineio@@AEBU?$_Ph@$00@1@@Z
	??$?0PEAV_Facet_base@std@@@?$_Unique_ptr_base@V_Facet_base@std@@U?$default_delete@V_Facet_base@std@@@2@@std@@QEAA@PEAV_Facet_base@1@@Z
	??$?0PEBVtype_info@@$$V$0A@@?$tuple@$$QEAPEBVtype_info@@@std@@QEAA@$$QEAPEBVtype_info@@@Z
	??$?0PEBVtype_info@@@?$_Tuple_val@$$QEAPEBVtype_info@@@std@@QEAA@$$QEAPEBVtype_info@@@Z
	??$?0U?$Retainer@VSerializableObject@v1_0@opentimelineio@@@SerializableObject@v1_0@opentimelineio@@X@any@linb@@QEAA@$$QEAU?$Retainer@VSerializableObject@v1_0@opentimelineio@@@SerializableObject@v1_0@opentimelineio@@@Z
	??$?0U?$default_delete@V_Facet_base@std@@@std@@$0A@@?$unique_ptr@V_Facet_base@std@@U?$default_delete@V_Facet_base@std@@@2@@std@@QEAA@PEAV_Facet_base@1@@Z
	??$?0U?$integral_constant@_N$00@std@@@_Unused_parameter@std@@QEAA@$$QEAU?$integral_constant@_N$00@1@@Z
	??$?0UReferenceId@SerializableObject@v1_0@opentimelineio@@X@any@linb@@QEAA@$$QEAUReferenceId@SerializableObject@v1_0@opentimelineio@@@Z
	??$?0U_Exact_args_t@std@@$0A@@?$tuple@$$V@std@@QEAA@U_Exact_args_t@1@@Z
	??$?0U_Exact_args_t@std@@AEBH$$V$0A@@?$tuple@AEBH@std@@QEAA@U_Exact_args_t@1@AEBH@Z
	??$?0U_Exact_args_t@std@@AEBQEAVComposable@v1_0@opentimelineio@@$$V$0A@@?$tuple@AEBQEAVComposable@v1_0@opentimelineio@@@std@@QEAA@U_Exact_args_t@1@AEBQEAVComposable@v1_0@opentimelineio@@@Z
	??$?0U_Exact_args_t@std@@AEBQEAVSerializableObject@v1_0@opentimelineio@@$$V$0A@@?$tuple@AEBQEAVSerializableObject@v1_0@opentimelineio@@@std@@QEAA@U_Exact_args_t@1@AEBQEAVSerializableObject@v1_0@opentimelineio@@@Z
	??$?0U_Exact_args_t@std@@AEBQEBVSerializableObject@v1_0@opentimelineio@@$$V$0A@@?$tuple@AEBQEBVSerializableObject@v1_0@opentimelineio@@@std@@QEAA@U_Exact_args_t@1@AEBQEBVSerializableObject@v1_0@opentimelineio@@@Z
	??$?0U_Exact_args_t@std@@AEBU?$_Ph@$00@1@$$V$0A@@?$tuple@U?$_Ph@$00@std@@@std@@QEAA@U_Exact_args_t@1@AEBU?$_Ph@$00@1@@Z
	??$?0U_Exact_args_t@std@@AEBUErrorStatus@v1_0@opentimelineio@@$$V$0A@@?$tuple@AEBUErrorStatus@v1_0@opentimelineio@@@std@@QEAA@U_Exact_args_t@1@AEBUErrorStatus@v1_0@opentimelineio@@@Z
	??$?0U_Exact_args_t@std@@AEBV?$basic_string@DU?$char_traits@D@std@@V?$allocator@D@2@@1@$$V$0A@@?$tuple@AEBV?$basic_string@DU?$char_traits@D@std@@V?$allocator@D@2@@std@@@std@@QEAA@U_Exact_args_t@1@AEBV?$basic_string@DU?$char_traits@D@std@@V?$allocator@D@2@@1@@Z
	??$?0U_Exact_args_t@std@@PEAV?$CursorStreamWrapper@U?$GenericStringStream@U?$UTF8@D@OTIO_rapidjson@@@OTIO_rapidjson@@U?$UTF8@D@2@@OTIO_rapidjson@@$$V$0A@@?$tuple@PEAV?$CursorStreamWrapper@U?$GenericStringStream@U?$UTF8@D@OTIO_rapidjson@@@OTIO_rapidjson@@U?$UTF8@D@2@@OTIO_rapidjson@@@std@@QEAA@U_Exact_args_t@1@$$QEAPEAV?$CursorStreamWrapper@U?$GenericStringStream@U?$UTF8@D@OTIO_rapidjson@@@OTIO_rapidjson@@U?$UTF8@D@2@@OTIO_rapidjson@@@Z
	??$?0U_Exact_args_t@std@@PEAV?$CursorStreamWrapper@VFileReadStream@OTIO_rapidjson@@U?$UTF8@D@2@@OTIO_rapidjson@@$$V$0A@@?$tuple@PEAV?$CursorStreamWrapper@VFileReadStream@OTIO_rapidjson@@U?$UTF8@D@2@@OTIO_rapidjson@@@std@@QEAA@U_Exact_args_t@1@$$QEAPEAV?$CursorStreamWrapper@VFileReadStream@OTIO_rapidjson@@U?$UTF8@D@2@@OTIO_rapidjson@@@Z
	??$?0U_Exact_args_t@std@@PEAVCloningEncoder@v1_0@opentimelineio@@AEBU?$_Ph@$00@1@$0A@@?$tuple@PEAVCloningEncoder@v1_0@opentimelineio@@U?$_Ph@$00@std@@@std@@QEAA@U_Exact_args_t@1@$$QEAPEAVCloningEncoder@v1_0@opentimelineio@@AEBU?$_Ph@$00@1@@Z
	??$?0U_Exact_args_t@std@@PEAVComposable@v1_0@opentimelineio@@$$V$0A@@?$tuple@$$QEAPEAVComposable@v1_0@opentimelineio@@@std@@QEAA@U_Exact_args_t@1@$$QEAPEAVComposable@v1_0@opentimelineio@@@Z
	??$?0U_Exact_args_t@std@@PEAVJSONDecoder@v1_0@opentimelineio@@AEBU?$_Ph@$00@1@$0A@@?$tuple@PEAVJSONDecoder@v1_0@opentimelineio@@U?$_Ph@$00@std@@@std@@QEAA@U_Exact_args_t@1@$$QEAPEAVJSONDecoder@v1_0@opentimelineio@@AEBU?$_Ph@$00@1@@Z
	??$?0U_Exact_args_t@std@@PEBVtype_info@@$$V$0A@@?$tuple@$$QEAPEBVtype_info@@@std@@QEAA@U_Exact_args_t@1@$$QEAPEBVtype_info@@@Z
	??$?0U_Exact_args_t@std@@V?$basic_string@DU?$char_traits@D@std@@V?$allocator@D@2@@1@$$V$0A@@?$tuple@$$QEAV?$basic_string@DU?$char_traits@D@std@@V?$allocator@D@2@@std@@@std@@QEAA@U_Exact_args_t@1@$$QEAV?$basic_string@DU?$char_traits@D@std@@V?$allocator@D@2@@1@@Z
	??$?0V<lambda_0d80f6a868f8b36a1d5f68283412da7e>@@X@?$_Func_impl_no_alloc@V<lambda_0d80f6a868f8b36a1d5f68283412da7e>@@PEAVSerializableObject@v1_0@opentimelineio@@$$V@std@@QEAA@$$QEAV<lambda_0d80f6a868f8b36a1d5f68283412da7e>@@@Z
	??$?0V<lambda_0d80f6a868f8b36a1d5f68283412da7e>@@X@?$function@$$A6APEAVSerializableObject@v1_0@opentimelineio@@XZ@std@@QEAA@V<lambda_0d80f6a868f8b36a1d5f68283412da7e>@@@Z
	??$?0V<lambda_27988cd41ae6a4288cc8caa9931f6267>@@X@?$_Func_impl_no_alloc@V<lambda_27988cd41ae6a4288cc8caa9931f6267>@@PEAVSerializableObject@v1_0@opentimelineio@@$$V@std@@QEAA@$$QEAV<lambda_27988cd41ae6a4288cc8caa9931f6267>@@@Z
	??$?0V<lambda_27988cd41ae6a4288cc8caa9931f6267>@@X@?$function@$$A6APEAVSerializableObject@v1_0@opentimelineio@@XZ@std@@QEAA@V<lambda_27988cd41ae6a4288cc8caa9931f6267>@@@Z
	??$?0V<lambda_3732206c6b8af39d0d8542d4c00085cb>@@X@?$_Func_impl_no_alloc@V<lambda_3732206c6b8af39d0d8542d4c00085cb>@@PEAVSerializableObject@v1_0@opentimelineio@@$$V@std@@QEAA@$$QEAV<lambda_3732206c6b8af39d0d8542d4c00085cb>@@@Z
	??$?0V<lambda_3732206c6b8af39d0d8542d4c00085cb>@@X@?$function@$$A6APEAVSerializableObject@v1_0@opentimelineio@@XZ@std@@QEAA@V<lambda_3732206c6b8af39d0d8542d4c00085cb>@@@Z
	??$?0V<lambda_3a755e0d8b19c3b265999c93c407e624>@@X@?$_Func_impl_no_alloc@V<lambda_3a755e0d8b19c3b265999c93c407e624>@@PEAVSerializableObject@v1_0@opentimelineio@@$$V@std@@QEAA@$$QEAV<lambda_3a755e0d8b19c3b265999c93c407e624>@@@Z
	??$?0V<lambda_3a755e0d8b19c3b265999c93c407e624>@@X@?$function@$$A6APEAVSerializableObject@v1_0@opentimelineio@@XZ@std@@QEAA@V<lambda_3a755e0d8b19c3b265999c93c407e624>@@@Z
	??$?0V<lambda_5ddccacd3f77002255f4016c725c7a55>@@X@?$_Func_impl_no_alloc@V<lambda_5ddccacd3f77002255f4016c725c7a55>@@PEAVSerializableObject@v1_0@opentimelineio@@$$V@std@@QEAA@$$QEAV<lambda_5ddccacd3f77002255f4016c725c7a55>@@@Z
	??$?0V<lambda_5ddccacd3f77002255f4016c725c7a55>@@X@?$function@$$A6APEAVSerializableObject@v1_0@opentimelineio@@XZ@std@@QEAA@V<lambda_5ddccacd3f77002255f4016c725c7a55>@@@Z
	??$?0V<lambda_651a8b2021ee43daced787a936a58fab>@@X@?$_Func_impl_no_alloc@V<lambda_651a8b2021ee43daced787a936a58fab>@@PEAVSerializableObject@v1_0@opentimelineio@@$$V@std@@QEAA@$$QEAV<lambda_651a8b2021ee43daced787a936a58fab>@@@Z
	??$?0V<lambda_651a8b2021ee43daced787a936a58fab>@@X@?$function@$$A6APEAVSerializableObject@v1_0@opentimelineio@@XZ@std@@QEAA@V<lambda_651a8b2021ee43daced787a936a58fab>@@@Z
	??$?0V<lambda_69b8fad06dc2ded66a083d5ea69c9992>@@X@?$_Func_impl_no_alloc@V<lambda_69b8fad06dc2ded66a083d5ea69c9992>@@PEAVSerializableObject@v1_0@opentimelineio@@$$V@std@@QEAA@$$QEAV<lambda_69b8fad06dc2ded66a083d5ea69c9992>@@@Z
	??$?0V<lambda_69b8fad06dc2ded66a083d5ea69c9992>@@X@?$function@$$A6APEAVSerializableObject@v1_0@opentimelineio@@XZ@std@@QEAA@V<lambda_69b8fad06dc2ded66a083d5ea69c9992>@@@Z
	??$?0V<lambda_6cb77d3f4339c3ac20acbae2e2a5ac3e>@@X@?$_Func_impl_no_alloc@V<lambda_6cb77d3f4339c3ac20acbae2e2a5ac3e>@@PEAVSerializableObject@v1_0@opentimelineio@@$$V@std@@QEAA@$$QEAV<lambda_6cb77d3f4339c3ac20acbae2e2a5ac3e>@@@Z
	??$?0V<lambda_6cb77d3f4339c3ac20acbae2e2a5ac3e>@@X@?$function@$$A6APEAVSerializableObject@v1_0@opentimelineio@@XZ@std@@QEAA@V<lambda_6cb77d3f4339c3ac20acbae2e2a5ac3e>@@@Z
	??$?0V<lambda_6e89609f4599898de401668f9f0eac24>@@X@?$_Func_impl_no_alloc@V<lambda_6e89609f4599898de401668f9f0eac24>@@PEAVSerializableObject@v1_0@opentimelineio@@$$V@std@@QEAA@$$QEAV<lambda_6e89609f4599898de401668f9f0eac24>@@@Z
	??$?0V<lambda_6e89609f4599898de401668f9f0eac24>@@X@?$function@$$A6APEAVSerializableObject@v1_0@opentimelineio@@XZ@std@@QEAA@V<lambda_6e89609f4599898de401668f9f0eac24>@@@Z
	??$?0V<lambda_75a2f7577643b9f1ad091410b79c5b2c>@@X@?$_Func_impl_no_alloc@V<lambda_75a2f7577643b9f1ad091410b79c5b2c>@@PEAVSerializableObject@v1_0@opentimelineio@@$$V@std@@QEAA@$$QEAV<lambda_75a2f7577643b9f1ad091410b79c5b2c>@@@Z
	??$?0V<lambda_75a2f7577643b9f1ad091410b79c5b2c>@@X@?$function@$$A6APEAVSerializableObject@v1_0@opentimelineio@@XZ@std@@QEAA@V<lambda_75a2f7577643b9f1ad091410b79c5b2c>@@@Z
	??$?0V<lambda_76eca87a02e8a96c82650c9895946a93>@@X@?$_Func_impl_no_alloc@V<lambda_76eca87a02e8a96c82650c9895946a93>@@PEAVSerializableObject@v1_0@opentimelineio@@$$V@std@@QEAA@$$QEAV<lambda_76eca87a02e8a96c82650c9895946a93>@@@Z
	??$?0V<lambda_76eca87a02e8a96c82650c9895946a93>@@X@?$function@$$A6APEAVSerializableObject@v1_0@opentimelineio@@XZ@std@@QEAA@V<lambda_76eca87a02e8a96c82650c9895946a93>@@@Z
	??$?0V<lambda_7a39e7abaca8030fbed7b6163cf2ac7e>@@X@?$_Func_impl_no_alloc@V<lambda_7a39e7abaca8030fbed7b6163cf2ac7e>@@PEAVSerializableObject@v1_0@opentimelineio@@$$V@std@@QEAA@$$QEAV<lambda_7a39e7abaca8030fbed7b6163cf2ac7e>@@@Z
	??$?0V<lambda_7a39e7abaca8030fbed7b6163cf2ac7e>@@X@?$function@$$A6APEAVSerializableObject@v1_0@opentimelineio@@XZ@std@@QEAA@V<lambda_7a39e7abaca8030fbed7b6163cf2ac7e>@@@Z
	??$?0V<lambda_7ad123fd80a0e795f627b98885f054a9>@@X@?$_Func_impl_no_alloc@V<lambda_7ad123fd80a0e795f627b98885f054a9>@@PEAVSerializableObject@v1_0@opentimelineio@@$$V@std@@QEAA@$$QEAV<lambda_7ad123fd80a0e795f627b98885f054a9>@@@Z
	??$?0V<lambda_7ad123fd80a0e795f627b98885f054a9>@@X@?$function@$$A6APEAVSerializableObject@v1_0@opentimelineio@@XZ@std@@QEAA@V<lambda_7ad123fd80a0e795f627b98885f054a9>@@@Z
	??$?0V<lambda_9443c01dc1ed3db71386b1d5715e24ee>@@X@?$_Func_impl_no_alloc@V<lambda_9443c01dc1ed3db71386b1d5715e24ee>@@PEAVSerializableObject@v1_0@opentimelineio@@$$V@std@@QEAA@$$QEAV<lambda_9443c01dc1ed3db71386b1d5715e24ee>@@@Z
	??$?0V<lambda_9443c01dc1ed3db71386b1d5715e24ee>@@X@?$function@$$A6APEAVSerializableObject@v1_0@opentimelineio@@XZ@std@@QEAA@V<lambda_9443c01dc1ed3db71386b1d5715e24ee>@@@Z
	??$?0V<lambda_c6547d0cfce5b73f7e2493d990f979cb>@@X@?$_Func_impl_no_alloc@V<lambda_c6547d0cfce5b73f7e2493d990f979cb>@@PEAVSerializableObject@v1_0@opentimelineio@@$$V@std@@QEAA@$$QEAV<lambda_c6547d0cfce5b73f7e2493d990f979cb>@@@Z
	??$?0V<lambda_c6547d0cfce5b73f7e2493d990f979cb>@@X@?$function@$$A6APEAVSerializableObject@v1_0@opentimelineio@@XZ@std@@QEAA@V<lambda_c6547d0cfce5b73f7e2493d990f979cb>@@@Z
	??$?0V<lambda_c98e3b18bd6b6fb88298302e9b12aff7>@@X@?$_Func_impl_no_alloc@V<lambda_c98e3b18bd6b6fb88298302e9b12aff7>@@PEAVSerializableObject@v1_0@opentimelineio@@$$V@std@@QEAA@$$QEAV<lambda_c98e3b18bd6b6fb88298302e9b12aff7>@@@Z
	??$?0V<lambda_c98e3b18bd6b6fb88298302e9b12aff7>@@X@?$function@$$A6APEAVSerializableObject@v1_0@opentimelineio@@XZ@std@@QEAA@V<lambda_c98e3b18bd6b6fb88298302e9b12aff7>@@@Z
	??$?0V<lambda_cba0749f46c119f7b63682ec6ce1bdaa>@@X@?$_Func_impl_no_alloc@V<lambda_cba0749f46c119f7b63682ec6ce1bdaa>@@PEAVSerializableObject@v1_0@opentimelineio@@$$V@std@@QEAA@$$QEAV<lambda_cba0749f46c119f7b63682ec6ce1bdaa>@@@Z
	??$?0V<lambda_cba0749f46c119f7b63682ec6ce1bdaa>@@X@?$function@$$A6APEAVSerializableObject@v1_0@opentimelineio@@XZ@std@@QEAA@V<lambda_cba0749f46c119f7b63682ec6ce1bdaa>@@@Z
	??$?0V<lambda_d2673311fb86753a5af4fed0b679e1fc>@@X@?$_Func_impl_no_alloc@V<lambda_d2673311fb86753a5af4fed0b679e1fc>@@PEAVSerializableObject@v1_0@opentimelineio@@$$V@std@@QEAA@$$QEAV<lambda_d2673311fb86753a5af4fed0b679e1fc>@@@Z
	??$?0V<lambda_d2673311fb86753a5af4fed0b679e1fc>@@X@?$function@$$A6APEAVSerializableObject@v1_0@opentimelineio@@XZ@std@@QEAA@V<lambda_d2673311fb86753a5af4fed0b679e1fc>@@@Z
	??$?0V<lambda_d6bc8737d8bc7e3959c59b9691239ab6>@@X@?$_Func_impl_no_alloc@V<lambda_d6bc8737d8bc7e3959c59b9691239ab6>@@PEAVSerializableObject@v1_0@opentimelineio@@$$V@std@@QEAA@$$QEAV<lambda_d6bc8737d8bc7e3959c59b9691239ab6>@@@Z
	??$?0V<lambda_d6bc8737d8bc7e3959c59b9691239ab6>@@X@?$function@$$A6APEAVSerializableObject@v1_0@opentimelineio@@XZ@std@@QEAA@V<lambda_d6bc8737d8bc7e3959c59b9691239ab6>@@@Z
	??$?0V<lambda_e777b282161b9f497bc9ea4bd7150aef>@@X@?$_Func_impl_no_alloc@V<lambda_e777b282161b9f497bc9ea4bd7150aef>@@PEAVSerializableObject@v1_0@opentimelineio@@$$V@std@@QEAA@$$QEAV<lambda_e777b282161b9f497bc9ea4bd7150aef>@@@Z
	??$?0V<lambda_e777b282161b9f497bc9ea4bd7150aef>@@X@?$function@$$A6APEAVSerializableObject@v1_0@opentimelineio@@XZ@std@@QEAA@V<lambda_e777b282161b9f497bc9ea4bd7150aef>@@@Z
	??$?0V<lambda_ee5fcd274901b255b1db6ecbe82f8ba7>@@X@?$_Func_impl_no_alloc@V<lambda_ee5fcd274901b255b1db6ecbe82f8ba7>@@PEAVSerializableObject@v1_0@opentimelineio@@$$V@std@@QEAA@$$QEAV<lambda_ee5fcd274901b255b1db6ecbe82f8ba7>@@@Z
	??$?0V<lambda_ee5fcd274901b255b1db6ecbe82f8ba7>@@X@?$function@$$A6APEAVSerializableObject@v1_0@opentimelineio@@XZ@std@@QEAA@V<lambda_ee5fcd274901b255b1db6ecbe82f8ba7>@@@Z
	??$?0V<lambda_fd597aa0b1bb92b7cb8cbd2b41c97086>@@X@?$_Func_impl_no_alloc@V<lambda_fd597aa0b1bb92b7cb8cbd2b41c97086>@@PEAVSerializableObject@v1_0@opentimelineio@@$$V@std@@QEAA@$$QEAV<lambda_fd597aa0b1bb92b7cb8cbd2b41c97086>@@@Z
	??$?0V<lambda_fd597aa0b1bb92b7cb8cbd2b41c97086>@@X@?$function@$$A6APEAVSerializableObject@v1_0@opentimelineio@@XZ@std@@QEAA@V<lambda_fd597aa0b1bb92b7cb8cbd2b41c97086>@@@Z
	??$?0V?$_Binder@U_Unforced@std@@P8?$CursorStreamWrapper@U?$GenericStringStream@U?$UTF8@D@OTIO_rapidjson@@@OTIO_rapidjson@@U?$UTF8@D@2@@OTIO_rapidjson@@EBA_KXZPEAV34@@std@@X@?$_Func_impl_no_alloc@V?$_Binder@U_Unforced@std@@P8?$CursorStreamWrapper@U?$GenericStringStream@U?$UTF8@D@OTIO_rapidjson@@@OTIO_rapidjson@@U?$UTF8@D@2@@OTIO_rapidjson@@EBA_KXZPEAV34@@std@@_K$$V@std@@QEAA@$$QEAV?$_Binder@U_Unforced@std@@P8?$CursorStreamWrapper@U?$GenericStringStream@U?$UTF8@D@OTIO_rapidjson@@@OTIO_rapidjson@@U?$UTF8@D@2@@OTIO_rapidjson@@EBA_KXZPEAV34@@1@@Z
	??$?0V?$_Binder@U_Unforced@std@@P8?$CursorStreamWrapper@U?$GenericStringStream@U?$UTF8@D@OTIO_rapidjson@@@OTIO_rapidjson@@U?$UTF8@D@2@@OTIO_rapidjson@@EBA_KXZPEAV34@@std@@X@?$function@$$A6A_KXZ@std@@QEAA@V?$_Binder@U_Unforced@std@@P8?$CursorStreamWrapper@U?$GenericStringStream@U?$UTF8@D@OTIO_rapidjson@@@OTIO_rapidjson@@U?$UTF8@D@2@@OTIO_rapidjson@@EBA_KXZPEAV34@@1@@Z
	??$?0V?$_Binder@U_Unforced@std@@P8?$CursorStreamWrapper@VFileReadStream@OTIO_rapidjson@@U?$UTF8@D@2@@OTIO_rapidjson@@EBA_KXZPEAV34@@std@@X@?$_Func_impl_no_alloc@V?$_Binder@U_Unforced@std@@P8?$CursorStreamWrapper@VFileReadStream@OTIO_rapidjson@@U?$UTF8@D@2@@OTIO_rapidjson@@EBA_KXZPEAV34@@std@@_K$$V@std@@QEAA@$$QEAV?$_Binder@U_Unforced@std@@P8?$CursorStreamWrapper@VFileReadStream@OTIO_rapidjson@@U?$UTF8@D@2@@OTIO_rapidjson@@EBA_KXZPEAV34@@1@@Z
	??$?0V?$_Binder@U_Unforced@std@@P8?$CursorStreamWrapper@VFileReadStream@OTIO_rapidjson@@U?$UTF8@D@2@@OTIO_rapidjson@@EBA_KXZPEAV34@@std@@X@?$function@$$A6A_KXZ@std@@QEAA@V?$_Binder@U_Unforced@std@@P8?$CursorStreamWrapper@VFileReadStream@OTIO_rapidjson@@U?$UTF8@D@2@@OTIO_rapidjson@@EBA_KXZPEAV34@@1@@Z
	??$?0V?$_Binder@U_Unforced@std@@P8Encoder@v1_0@opentimelineio@@EAAXAEBUErrorStatus@45@@ZPEAVCloningEncoder@45@AEBU?$_Ph@$00@2@@std@@X@?$_Func_impl_no_alloc@V?$_Binder@U_Unforced@std@@P8Encoder@v1_0@opentimelineio@@EAAXAEBUErrorStatus@45@@ZPEAVCloningEncoder@45@AEBU?$_Ph@$00@2@@std@@XAEBUErrorStatus@v1_0@opentimelineio@@@std@@QEAA@$$QEAV?$_Binder@U_Unforced@std@@P8Encoder@v1_0@opentimelineio@@EAAXAEBUErrorStatus@45@@ZPEAVCloningEncoder@45@AEBU?$_Ph@$00@2@@1@@Z
	??$?0V?$_Binder@U_Unforced@std@@P8Encoder@v1_0@opentimelineio@@EAAXAEBUErrorStatus@45@@ZPEAVCloningEncoder@45@AEBU?$_Ph@$00@2@@std@@X@?$function@$$A6AXAEBUErrorStatus@v1_0@opentimelineio@@@Z@std@@QEAA@V?$_Binder@U_Unforced@std@@P8Encoder@v1_0@opentimelineio@@EAAXAEBUErrorStatus@45@@ZPEAVCloningEncoder@45@AEBU?$_Ph@$00@2@@1@@Z
	??$?0V?$_Binder@U_Unforced@std@@P8JSONDecoder@v1_0@opentimelineio@@EAAXAEBUErrorStatus@45@@ZPEAV345@AEBU?$_Ph@$00@2@@std@@X@?$_Func_impl_no_alloc@V?$_Binder@U_Unforced@std@@P8JSONDecoder@v1_0@opentimelineio@@EAAXAEBUErrorStatus@45@@ZPEAV345@AEBU?$_Ph@$00@2@@std@@XAEBUErrorStatus@v1_0@opentimelineio@@@std@@QEAA@$$QEAV?$_Binder@U_Unforced@std@@P8JSONDecoder@v1_0@opentimelineio@@EAAXAEBUErrorStatus@45@@ZPEAV345@AEBU?$_Ph@$00@2@@1@@Z
	??$?0V?$_Binder@U_Unforced@std@@P8JSONDecoder@v1_0@opentimelineio@@EAAXAEBUErrorStatus@45@@ZPEAV345@AEBU?$_Ph@$00@2@@std@@X@?$function@$$A6AXAEBUErrorStatus@v1_0@opentimelineio@@@Z@std@@QEAA@V?$_Binder@U_Unforced@std@@P8JSONDecoder@v1_0@opentimelineio@@EAAXAEBUErrorStatus@45@@ZPEAV345@AEBU?$_Ph@$00@2@@1@@Z
	??$?0V?$_Tree_const_iterator@V?$_Tree_val@U?$_Tree_simple_types@PEAVComposable@v1_0@opentimelineio@@@std@@@std@@@std@@_N$0A@@?$pair@V?$_Tree_const_iterator@V?$_Tree_val@U?$_Tree_simple_types@PEAVComposable@v1_0@opentimelineio@@@std@@@std@@@std@@_N@std@@QEAA@$$QEAV?$_Tree_const_iterator@V?$_Tree_val@U?$_Tree_simple_types@PEAVComposable@v1_0@opentimelineio@@@std@@@std@@@1@$$QEA_N@Z
	??$?0V?$_Tree_const_iterator@V?$_Tree_val@U?$_Tree_simple_types@PEBVComposition@v1_0@opentimelineio@@@std@@@std@@@std@@_N$0A@@?$pair@V?$_Tree_const_iterator@V?$_Tree_val@U?$_Tree_simple_types@PEBVComposition@v1_0@opentimelineio@@@std@@@std@@@std@@_N@std@@QEAA@$$QEAV?$_Tree_const_iterator@V?$_Tree_val@U?$_Tree_simple_types@PEBVComposition@v1_0@opentimelineio@@@std@@@std@@@1@$$QEA_N@Z
	??$?0V?$_Tree_iterator@V?$_Tree_val@U?$_Tree_simple_types@U?$pair@$$CBHV?$function@$$A6AXPEAVAnyDictionary@v1_0@opentimelineio@@@Z@std@@@std@@@std@@@std@@@std@@_N$0A@@?$pair@V?$_Tree_iterator@V?$_Tree_val@U?$_Tree_simple_types@U?$pair@$$CBHV?$function@$$A6AXPEAVAnyDictionary@v1_0@opentimelineio@@@Z@std@@@std@@@std@@@std@@@std@@_N@std@@QEAA@$$QEAV?$_Tree_iterator@V?$_Tree_val@U?$_Tree_simple_types@U?$pair@$$CBHV?$function@$$A6AXPEAVAnyDictionary@v1_0@opentimelineio@@@Z@std@@@std@@@std@@@std@@@1@$$QEA_N@Z
	??$?0V?$_Tree_iterator@V?$_Tree_val@U?$_Tree_simple_types@U?$pair@$$CBV?$basic_string@DU?$char_traits@D@std@@V?$allocator@D@2@@std@@H@std@@@std@@@std@@@std@@_N$0A@@?$pair@V?$_Tree_iterator@V?$_Tree_val@U?$_Tree_simple_types@U?$pair@$$CBV?$basic_string@DU?$char_traits@D@std@@V?$allocator@D@2@@std@@H@std@@@std@@@std@@@std@@_N@std@@QEAA@$$QEAV?$_Tree_iterator@V?$_Tree_val@U?$_Tree_simple_types@U?$pair@$$CBV?$basic_string@DU?$char_traits@D@std@@V?$allocator@D@2@@std@@H@std@@@std@@@std@@@1@$$QEA_N@Z
	??$?0V?$_Tree_iterator@V?$_Tree_val@U?$_Tree_simple_types@U?$pair@$$CBV?$basic_string@DU?$char_traits@D@std@@V?$allocator@D@2@@std@@PEAVSerializableObject@v1_0@opentimelineio@@@std@@@std@@@std@@@std@@_N$0A@@?$pair@V?$_Tree_iterator@V?$_Tree_val@U?$_Tree_simple_types@U?$pair@$$CBV?$basic_string@DU?$char_traits@D@std@@V?$allocator@D@2@@std@@PEAVSerializableObject@v1_0@opentimelineio@@@std@@@std@@@std@@@std@@_N@std@@QEAA@$$QEAV?$_Tree_iterator@V?$_Tree_val@U?$_Tree_simple_types@U?$pair@$$CBV?$basic_string@DU?$char_traits@D@std@@V?$allocator@D@2@@std@@PEAVSerializableObject@v1_0@opentimelineio@@@std@@@std@@@std@@@1@$$QEA_N@Z
	??$?0V?$_Tree_iterator@V?$_Tree_val@U?$_Tree_simple_types@U?$pair@$$CBV?$basic_string@DU?$char_traits@D@std@@V?$allocator@D@2@@std@@PEAV_TypeRecord@TypeRegistry@v1_0@opentimelineio@@@std@@@std@@@std@@@std@@_N$0A@@?$pair@V?$_Tree_iterator@V?$_Tree_val@U?$_Tree_simple_types@U?$pair@$$CBV?$basic_string@DU?$char_traits@D@std@@V?$allocator@D@2@@std@@PEAV_TypeRecord@TypeRegistry@v1_0@opentimelineio@@@std@@@std@@@std@@@std@@_N@std@@QEAA@$$QEAV?$_Tree_iterator@V?$_Tree_val@U?$_Tree_simple_types@U?$pair@$$CBV?$basic_string@DU?$char_traits@D@std@@V?$allocator@D@2@@std@@PEAV_TypeRecord@TypeRegistry@v1_0@opentimelineio@@@std@@@std@@@std@@@1@$$QEA_N@Z
	??$?0V?$_Tree_iterator@V?$_Tree_val@U?$_Tree_simple_types@U?$pair@$$CBV?$basic_string@DU?$char_traits@D@std@@V?$allocator@D@2@@std@@V?$function@$$A6AXAEBVany@linb@@@Z@2@@std@@@std@@@std@@@std@@_N$0A@@?$pair@V?$_Tree_iterator@V?$_Tree_val@U?$_Tree_simple_types@U?$pair@$$CBV?$basic_string@DU?$char_traits@D@std@@V?$allocator@D@2@@std@@V?$function@$$A6AXAEBVany@linb@@@Z@2@@std@@@std@@@std@@@std@@_N@std@@QEAA@$$QEAV?$_Tree_iterator@V?$_Tree_val@U?$_Tree_simple_types@U?$pair@$$CBV?$basic_string@DU?$char_traits@D@std@@V?$allocator@D@2@@std@@V?$function@$$A6AXAEBVany@linb@@@Z@2@@std@@@std@@@std@@@1@$$QEA_N@Z
	??$?0V?$_Tree_iterator@V?$_Tree_val@U?$_Tree_simple_types@U?$pair@$$CBV?$basic_string@DU?$char_traits@D@std@@V?$allocator@D@2@@std@@Vany@linb@@@std@@@std@@@std@@@std@@_N$0A@@?$pair@V?$_Tree_iterator@V?$_Tree_val@U?$_Tree_simple_types@U?$pair@$$CBV?$basic_string@DU?$char_traits@D@std@@V?$allocator@D@2@@std@@Vany@linb@@@std@@@std@@@std@@@std@@_N@std@@QEAA@$$QEAV?$_Tree_iterator@V?$_Tree_val@U?$_Tree_simple_types@U?$pair@$$CBV?$basic_string@DU?$char_traits@D@std@@V?$allocator@D@2@@std@@Vany@linb@@@std@@@std@@@std@@@1@$$QEA_N@Z
	??$?0V?$_Tree_iterator@V?$_Tree_val@U?$_Tree_simple_types@U?$pair@QEAVComposable@v1_0@opentimelineio@@VTimeRange@2opentime@@@std@@@std@@@std@@@std@@_N$0A@@?$pair@V?$_Tree_iterator@V?$_Tree_val@U?$_Tree_simple_types@U?$pair@QEAVComposable@v1_0@opentimelineio@@VTimeRange@2opentime@@@std@@@std@@@std@@@std@@_N@std@@QEAA@$$QEAV?$_Tree_iterator@V?$_Tree_val@U?$_Tree_simple_types@U?$pair@QEAVComposable@v1_0@opentimelineio@@VTimeRange@2opentime@@@std@@@std@@@std@@@1@$$QEA_N@Z
	??$?0V?$_Tree_iterator@V?$_Tree_val@U?$_Tree_simple_types@U?$pair@QEAVSerializableObject@v1_0@opentimelineio@@H@std@@@std@@@std@@@std@@_N$0A@@?$pair@V?$_Tree_iterator@V?$_Tree_val@U?$_Tree_simple_types@U?$pair@QEAVSerializableObject@v1_0@opentimelineio@@H@std@@@std@@@std@@@std@@_N@std@@QEAA@$$QEAV?$_Tree_iterator@V?$_Tree_val@U?$_Tree_simple_types@U?$pair@QEAVSerializableObject@v1_0@opentimelineio@@H@std@@@std@@@std@@@1@$$QEA_N@Z
	??$?0V?$_Tree_iterator@V?$_Tree_val@U?$_Tree_simple_types@U?$pair@QEAVSerializableObject@v1_0@opentimelineio@@VAnyDictionary@23@@std@@@std@@@std@@@std@@_N$0A@@?$pair@V?$_Tree_iterator@V?$_Tree_val@U?$_Tree_simple_types@U?$pair@QEAVSerializableObject@v1_0@opentimelineio@@VAnyDictionary@23@@std@@@std@@@std@@@std@@_N@std@@QEAA@$$QEAV?$_Tree_iterator@V?$_Tree_val@U?$_Tree_simple_types@U?$pair@QEAVSerializableObject@v1_0@opentimelineio@@VAnyDictionary@23@@std@@@std@@@std@@@1@$$QEA_N@Z
	??$?0V?$_Tree_iterator@V?$_Tree_val@U?$_Tree_simple_types@U?$pair@QEAVTrack@v1_0@opentimelineio@@V?$map@PEAVComposable@v1_0@opentimelineio@@VTimeRange@2opentime@@U?$less@PEAVComposable@v1_0@opentimelineio@@@std@@V?$allocator@U?$pair@QEAVComposable@v1_0@opentimelineio@@VTimeRange@2opentime@@@std@@@7@@std@@@std@@@std@@@std@@@std@@_N$0A@@?$pair@V?$_Tree_iterator@V?$_Tree_val@U?$_Tree_simple_types@U?$pair@QEAVTrack@v1_0@opentimelineio@@V?$map@PEAVComposable@v1_0@opentimelineio@@VTimeRange@2opentime@@U?$less@PEAVComposable@v1_0@opentimelineio@@@std@@V?$allocator@U?$pair@QEAVComposable@v1_0@opentimelineio@@VTimeRange@2opentime@@@std@@@7@@std@@@std@@@std@@@std@@@std@@_N@std@@QEAA@$$QEAV?$_Tree_iterator@V?$_Tree_val@U?$_Tree_simple_types@U?$pair@QEAVTrack@v1_0@opentimelineio@@V?$map@PEAVComposable@v1_0@opentimelineio@@VTimeRange@2opentime@@U?$less@PEAVComposable@v1_0@opentimelineio@@@std@@V?$allocator@U?$pair@QEAVComposable@v1_0@opentimelineio@@VTimeRange@2opentime@@@std@@@7@@std@@@std@@@std@@@std@@@1@$$QEA_N@Z
	??$?0V?$_Tree_iterator@V?$_Tree_val@U?$_Tree_simple_types@U?$pair@QEBVSerializableObject@v1_0@opentimelineio@@V?$basic_string@DU?$char_traits@D@std@@V?$allocator@D@2@@std@@@std@@@std@@@std@@@std@@_N$0A@@?$pair@V?$_Tree_iterator@V?$_Tree_val@U?$_Tree_simple_types@U?$pair@QEBVSerializableObject@v1_0@opentimelineio@@V?$basic_string@DU?$char_traits@D@std@@V?$allocator@D@2@@std@@@std@@@std@@@std@@@std@@_N@std@@QEAA@$$QEAV?$_Tree_iterator@V?$_Tree_val@U?$_Tree_simple_types@U?$pair@QEBVSerializableObject@v1_0@opentimelineio@@V?$basic_string@DU?$char_traits@D@std@@V?$allocator@D@2@@std@@@std@@@std@@@std@@@1@$$QEA_N@Z
	??$?0V?$_Tree_iterator@V?$_Tree_val@U?$_Tree_simple_types@U?$pair@QEBVtype_info@@V?$function@$$A6AXAEBVany@linb@@@Z@std@@@std@@@std@@@std@@@std@@_N$0A@@?$pair@V?$_Tree_iterator@V?$_Tree_val@U?$_Tree_simple_types@U?$pair@QEBVtype_info@@V?$function@$$A6AXAEBVany@linb@@@Z@std@@@std@@@std@@@std@@@std@@_N@std@@QEAA@$$QEAV?$_Tree_iterator@V?$_Tree_val@U?$_Tree_simple_types@U?$pair@QEBVtype_info@@V?$function@$$A6AXAEBVany@linb@@@Z@std@@@std@@@std@@@std@@@1@$$QEA_N@Z
	??$?0V?$_Tree_iterator@V?$_Tree_val@U?$_Tree_simple_types@U?$pair@QEBVtype_info@@V?$function@$$A6A_NAEBVany@linb@@0@Z@std@@@std@@@std@@@std@@@std@@_N$0A@@?$pair@V?$_Tree_iterator@V?$_Tree_val@U?$_Tree_simple_types@U?$pair@QEBVtype_info@@V?$function@$$A6A_NAEBVany@linb@@0@Z@std@@@std@@@std@@@std@@@std@@_N@std@@QEAA@$$QEAV?$_Tree_iterator@V?$_Tree_val@U?$_Tree_simple_types@U?$pair@QEBVtype_info@@V?$function@$$A6A_NAEBVany@linb@@0@Z@std@@@std@@@std@@@std@@@1@$$QEA_N@Z
	??$?0V?$_Vector_const_iterator@V?$_Vector_val@U?$_Simple_types@PEAVComposable@v1_0@opentimelineio@@@std@@@std@@@std@@@?$set@PEAVComposable@v1_0@opentimelineio@@U?$less@PEAVComposable@v1_0@opentimelineio@@@std@@V?$allocator@PEAVComposable@v1_0@opentimelineio@@@5@@std@@QEAA@V?$_Vector_const_iterator@V?$_Vector_val@U?$_Simple_types@PEAVComposable@v1_0@opentimelineio@@@std@@@std@@@1@0@Z
	??$?0V?$_Vector_const_iterator@V?$_Vector_val@U?$_Simple_types@PEAVComposable@v1_0@opentimelineio@@@std@@@std@@@std@@X@?$vector@U?$Retainer@VComposable@v1_0@opentimelineio@@@SerializableObject@v1_0@opentimelineio@@V?$allocator@U?$Retainer@VComposable@v1_0@opentimelineio@@@SerializableObject@v1_0@opentimelineio@@@std@@@std@@QEAA@V?$_Vector_const_iterator@V?$_Vector_val@U?$_Simple_types@PEAVComposable@v1_0@opentimelineio@@@std@@@std@@@1@0AEBV?$allocator@U?$Retainer@VComposable@v1_0@opentimelineio@@@SerializableObject@v1_0@opentimelineio@@@1@@Z
	??$?0V?$_Vector_const_iterator@V?$_Vector_val@U?$_Simple_types@PEAVEffect@v1_0@opentimelineio@@@std@@@std@@@std@@X@?$vector@U?$Retainer@VEffect@v1_0@opentimelineio@@@SerializableObject@v1_0@opentimelineio@@V?$allocator@U?$Retainer@VEffect@v1_0@opentimelineio@@@SerializableObject@v1_0@opentimelineio@@@std@@@std@@QEAA@V?$_Vector_const_iterator@V?$_Vector_val@U?$_Simple_types@PEAVEffect@v1_0@opentimelineio@@@std@@@std@@@1@0AEBV?$allocator@U?$Retainer@VEffect@v1_0@opentimelineio@@@SerializableObject@v1_0@opentimelineio@@@1@@Z
	??$?0V?$_Vector_const_iterator@V?$_Vector_val@U?$_Simple_types@PEAVMarker@v1_0@opentimelineio@@@std@@@std@@@std@@X@?$vector@U?$Retainer@VMarker@v1_0@opentimelineio@@@SerializableObject@v1_0@opentimelineio@@V?$allocator@U?$Retainer@VMarker@v1_0@opentimelineio@@@SerializableObject@v1_0@opentimelineio@@@std@@@std@@QEAA@V?$_Vector_const_iterator@V?$_Vector_val@U?$_Simple_types@PEAVMarker@v1_0@opentimelineio@@@std@@@std@@@1@0AEBV?$allocator@U?$Retainer@VMarker@v1_0@opentimelineio@@@SerializableObject@v1_0@opentimelineio@@@1@@Z
	??$?0V?$_Vector_const_iterator@V?$_Vector_val@U?$_Simple_types@PEAVSerializableObject@v1_0@opentimelineio@@@std@@@std@@@std@@X@?$vector@U?$Retainer@VSerializableObject@v1_0@opentimelineio@@@SerializableObject@v1_0@opentimelineio@@V?$allocator@U?$Retainer@VSerializableObject@v1_0@opentimelineio@@@SerializableObject@v1_0@opentimelineio@@@std@@@std@@QEAA@V?$_Vector_const_iterator@V?$_Vector_val@U?$_Simple_types@PEAVSerializableObject@v1_0@opentimelineio@@@std@@@std@@@1@0AEBV?$allocator@U?$Retainer@VSerializableObject@v1_0@opentimelineio@@@SerializableObject@v1_0@opentimelineio@@@1@@Z
	??$?0V?$_Vector_const_iterator@V?$_Vector_val@U?$_Simple_types@U?$Retainer@VComposable@v1_0@opentimelineio@@@SerializableObject@v1_0@opentimelineio@@@std@@@std@@@std@@X@?$vector@PEAVComposable@v1_0@opentimelineio@@V?$allocator@PEAVComposable@v1_0@opentimelineio@@@std@@@std@@QEAA@V?$_Vector_const_iterator@V?$_Vector_val@U?$_Simple_types@U?$Retainer@VComposable@v1_0@opentimelineio@@@SerializableObject@v1_0@opentimelineio@@@std@@@std@@@1@0AEBV?$allocator@PEAVComposable@v1_0@opentimelineio@@@1@@Z
	??$?0V?$_Vector_iterator@V?$_Vector_val@U?$_Simple_types@PEAVSerializableObject@v1_0@opentimelineio@@@std@@@std@@@std@@X@?$vector@U?$Retainer@VSerializableObject@v1_0@opentimelineio@@@SerializableObject@v1_0@opentimelineio@@V?$allocator@U?$Retainer@VSerializableObject@v1_0@opentimelineio@@@SerializableObject@v1_0@opentimelineio@@@std@@@std@@QEAA@V?$_Vector_iterator@V?$_Vector_val@U?$_Simple_types@PEAVSerializableObject@v1_0@opentimelineio@@@std@@@std@@@1@0AEBV?$allocator@U?$Retainer@VSerializableObject@v1_0@opentimelineio@@@SerializableObject@v1_0@opentimelineio@@@1@@Z
	??$?0V?$allocator@D@std@@$$V@?$_Compressed_pair@V?$allocator@D@std@@V?$_String_val@U?$_Simple_types@D@std@@@2@$00@std@@QEAA@U_One_then_variadic_args_t@1@$$QEAV?$allocator@D@1@@Z
	??$?0V?$allocator@D@std@@X@?$_String_alloc@U?$_String_base_types@DV?$allocator@D@std@@@std@@@std@@QEAA@$$QEAV?$allocator@D@1@@Z
	??$?0V?$allocator@PEAVComposable@v1_0@opentimelineio@@@std@@$$V@?$_Compressed_pair@V?$allocator@PEAVComposable@v1_0@opentimelineio@@@std@@V?$_Vector_val@U?$_Simple_types@PEAVComposable@v1_0@opentimelineio@@@std@@@2@$00@std@@QEAA@U_One_then_variadic_args_t@1@$$QEAV?$allocator@PEAVComposable@v1_0@opentimelineio@@@1@@Z
	??$?0V?$allocator@PEAVComposable@v1_0@opentimelineio@@@std@@X@?$_Vector_alloc@U?$_Vec_base_types@PEAVComposable@v1_0@opentimelineio@@V?$allocator@PEAVComposable@v1_0@opentimelineio@@@std@@@std@@@std@@QEAA@$$QEAV?$allocator@PEAVComposable@v1_0@opentimelineio@@@1@@Z
	??$?0V?$allocator@PEAVComposition@v1_0@opentimelineio@@@std@@$$V@?$_Compressed_pair@V?$allocator@PEAVComposition@v1_0@opentimelineio@@@std@@V?$_Vector_val@U?$_Simple_types@PEAVComposition@v1_0@opentimelineio@@@std@@@2@$00@std@@QEAA@U_One_then_variadic_args_t@1@$$QEAV?$allocator@PEAVComposition@v1_0@opentimelineio@@@1@@Z
	??$?0V?$allocator@PEAVComposition@v1_0@opentimelineio@@@std@@X@?$_Vector_alloc@U?$_Vec_base_types@PEAVComposition@v1_0@opentimelineio@@V?$allocator@PEAVComposition@v1_0@opentimelineio@@@std@@@std@@@std@@QEAA@$$QEAV?$allocator@PEAVComposition@v1_0@opentimelineio@@@1@@Z
	??$?0V?$allocator@PEAVTrack@v1_0@opentimelineio@@@std@@$$V@?$_Compressed_pair@V?$allocator@PEAVTrack@v1_0@opentimelineio@@@std@@V?$_Vector_val@U?$_Simple_types@PEAVTrack@v1_0@opentimelineio@@@std@@@2@$00@std@@QEAA@U_One_then_variadic_args_t@1@$$QEAV?$allocator@PEAVTrack@v1_0@opentimelineio@@@1@@Z
	??$?0V?$allocator@PEAVTrack@v1_0@opentimelineio@@@std@@X@?$_Vector_alloc@U?$_Vec_base_types@PEAVTrack@v1_0@opentimelineio@@V?$allocator@PEAVTrack@v1_0@opentimelineio@@@std@@@std@@@std@@QEAA@$$QEAV?$allocator@PEAVTrack@v1_0@opentimelineio@@@1@@Z
	??$?0V?$allocator@U?$Retainer@VComposable@v1_0@opentimelineio@@@SerializableObject@v1_0@opentimelineio@@@std@@$$V@?$_Compressed_pair@V?$allocator@U?$Retainer@VComposable@v1_0@opentimelineio@@@SerializableObject@v1_0@opentimelineio@@@std@@V?$_Vector_val@U?$_Simple_types@U?$Retainer@VComposable@v1_0@opentimelineio@@@SerializableObject@v1_0@opentimelineio@@@std@@@2@$00@std@@QEAA@U_One_then_variadic_args_t@1@$$QEAV?$allocator@U?$Retainer@VComposable@v1_0@opentimelineio@@@SerializableObject@v1_0@opentimelineio@@@1@@Z
	??$?0V?$allocator@U?$Retainer@VComposable@v1_0@opentimelineio@@@SerializableObject@v1_0@opentimelineio@@@std@@X@?$_Vector_alloc@U?$_Vec_base_types@U?$Retainer@VComposable@v1_0@opentimelineio@@@SerializableObject@v1_0@opentimelineio@@V?$allocator@U?$Retainer@VComposable@v1_0@opentimelineio@@@SerializableObject@v1_0@opentimelineio@@@std@@@std@@@std@@QEAA@$$QEAV?$allocator@U?$Retainer@VComposable@v1_0@opentimelineio@@@SerializableObject@v1_0@opentimelineio@@@1@@Z
	??$?0V?$allocator@U?$_Tree_node@U?$pair@$$CBV?$basic_string@DU?$char_traits@D@std@@V?$allocator@D@2@@std@@Vany@linb@@@std@@PEAX@std@@@std@@$$V@?$_Compressed_pair@V?$allocator@U?$_Tree_node@U?$pair@$$CBV?$basic_string@DU?$char_traits@D@std@@V?$allocator@D@2@@std@@Vany@linb@@@std@@PEAX@std@@@std@@V?$_Tree_val@U?$_Tree_simple_types@U?$pair@$$CBV?$basic_string@DU?$char_traits@D@std@@V?$allocator@D@2@@std@@Vany@linb@@@std@@@std@@@2@$00@std@@QEAA@U_One_then_variadic_args_t@1@$$QEAV?$allocator@U?$_Tree_node@U?$pair@$$CBV?$basic_string@DU?$char_traits@D@std@@V?$allocator@D@2@@std@@Vany@linb@@@std@@PEAX@std@@@1@@Z
	??$?0V?$allocator@U?$_Tree_node@U?$pair@$$CBV?$basic_string@DU?$char_traits@D@std@@V?$allocator@D@2@@std@@Vany@linb@@@std@@PEAX@std@@@std@@@?$_Tree@V?$_Tmap_traits@V?$basic_string@DU?$char_traits@D@std@@V?$allocator@D@2@@std@@Vany@linb@@U?$less@V?$basic_string@DU?$char_traits@D@std@@V?$allocator@D@2@@std@@@2@V?$allocator@U?$pair@$$CBV?$basic_string@DU?$char_traits@D@std@@V?$allocator@D@2@@std@@Vany@linb@@@std@@@2@$0A@@std@@@std@@QEAA@AEBV01@$$QEAV?$allocator@U?$_Tree_node@U?$pair@$$CBV?$basic_string@DU?$char_traits@D@std@@V?$allocator@D@2@@std@@Vany@linb@@@std@@PEAX@std@@@1@@Z
	??$?0V?$allocator@U?$_Tree_node@U?$pair@$$CBV?$basic_string@DU?$char_traits@D@std@@V?$allocator@D@2@@std@@Vany@linb@@@std@@PEAX@std@@@std@@X@?$_Tree_comp_alloc@V?$_Tmap_traits@V?$basic_string@DU?$char_traits@D@std@@V?$allocator@D@2@@std@@Vany@linb@@U?$less@V?$basic_string@DU?$char_traits@D@std@@V?$allocator@D@2@@std@@@2@V?$allocator@U?$pair@$$CBV?$basic_string@DU?$char_traits@D@std@@V?$allocator@D@2@@std@@Vany@linb@@@std@@@2@$0A@@std@@@std@@QEAA@AEBU?$less@V?$basic_string@DU?$char_traits@D@std@@V?$allocator@D@2@@std@@@1@$$QEAV?$allocator@U?$_Tree_node@U?$pair@$$CBV?$basic_string@DU?$char_traits@D@std@@V?$allocator@D@2@@std@@Vany@linb@@@std@@PEAX@std@@@1@@Z
	??$?0V?$allocator@U?$_Tree_node@U?$pair@QEAVComposable@v1_0@opentimelineio@@VTimeRange@2opentime@@@std@@PEAX@std@@@std@@$$V@?$_Compressed_pair@V?$allocator@U?$_Tree_node@U?$pair@QEAVComposable@v1_0@opentimelineio@@VTimeRange@2opentime@@@std@@PEAX@std@@@std@@V?$_Tree_val@U?$_Tree_simple_types@U?$pair@QEAVComposable@v1_0@opentimelineio@@VTimeRange@2opentime@@@std@@@std@@@2@$00@std@@QEAA@U_One_then_variadic_args_t@1@$$QEAV?$allocator@U?$_Tree_node@U?$pair@QEAVComposable@v1_0@opentimelineio@@VTimeRange@2opentime@@@std@@PEAX@std@@@1@@Z
	??$?0V?$allocator@U?$_Tree_node@U?$pair@QEAVComposable@v1_0@opentimelineio@@VTimeRange@2opentime@@@std@@PEAX@std@@@std@@X@?$_Tree_comp_alloc@V?$_Tmap_traits@PEAVComposable@v1_0@opentimelineio@@VTimeRange@2opentime@@U?$less@PEAVComposable@v1_0@opentimelineio@@@std@@V?$allocator@U?$pair@QEAVComposable@v1_0@opentimelineio@@VTimeRange@2opentime@@@std@@@7@$0A@@std@@@std@@QEAA@AEBU?$less@PEAVComposable@v1_0@opentimelineio@@@1@$$QEAV?$allocator@U?$_Tree_node@U?$pair@QEAVComposable@v1_0@opentimelineio@@VTimeRange@2opentime@@@std@@PEAX@std@@@1@@Z
	??$?0V?$allocator@Vany@linb@@@std@@$$V@?$_Compressed_pair@V?$allocator@Vany@linb@@@std@@V?$_Vector_val@U?$_Simple_types@Vany@linb@@@std@@@2@$00@std@@QEAA@U_One_then_variadic_args_t@1@$$QEAV?$allocator@Vany@linb@@@1@@Z
	??$?0V?$allocator@Vany@linb@@@std@@X@?$_Vector_alloc@U?$_Vec_base_types@Vany@linb@@V?$allocator@Vany@linb@@@std@@@std@@@std@@QEAA@$$QEAV?$allocator@Vany@linb@@@1@@Z
	??$?0V?$basic_string@DU?$char_traits@D@std@@V?$allocator@D@2@@std@@$$V$0A@@?$tuple@$$QEAV?$basic_string@DU?$char_traits@D@std@@V?$allocator@D@2@@std@@@std@@QEAA@$$QEAV?$basic_string@DU?$char_traits@D@std@@V?$allocator@D@2@@1@@Z
	??$?0V?$basic_string@DU?$char_traits@D@std@@V?$allocator@D@2@@std@@@?$_Tuple_val@$$QEAV?$basic_string@DU?$char_traits@D@std@@V?$allocator@D@2@@std@@@std@@QEAA@$$QEAV?$basic_string@DU?$char_traits@D@std@@V?$allocator@D@2@@1@@Z
	??$?0V?$basic_string@DU?$char_traits@D@std@@V?$allocator@D@2@@std@@X@any@linb@@QEAA@$$QEAV?$basic_string@DU?$char_traits@D@std@@V?$allocator@D@2@@std@@@Z
	??$?0V?$optional@VRationalTime@v1_0@opentime@@@optional_lite@nonstd@@V012@$0A@@?$pair@V?$optional@VRationalTime@v1_0@opentime@@@optional_lite@nonstd@@V123@@std@@QEAA@$$QEAV?$optional@VRationalTime@v1_0@opentime@@@optional_lite@nonstd@@0@Z
	??$?0V?$tuple@$$QEAPEAVComposable@v1_0@opentimelineio@@@std@@V?$tuple@$$V@1@$0A@$$Z$S@?$pair@QEAVComposable@v1_0@opentimelineio@@VTimeRange@2opentime@@@std@@QEAA@AEAV?$tuple@$$QEAPEAVComposable@v1_0@opentimelineio@@@1@AEAV?$tuple@$$V@1@U?$integer_sequence@_K$0A@@1@U?$integer_sequence@_K$S@1@@Z
	??$?0V?$tuple@$$QEAPEBVtype_info@@@std@@V?$tuple@$$V@1@$0A@$$Z$S@?$pair@QEBVtype_info@@V?$function@$$A6AXAEBVany@linb@@@Z@std@@@std@@QEAA@AEAV?$tuple@$$QEAPEBVtype_info@@@1@AEAV?$tuple@$$V@1@U?$integer_sequence@_K$0A@@1@U?$integer_sequence@_K$S@1@@Z
	??$?0V?$tuple@$$QEAPEBVtype_info@@@std@@V?$tuple@$$V@1@$0A@$$Z$S@?$pair@QEBVtype_info@@V?$function@$$A6A_NAEBVany@linb@@0@Z@std@@@std@@QEAA@AEAV?$tuple@$$QEAPEBVtype_info@@@1@AEAV?$tuple@$$V@1@U?$integer_sequence@_K$0A@@1@U?$integer_sequence@_K$S@1@@Z
	??$?0V?$tuple@$$QEAV?$basic_string@DU?$char_traits@D@std@@V?$allocator@D@2@@std@@@std@@V?$tuple@$$V@1@$0A@$$Z$S@?$pair@$$CBV?$basic_string@DU?$char_traits@D@std@@V?$allocator@D@2@@std@@PEAV_TypeRecord@TypeRegistry@v1_0@opentimelineio@@@std@@QEAA@AEAV?$tuple@$$QEAV?$basic_string@DU?$char_traits@D@std@@V?$allocator@D@2@@std@@@1@AEAV?$tuple@$$V@1@U?$integer_sequence@_K$0A@@1@U?$integer_sequence@_K$S@1@@Z
	??$?0V?$tuple@$$QEAV?$basic_string@DU?$char_traits@D@std@@V?$allocator@D@2@@std@@@std@@V?$tuple@$$V@1@$0A@$$Z$S@?$pair@$$CBV?$basic_string@DU?$char_traits@D@std@@V?$allocator@D@2@@std@@V?$function@$$A6AXAEBVany@linb@@@Z@2@@std@@QEAA@AEAV?$tuple@$$QEAV?$basic_string@DU?$char_traits@D@std@@V?$allocator@D@2@@std@@@1@AEAV?$tuple@$$V@1@U?$integer_sequence@_K$0A@@1@U?$integer_sequence@_K$S@1@@Z
	??$?0V?$tuple@$$QEAV?$basic_string@DU?$char_traits@D@std@@V?$allocator@D@2@@std@@@std@@V?$tuple@$$V@1@$0A@$$Z$S@?$pair@$$CBV?$basic_string@DU?$char_traits@D@std@@V?$allocator@D@2@@std@@Vany@linb@@@std@@QEAA@AEAV?$tuple@$$QEAV?$basic_string@DU?$char_traits@D@std@@V?$allocator@D@2@@std@@@1@AEAV?$tuple@$$V@1@U?$integer_sequence@_K$0A@@1@U?$integer_sequence@_K$S@1@@Z
	??$?0V?$tuple@AEBH@std@@V?$tuple@$$V@1@$0A@$$Z$S@?$pair@$$CBHV?$function@$$A6AXPEAVAnyDictionary@v1_0@opentimelineio@@@Z@std@@@std@@QEAA@AEAV?$tuple@AEBH@1@AEAV?$tuple@$$V@1@U?$integer_sequence@_K$0A@@1@U?$integer_sequence@_K$S@1@@Z
	??$?0V?$tuple@AEBQEAVComposable@v1_0@opentimelineio@@@std@@V?$tuple@$$V@1@$0A@$$Z$S@?$pair@QEAVComposable@v1_0@opentimelineio@@VTimeRange@2opentime@@@std@@QEAA@AEAV?$tuple@AEBQEAVComposable@v1_0@opentimelineio@@@1@AEAV?$tuple@$$V@1@U?$integer_sequence@_K$0A@@1@U?$integer_sequence@_K$S@1@@Z
	??$?0V?$tuple@AEBQEAVSerializableObject@v1_0@opentimelineio@@@std@@V?$tuple@$$V@1@$0A@$$Z$S@?$pair@QEAVSerializableObject@v1_0@opentimelineio@@H@std@@QEAA@AEAV?$tuple@AEBQEAVSerializableObject@v1_0@opentimelineio@@@1@AEAV?$tuple@$$V@1@U?$integer_sequence@_K$0A@@1@U?$integer_sequence@_K$S@1@@Z
	??$?0V?$tuple@AEBQEBVSerializableObject@v1_0@opentimelineio@@@std@@V?$tuple@$$V@1@$0A@$$Z$S@?$pair@QEBVSerializableObject@v1_0@opentimelineio@@V?$basic_string@DU?$char_traits@D@std@@V?$allocator@D@2@@std@@@std@@QEAA@AEAV?$tuple@AEBQEBVSerializableObject@v1_0@opentimelineio@@@1@AEAV?$tuple@$$V@1@U?$integer_sequence@_K$0A@@1@U?$integer_sequence@_K$S@1@@Z
	??$?0V?$tuple@AEBV?$basic_string@DU?$char_traits@D@std@@V?$allocator@D@2@@std@@@std@@V?$tuple@$$V@1@$0A@$$Z$S@?$pair@$$CBV?$basic_string@DU?$char_traits@D@std@@V?$allocator@D@2@@std@@H@std@@QEAA@AEAV?$tuple@AEBV?$basic_string@DU?$char_traits@D@std@@V?$allocator@D@2@@std@@@1@AEAV?$tuple@$$V@1@U?$integer_sequence@_K$0A@@1@U?$integer_sequence@_K$S@1@@Z
	??$?0V?$tuple@AEBV?$basic_string@DU?$char_traits@D@std@@V?$allocator@D@2@@std@@@std@@V?$tuple@$$V@1@$0A@$$Z$S@?$pair@$$CBV?$basic_string@DU?$char_traits@D@std@@V?$allocator@D@2@@std@@PEAVSerializableObject@v1_0@opentimelineio@@@std@@QEAA@AEAV?$tuple@AEBV?$basic_string@DU?$char_traits@D@std@@V?$allocator@D@2@@std@@@1@AEAV?$tuple@$$V@1@U?$integer_sequence@_K$0A@@1@U?$integer_sequence@_K$S@1@@Z
	??$?0V?$tuple@AEBV?$basic_string@DU?$char_traits@D@std@@V?$allocator@D@2@@std@@@std@@V?$tuple@$$V@1@$0A@$$Z$S@?$pair@$$CBV?$basic_string@DU?$char_traits@D@std@@V?$allocator@D@2@@std@@PEAV_TypeRecord@TypeRegistry@v1_0@opentimelineio@@@std@@QEAA@AEAV?$tuple@AEBV?$basic_string@DU?$char_traits@D@std@@V?$allocator@D@2@@std@@@1@AEAV?$tuple@$$V@1@U?$integer_sequence@_K$0A@@1@U?$integer_sequence@_K$S@1@@Z
	??$?0VAnyDictionary@v1_0@opentimelineio@@X@any@linb@@QEAA@$$QEAVAnyDictionary@v1_0@opentimelineio@@@Z
	??$?0VAnyVector@v1_0@opentimelineio@@X@any@linb@@QEAA@$$QEAVAnyVector@v1_0@opentimelineio@@@Z
	??$?0VRationalTime@v1_0@opentime@@X@any@linb@@QEAA@$$QEAVRationalTime@v1_0@opentime@@@Z
	??$?0VTimeRange@v1_0@opentime@@@?$optional@VTimeRange@v1_0@opentime@@@optional_lite@nonstd@@QEAA@$$QEAVTimeRange@v1_0@opentime@@PEAX@Z
	??$?0VTimeRange@v1_0@opentime@@X@any@linb@@QEAA@$$QEAVTimeRange@v1_0@opentime@@@Z
	??$?0VTimeTransform@v1_0@opentime@@X@any@linb@@QEAA@$$QEAVTimeTransform@v1_0@opentime@@@Z
	??$?0_JX@any@linb@@QEAA@$$QEA_J@Z
	??$?4AEAVTimeRange@v1_0@opentime@@@?$optional@VTimeRange@v1_0@opentime@@@optional_lite@nonstd@@QEAAAEAV012@AEAVTimeRange@v1_0@opentime@@@Z
	??$?4P6A_NAEBVany@linb@@0@ZX@?$function@$$A6A_NAEBVany@linb@@0@Z@std@@QEAAAEAV01@$$QEAP6A_NAEBVany@linb@@0@Z@Z
	??$?4V?$_Binder@U_Unforced@std@@P8Encoder@v1_0@opentimelineio@@EAAXAEBUErrorStatus@45@@ZPEAVCloningEncoder@45@AEBU?$_Ph@$00@2@@std@@X@?$function@$$A6AXAEBUErrorStatus@v1_0@opentimelineio@@@Z@std@@QEAAAEAV01@$$QEAV?$_Binder@U_Unforced@std@@P8Encoder@v1_0@opentimelineio@@EAAXAEBUErrorStatus@45@@ZPEAVCloningEncoder@45@AEBU?$_Ph@$00@2@@1@@Z
	??$?4V?$_Binder@U_Unforced@std@@P8JSONDecoder@v1_0@opentimelineio@@EAAXAEBUErrorStatus@45@@ZPEAV345@AEBU?$_Ph@$00@2@@std@@X@?$function@$$A6AXAEBUErrorStatus@v1_0@opentimelineio@@@Z@std@@QEAAAEAV01@$$QEAV?$_Binder@U_Unforced@std@@P8JSONDecoder@v1_0@opentimelineio@@EAAXAEBUErrorStatus@45@@ZPEAV345@AEBU?$_Ph@$00@2@@1@@Z
	??$?4VRationalTime@v1_0@opentime@@@?$optional@VRationalTime@v1_0@opentime@@@optional_lite@nonstd@@QEAAAEAV012@$$QEAVRationalTime@v1_0@opentime@@@Z
	??$?4VTimeRange@v1_0@opentime@@@?$optional@VTimeRange@v1_0@opentime@@@optional_lite@nonstd@@QEAAAEAV012@$$QEAVTimeRange@v1_0@opentime@@@Z
	??$?8DU?$char_traits@D@std@@V?$allocator@D@1@@std@@YA_NAEBV?$basic_string@DU?$char_traits@D@std@@V?$allocator@D@2@@0@0@Z
	??$?8DU?$char_traits@D@std@@V?$allocator@D@1@@std@@YA_NAEBV?$basic_string@DU?$char_traits@D@std@@V?$allocator@D@2@@0@QEBD@Z
	??$?9DU?$char_traits@D@std@@V?$allocator@D@1@@std@@YA_NAEBV?$basic_string@DU?$char_traits@D@std@@V?$allocator@D@2@@0@0@Z
	??$?9U?$_Tree_node@PEAVComposable@v1_0@opentimelineio@@PEAX@std@@U01@@std@@YA_NAEBV?$allocator@U?$_Tree_node@PEAVComposable@v1_0@opentimelineio@@PEAX@std@@@0@0@Z
	??$?HDU?$char_traits@D@std@@V?$allocator@D@1@@std@@YA?AV?$basic_string@DU?$char_traits@D@std@@V?$allocator@D@2@@0@$$QEAV10@0@Z
	??$?HDU?$char_traits@D@std@@V?$allocator@D@1@@std@@YA?AV?$basic_string@DU?$char_traits@D@std@@V?$allocator@D@2@@0@$$QEAV10@AEBV10@@Z
	??$?HDU?$char_traits@D@std@@V?$allocator@D@1@@std@@YA?AV?$basic_string@DU?$char_traits@D@std@@V?$allocator@D@2@@0@$$QEAV10@QEBD@Z
	??$?HDU?$char_traits@D@std@@V?$allocator@D@1@@std@@YA?AV?$basic_string@DU?$char_traits@D@std@@V?$allocator@D@2@@0@AEBV10@0@Z
	??$?HDU?$char_traits@D@std@@V?$allocator@D@1@@std@@YA?AV?$basic_string@DU?$char_traits@D@std@@V?$allocator@D@2@@0@AEBV10@QEBD@Z
	??$?HDU?$char_traits@D@std@@V?$allocator@D@1@@std@@YA?AV?$basic_string@DU?$char_traits@D@std@@V?$allocator@D@2@@0@QEBDAEBV10@@Z
	??$?MDU?$char_traits@D@std@@V?$allocator@D@1@@std@@YA_NAEBV?$basic_string@DU?$char_traits@D@std@@V?$allocator@D@2@@0@0@Z
	??$?R$$V@?$_Binder@U_Unforced@std@@P8?$CursorStreamWrapper@U?$GenericStringStream@U?$UTF8@D@OTIO_rapidjson@@@OTIO_rapidjson@@U?$UTF8@D@2@@OTIO_rapidjson@@EBA_KXZPEAV34@@std@@QEAA_KXZ
	??$?R$$V@?$_Binder@U_Unforced@std@@P8?$CursorStreamWrapper@VFileReadStream@OTIO_rapidjson@@U?$UTF8@D@2@@OTIO_rapidjson@@EBA_KXZPEAV34@@std@@QEAA_KXZ
	??$?RAEBUErrorStatus@v1_0@opentimelineio@@@?$_Binder@U_Unforced@std@@P8Encoder@v1_0@opentimelineio@@EAAXAEBUErrorStatus@45@@ZPEAVCloningEncoder@45@AEBU?$_Ph@$00@2@@std@@QEAAXAEBUErrorStatus@v1_0@opentimelineio@@@Z
	??$?RAEBUErrorStatus@v1_0@opentimelineio@@@?$_Binder@U_Unforced@std@@P8JSONDecoder@v1_0@opentimelineio@@EAAXAEBUErrorStatus@45@@ZPEAV345@AEBU?$_Ph@$00@2@@std@@QEAAXAEBUErrorStatus@v1_0@opentimelineio@@@Z
	??$?RD$0A@@?$default_delete@$$BY0A@D@std@@QEBAXPEAD@Z
	??$Bottom@D@?$Stack@VCrtAllocator@OTIO_rapidjson@@@internal@OTIO_rapidjson@@QEAAPEADXZ
	??$Consume@V?$CursorStreamWrapper@U?$GenericStringStream@U?$UTF8@D@OTIO_rapidjson@@@OTIO_rapidjson@@U?$UTF8@D@2@@OTIO_rapidjson@@@?$GenericReader@U?$UTF8@D@OTIO_rapidjson@@U12@VCrtAllocator@2@@OTIO_rapidjson@@CA_NAEAV?$CursorStreamWrapper@U?$GenericStringStream@U?$UTF8@D@OTIO_rapidjson@@@OTIO_rapidjson@@U?$UTF8@D@2@@1@D@Z
	??$Consume@V?$CursorStreamWrapper@VFileReadStream@OTIO_rapidjson@@U?$UTF8@D@2@@OTIO_rapidjson@@@?$GenericReader@U?$UTF8@D@OTIO_rapidjson@@U12@VCrtAllocator@2@@OTIO_rapidjson@@CA_NAEAV?$CursorStreamWrapper@VFileReadStream@OTIO_rapidjson@@U?$UTF8@D@2@@1@D@Z
	??$Consume@V?$NumberStream@V?$CursorStreamWrapper@U?$GenericStringStream@U?$UTF8@D@OTIO_rapidjson@@@OTIO_rapidjson@@U?$UTF8@D@2@@OTIO_rapidjson@@$0A@$0A@@?$GenericReader@U?$UTF8@D@OTIO_rapidjson@@U12@VCrtAllocator@2@@OTIO_rapidjson@@@?$GenericReader@U?$UTF8@D@OTIO_rapidjson@@U12@VCrtAllocator@2@@OTIO_rapidjson@@CA_NAEAV?$NumberStream@V?$CursorStreamWrapper@U?$GenericStringStream@U?$UTF8@D@OTIO_rapidjson@@@OTIO_rapidjson@@U?$UTF8@D@2@@OTIO_rapidjson@@$0A@$0A@@01@D@Z
	??$Consume@V?$NumberStream@V?$CursorStreamWrapper@VFileReadStream@OTIO_rapidjson@@U?$UTF8@D@2@@OTIO_rapidjson@@$0A@$0A@@?$GenericReader@U?$UTF8@D@OTIO_rapidjson@@U12@VCrtAllocator@2@@OTIO_rapidjson@@@?$GenericReader@U?$UTF8@D@OTIO_rapidjson@@U12@VCrtAllocator@2@@OTIO_rapidjson@@CA_NAEAV?$NumberStream@V?$CursorStreamWrapper@VFileReadStream@OTIO_rapidjson@@U?$UTF8@D@2@@OTIO_rapidjson@@$0A@$0A@@01@D@Z
	??$Decode@U?$GenericStringStream@U?$UTF8@D@OTIO_rapidjson@@@OTIO_rapidjson@@@?$UTF8@D@OTIO_rapidjson@@SA_NAEAU?$GenericStringStream@U?$UTF8@D@OTIO_rapidjson@@@1@PEAI@Z
	??$Encode@V?$CursorStreamWrapper@U?$GenericStringStream@U?$UTF8@D@OTIO_rapidjson@@@OTIO_rapidjson@@U?$UTF8@D@2@@OTIO_rapidjson@@@?$UTF8@D@OTIO_rapidjson@@SAXAEAV?$CursorStreamWrapper@U?$GenericStringStream@U?$UTF8@D@OTIO_rapidjson@@@OTIO_rapidjson@@U?$UTF8@D@2@@1@I@Z
	??$Encode@V?$CursorStreamWrapper@VFileReadStream@OTIO_rapidjson@@U?$UTF8@D@2@@OTIO_rapidjson@@@?$UTF8@D@OTIO_rapidjson@@SAXAEAV?$CursorStreamWrapper@VFileReadStream@OTIO_rapidjson@@U?$UTF8@D@2@@1@I@Z
	??$Encode@V?$StackStream@D@?$GenericReader@U?$UTF8@D@OTIO_rapidjson@@U12@VCrtAllocator@2@@OTIO_rapidjson@@@?$UTF8@D@OTIO_rapidjson@@SAXAEAV?$StackStream@D@?$GenericReader@U?$UTF8@D@OTIO_rapidjson@@U12@VCrtAllocator@2@@1@I@Z
	??$Expand@D@?$Stack@VCrtAllocator@OTIO_rapidjson@@@internal@OTIO_rapidjson@@AEAAX_K@Z
	??$Expand@I@?$Stack@VCrtAllocator@OTIO_rapidjson@@@internal@OTIO_rapidjson@@AEAAX_K@Z
	??$Expand@ULevel@?$Writer@V?$BasicOStreamWrapper@V?$basic_ostream@DU?$char_traits@D@std@@@std@@@OTIO_rapidjson@@U?$UTF8@D@2@U32@VCrtAllocator@2@$0A@@OTIO_rapidjson@@@?$Stack@VCrtAllocator@OTIO_rapidjson@@@internal@OTIO_rapidjson@@AEAAX_K@Z
	??$Expand@ULevel@?$Writer@V?$GenericStringBuffer@U?$UTF8@D@OTIO_rapidjson@@VCrtAllocator@2@@OTIO_rapidjson@@U?$UTF8@D@2@U32@VCrtAllocator@2@$0A@@OTIO_rapidjson@@@?$Stack@VCrtAllocator@OTIO_rapidjson@@@internal@OTIO_rapidjson@@AEAAX_K@Z
	??$HandleError@V?$CursorStreamWrapper@U?$GenericStringStream@U?$UTF8@D@OTIO_rapidjson@@@OTIO_rapidjson@@U?$UTF8@D@2@@OTIO_rapidjson@@@?$GenericReader@U?$UTF8@D@OTIO_rapidjson@@U12@VCrtAllocator@2@@OTIO_rapidjson@@AEAAXW4IterativeParsingState@01@AEAV?$CursorStreamWrapper@U?$GenericStringStream@U?$UTF8@D@OTIO_rapidjson@@@OTIO_rapidjson@@U?$UTF8@D@2@@1@@Z
	??$HandleError@V?$CursorStreamWrapper@VFileReadStream@OTIO_rapidjson@@U?$UTF8@D@2@@OTIO_rapidjson@@@?$GenericReader@U?$UTF8@D@OTIO_rapidjson@@U12@VCrtAllocator@2@@OTIO_rapidjson@@AEAAXW4IterativeParsingState@01@AEAV?$CursorStreamWrapper@VFileReadStream@OTIO_rapidjson@@U?$UTF8@D@2@@1@@Z
	??$IterativeParse@$0A@V?$CursorStreamWrapper@U?$GenericStringStream@U?$UTF8@D@OTIO_rapidjson@@@OTIO_rapidjson@@U?$UTF8@D@2@@OTIO_rapidjson@@VJSONDecoder@v1_0@opentimelineio@@@?$GenericReader@U?$UTF8@D@OTIO_rapidjson@@U12@VCrtAllocator@2@@OTIO_rapidjson@@AEAA?AUParseResult@1@AEAV?$CursorStreamWrapper@U?$GenericStringStream@U?$UTF8@D@OTIO_rapidjson@@@OTIO_rapidjson@@U?$UTF8@D@2@@1@AEAVJSONDecoder@v1_0@opentimelineio@@@Z
	??$IterativeParse@$0A@V?$CursorStreamWrapper@VFileReadStream@OTIO_rapidjson@@U?$UTF8@D@2@@OTIO_rapidjson@@VJSONDecoder@v1_0@opentimelineio@@@?$GenericReader@U?$UTF8@D@OTIO_rapidjson@@U12@VCrtAllocator@2@@OTIO_rapidjson@@AEAA?AUParseResult@1@AEAV?$CursorStreamWrapper@VFileReadStream@OTIO_rapidjson@@U?$UTF8@D@2@@1@AEAVJSONDecoder@v1_0@opentimelineio@@@Z
	??$Min3@H@internal@OTIO_rapidjson@@YAHHHH@Z
	??$Parse@$0A@V?$CursorStreamWrapper@U?$GenericStringStream@U?$UTF8@D@OTIO_rapidjson@@@OTIO_rapidjson@@U?$UTF8@D@2@@OTIO_rapidjson@@VJSONDecoder@v1_0@opentimelineio@@@?$GenericReader@U?$UTF8@D@OTIO_rapidjson@@U12@VCrtAllocator@2@@OTIO_rapidjson@@QEAA?AUParseResult@1@AEAV?$CursorStreamWrapper@U?$GenericStringStream@U?$UTF8@D@OTIO_rapidjson@@@OTIO_rapidjson@@U?$UTF8@D@2@@1@AEAVJSONDecoder@v1_0@opentimelineio@@@Z
	??$Parse@$0A@V?$CursorStreamWrapper@VFileReadStream@OTIO_rapidjson@@U?$UTF8@D@2@@OTIO_rapidjson@@VJSONDecoder@v1_0@opentimelineio@@@?$GenericReader@U?$UTF8@D@OTIO_rapidjson@@U12@VCrtAllocator@2@@OTIO_rapidjson@@QEAA?AUParseResult@1@AEAV?$CursorStreamWrapper@VFileReadStream@OTIO_rapidjson@@U?$UTF8@D@2@@1@AEAVJSONDecoder@v1_0@opentimelineio@@@Z
	??$Parse@V?$CursorStreamWrapper@U?$GenericStringStream@U?$UTF8@D@OTIO_rapidjson@@@OTIO_rapidjson@@U?$UTF8@D@2@@OTIO_rapidjson@@VJSONDecoder@v1_0@opentimelineio@@@?$GenericReader@U?$UTF8@D@OTIO_rapidjson@@U12@VCrtAllocator@2@@OTIO_rapidjson@@QEAA?AUParseResult@1@AEAV?$CursorStreamWrapper@U?$GenericStringStream@U?$UTF8@D@OTIO_rapidjson@@@OTIO_rapidjson@@U?$UTF8@D@2@@1@AEAVJSONDecoder@v1_0@opentimelineio@@@Z
	??$Parse@V?$CursorStreamWrapper@VFileReadStream@OTIO_rapidjson@@U?$UTF8@D@2@@OTIO_rapidjson@@VJSONDecoder@v1_0@opentimelineio@@@?$GenericReader@U?$UTF8@D@OTIO_rapidjson@@U12@VCrtAllocator@2@@OTIO_rapidjson@@QEAA?AUParseResult@1@AEAV?$CursorStreamWrapper@VFileReadStream@OTIO_rapidjson@@U?$UTF8@D@2@@1@AEAVJSONDecoder@v1_0@opentimelineio@@@Z
	??$ParseArray@$0A@V?$CursorStreamWrapper@U?$GenericStringStream@U?$UTF8@D@OTIO_rapidjson@@@OTIO_rapidjson@@U?$UTF8@D@2@@OTIO_rapidjson@@VJSONDecoder@v1_0@opentimelineio@@@?$GenericReader@U?$UTF8@D@OTIO_rapidjson@@U12@VCrtAllocator@2@@OTIO_rapidjson@@AEAAXAEAV?$CursorStreamWrapper@U?$GenericStringStream@U?$UTF8@D@OTIO_rapidjson@@@OTIO_rapidjson@@U?$UTF8@D@2@@1@AEAVJSONDecoder@v1_0@opentimelineio@@@Z
	??$ParseArray@$0A@V?$CursorStreamWrapper@VFileReadStream@OTIO_rapidjson@@U?$UTF8@D@2@@OTIO_rapidjson@@VJSONDecoder@v1_0@opentimelineio@@@?$GenericReader@U?$UTF8@D@OTIO_rapidjson@@U12@VCrtAllocator@2@@OTIO_rapidjson@@AEAAXAEAV?$CursorStreamWrapper@VFileReadStream@OTIO_rapidjson@@U?$UTF8@D@2@@1@AEAVJSONDecoder@v1_0@opentimelineio@@@Z
	??$ParseFalse@$0A@V?$CursorStreamWrapper@U?$GenericStringStream@U?$UTF8@D@OTIO_rapidjson@@@OTIO_rapidjson@@U?$UTF8@D@2@@OTIO_rapidjson@@VJSONDecoder@v1_0@opentimelineio@@@?$GenericReader@U?$UTF8@D@OTIO_rapidjson@@U12@VCrtAllocator@2@@OTIO_rapidjson@@AEAAXAEAV?$CursorStreamWrapper@U?$GenericStringStream@U?$UTF8@D@OTIO_rapidjson@@@OTIO_rapidjson@@U?$UTF8@D@2@@1@AEAVJSONDecoder@v1_0@opentimelineio@@@Z
	??$ParseFalse@$0A@V?$CursorStreamWrapper@VFileReadStream@OTIO_rapidjson@@U?$UTF8@D@2@@OTIO_rapidjson@@VJSONDecoder@v1_0@opentimelineio@@@?$GenericReader@U?$UTF8@D@OTIO_rapidjson@@U12@VCrtAllocator@2@@OTIO_rapidjson@@AEAAXAEAV?$CursorStreamWrapper@VFileReadStream@OTIO_rapidjson@@U?$UTF8@D@2@@1@AEAVJSONDecoder@v1_0@opentimelineio@@@Z
	??$ParseHex4@V?$CursorStreamWrapper@U?$GenericStringStream@U?$UTF8@D@OTIO_rapidjson@@@OTIO_rapidjson@@U?$UTF8@D@2@@OTIO_rapidjson@@@?$GenericReader@U?$UTF8@D@OTIO_rapidjson@@U12@VCrtAllocator@2@@OTIO_rapidjson@@AEAAIAEAV?$CursorStreamWrapper@U?$GenericStringStream@U?$UTF8@D@OTIO_rapidjson@@@OTIO_rapidjson@@U?$UTF8@D@2@@1@_K@Z
	??$ParseHex4@V?$CursorStreamWrapper@VFileReadStream@OTIO_rapidjson@@U?$UTF8@D@2@@OTIO_rapidjson@@@?$GenericReader@U?$UTF8@D@OTIO_rapidjson@@U12@VCrtAllocator@2@@OTIO_rapidjson@@AEAAIAEAV?$CursorStreamWrapper@VFileReadStream@OTIO_rapidjson@@U?$UTF8@D@2@@1@_K@Z
	??$ParseNull@$0A@V?$CursorStreamWrapper@U?$GenericStringStream@U?$UTF8@D@OTIO_rapidjson@@@OTIO_rapidjson@@U?$UTF8@D@2@@OTIO_rapidjson@@VJSONDecoder@v1_0@opentimelineio@@@?$GenericReader@U?$UTF8@D@OTIO_rapidjson@@U12@VCrtAllocator@2@@OTIO_rapidjson@@AEAAXAEAV?$CursorStreamWrapper@U?$GenericStringStream@U?$UTF8@D@OTIO_rapidjson@@@OTIO_rapidjson@@U?$UTF8@D@2@@1@AEAVJSONDecoder@v1_0@opentimelineio@@@Z
	??$ParseNull@$0A@V?$CursorStreamWrapper@VFileReadStream@OTIO_rapidjson@@U?$UTF8@D@2@@OTIO_rapidjson@@VJSONDecoder@v1_0@opentimelineio@@@?$GenericReader@U?$UTF8@D@OTIO_rapidjson@@U12@VCrtAllocator@2@@OTIO_rapidjson@@AEAAXAEAV?$CursorStreamWrapper@VFileReadStream@OTIO_rapidjson@@U?$UTF8@D@2@@1@AEAVJSONDecoder@v1_0@opentimelineio@@@Z
	??$ParseNumber@$0A@V?$CursorStreamWrapper@U?$GenericStringStream@U?$UTF8@D@OTIO_rapidjson@@@OTIO_rapidjson@@U?$UTF8@D@2@@OTIO_rapidjson@@VJSONDecoder@v1_0@opentimelineio@@@?$GenericReader@U?$UTF8@D@OTIO_rapidjson@@U12@VCrtAllocator@2@@OTIO_rapidjson@@AEAAXAEAV?$CursorStreamWrapper@U?$GenericStringStream@U?$UTF8@D@OTIO_rapidjson@@@OTIO_rapidjson@@U?$UTF8@D@2@@1@AEAVJSONDecoder@v1_0@opentimelineio@@@Z
	??$ParseNumber@$0A@V?$CursorStreamWrapper@VFileReadStream@OTIO_rapidjson@@U?$UTF8@D@2@@OTIO_rapidjson@@VJSONDecoder@v1_0@opentimelineio@@@?$GenericReader@U?$UTF8@D@OTIO_rapidjson@@U12@VCrtAllocator@2@@OTIO_rapidjson@@AEAAXAEAV?$CursorStreamWrapper@VFileReadStream@OTIO_rapidjson@@U?$UTF8@D@2@@1@AEAVJSONDecoder@v1_0@opentimelineio@@@Z
	??$ParseObject@$0A@V?$CursorStreamWrapper@U?$GenericStringStream@U?$UTF8@D@OTIO_rapidjson@@@OTIO_rapidjson@@U?$UTF8@D@2@@OTIO_rapidjson@@VJSONDecoder@v1_0@opentimelineio@@@?$GenericReader@U?$UTF8@D@OTIO_rapidjson@@U12@VCrtAllocator@2@@OTIO_rapidjson@@AEAAXAEAV?$CursorStreamWrapper@U?$GenericStringStream@U?$UTF8@D@OTIO_rapidjson@@@OTIO_rapidjson@@U?$UTF8@D@2@@1@AEAVJSONDecoder@v1_0@opentimelineio@@@Z
	??$ParseObject@$0A@V?$CursorStreamWrapper@VFileReadStream@OTIO_rapidjson@@U?$UTF8@D@2@@OTIO_rapidjson@@VJSONDecoder@v1_0@opentimelineio@@@?$GenericReader@U?$UTF8@D@OTIO_rapidjson@@U12@VCrtAllocator@2@@OTIO_rapidjson@@AEAAXAEAV?$CursorStreamWrapper@VFileReadStream@OTIO_rapidjson@@U?$UTF8@D@2@@1@AEAVJSONDecoder@v1_0@opentimelineio@@@Z
	??$ParseString@$0A@V?$CursorStreamWrapper@U?$GenericStringStream@U?$UTF8@D@OTIO_rapidjson@@@OTIO_rapidjson@@U?$UTF8@D@2@@OTIO_rapidjson@@VJSONDecoder@v1_0@opentimelineio@@@?$GenericReader@U?$UTF8@D@OTIO_rapidjson@@U12@VCrtAllocator@2@@OTIO_rapidjson@@AEAAXAEAV?$CursorStreamWrapper@U?$GenericStringStream@U?$UTF8@D@OTIO_rapidjson@@@OTIO_rapidjson@@U?$UTF8@D@2@@1@AEAVJSONDecoder@v1_0@opentimelineio@@_N@Z
	??$ParseString@$0A@V?$CursorStreamWrapper@VFileReadStream@OTIO_rapidjson@@U?$UTF8@D@2@@OTIO_rapidjson@@VJSONDecoder@v1_0@opentimelineio@@@?$GenericReader@U?$UTF8@D@OTIO_rapidjson@@U12@VCrtAllocator@2@@OTIO_rapidjson@@AEAAXAEAV?$CursorStreamWrapper@VFileReadStream@OTIO_rapidjson@@U?$UTF8@D@2@@1@AEAVJSONDecoder@v1_0@opentimelineio@@_N@Z
	??$ParseStringToStream@$0A@U?$UTF8@D@OTIO_rapidjson@@U12@V?$CursorStreamWrapper@U?$GenericStringStream@U?$UTF8@D@OTIO_rapidjson@@@OTIO_rapidjson@@U?$UTF8@D@2@@2@V32@@?$GenericReader@U?$UTF8@D@OTIO_rapidjson@@U12@VCrtAllocator@2@@OTIO_rapidjson@@AEAAXAEAV?$CursorStreamWrapper@U?$GenericStringStream@U?$UTF8@D@OTIO_rapidjson@@@OTIO_rapidjson@@U?$UTF8@D@2@@1@0@Z
	??$ParseStringToStream@$0A@U?$UTF8@D@OTIO_rapidjson@@U12@V?$CursorStreamWrapper@U?$GenericStringStream@U?$UTF8@D@OTIO_rapidjson@@@OTIO_rapidjson@@U?$UTF8@D@2@@2@V?$StackStream@D@?$GenericReader@U?$UTF8@D@OTIO_rapidjson@@U12@VCrtAllocator@2@@2@@?$GenericReader@U?$UTF8@D@OTIO_rapidjson@@U12@VCrtAllocator@2@@OTIO_rapidjson@@AEAAXAEAV?$CursorStreamWrapper@U?$GenericStringStream@U?$UTF8@D@OTIO_rapidjson@@@OTIO_rapidjson@@U?$UTF8@D@2@@1@AEAV?$StackStream@D@01@@Z
	??$ParseStringToStream@$0A@U?$UTF8@D@OTIO_rapidjson@@U12@V?$CursorStreamWrapper@VFileReadStream@OTIO_rapidjson@@U?$UTF8@D@2@@2@V32@@?$GenericReader@U?$UTF8@D@OTIO_rapidjson@@U12@VCrtAllocator@2@@OTIO_rapidjson@@AEAAXAEAV?$CursorStreamWrapper@VFileReadStream@OTIO_rapidjson@@U?$UTF8@D@2@@1@0@Z
	??$ParseStringToStream@$0A@U?$UTF8@D@OTIO_rapidjson@@U12@V?$CursorStreamWrapper@VFileReadStream@OTIO_rapidjson@@U?$UTF8@D@2@@2@V?$StackStream@D@?$GenericReader@U?$UTF8@D@OTIO_rapidjson@@U12@VCrtAllocator@2@@2@@?$GenericReader@U?$UTF8@D@OTIO_rapidjson@@U12@VCrtAllocator@2@@OTIO_rapidjson@@AEAAXAEAV?$CursorStreamWrapper@VFileReadStream@OTIO_rapidjson@@U?$UTF8@D@2@@1@AEAV?$StackStream@D@01@@Z
	??$ParseTrue@$0A@V?$CursorStreamWrapper@U?$GenericStringStream@U?$UTF8@D@OTIO_rapidjson@@@OTIO_rapidjson@@U?$UTF8@D@2@@OTIO_rapidjson@@VJSONDecoder@v1_0@opentimelineio@@@?$GenericReader@U?$UTF8@D@OTIO_rapidjson@@U12@VCrtAllocator@2@@OTIO_rapidjson@@AEAAXAEAV?$CursorStreamWrapper@U?$GenericStringStream@U?$UTF8@D@OTIO_rapidjson@@@OTIO_rapidjson@@U?$UTF8@D@2@@1@AEAVJSONDecoder@v1_0@opentimelineio@@@Z
	??$ParseTrue@$0A@V?$CursorStreamWrapper@VFileReadStream@OTIO_rapidjson@@U?$UTF8@D@2@@OTIO_rapidjson@@VJSONDecoder@v1_0@opentimelineio@@@?$GenericReader@U?$UTF8@D@OTIO_rapidjson@@U12@VCrtAllocator@2@@OTIO_rapidjson@@AEAAXAEAV?$CursorStreamWrapper@VFileReadStream@OTIO_rapidjson@@U?$UTF8@D@2@@1@AEAVJSONDecoder@v1_0@opentimelineio@@@Z
	??$ParseValue@$0A@V?$CursorStreamWrapper@U?$GenericStringStream@U?$UTF8@D@OTIO_rapidjson@@@OTIO_rapidjson@@U?$UTF8@D@2@@OTIO_rapidjson@@VJSONDecoder@v1_0@opentimelineio@@@?$GenericReader@U?$UTF8@D@OTIO_rapidjson@@U12@VCrtAllocator@2@@OTIO_rapidjson@@AEAAXAEAV?$CursorStreamWrapper@U?$GenericStringStream@U?$UTF8@D@OTIO_rapidjson@@@OTIO_rapidjson@@U?$UTF8@D@2@@1@AEAVJSONDecoder@v1_0@opentimelineio@@@Z
	??$ParseValue@$0A@V?$CursorStreamWrapper@VFileReadStream@OTIO_rapidjson@@U?$UTF8@D@2@@OTIO_rapidjson@@VJSONDecoder@v1_0@opentimelineio@@@?$GenericReader@U?$UTF8@D@OTIO_rapidjson@@U12@VCrtAllocator@2@@OTIO_rapidjson@@AEAAXAEAV?$CursorStreamWrapper@VFileReadStream@OTIO_rapidjson@@U?$UTF8@D@2@@1@AEAVJSONDecoder@v1_0@opentimelineio@@@Z
	??$Pop@D@?$Stack@VCrtAllocator@OTIO_rapidjson@@@internal@OTIO_rapidjson@@QEAAPEAD_K@Z
	??$Pop@I@?$Stack@VCrtAllocator@OTIO_rapidjson@@@internal@OTIO_rapidjson@@QEAAPEAI_K@Z
	??$Pop@ULevel@?$Writer@V?$BasicOStreamWrapper@V?$basic_ostream@DU?$char_traits@D@std@@@std@@@OTIO_rapidjson@@U?$UTF8@D@2@U32@VCrtAllocator@2@$0A@@OTIO_rapidjson@@@?$Stack@VCrtAllocator@OTIO_rapidjson@@@internal@OTIO_rapidjson@@QEAAPEAULevel@?$Writer@V?$BasicOStreamWrapper@V?$basic_ostream@DU?$char_traits@D@std@@@std@@@OTIO_rapidjson@@U?$UTF8@D@2@U32@VCrtAllocator@2@$0A@@2@_K@Z
	??$Pop@ULevel@?$Writer@V?$GenericStringBuffer@U?$UTF8@D@OTIO_rapidjson@@VCrtAllocator@2@@OTIO_rapidjson@@U?$UTF8@D@2@U32@VCrtAllocator@2@$0A@@OTIO_rapidjson@@@?$Stack@VCrtAllocator@OTIO_rapidjson@@@internal@OTIO_rapidjson@@QEAAPEAULevel@?$Writer@V?$GenericStringBuffer@U?$UTF8@D@OTIO_rapidjson@@VCrtAllocator@2@@OTIO_rapidjson@@U?$UTF8@D@2@U32@VCrtAllocator@2@$0A@@2@_K@Z
	??$Push@D@?$Stack@VCrtAllocator@OTIO_rapidjson@@@internal@OTIO_rapidjson@@QEAAPEAD_K@Z
	??$Push@I@?$Stack@VCrtAllocator@OTIO_rapidjson@@@internal@OTIO_rapidjson@@QEAAPEAI_K@Z
	??$Push@ULevel@?$Writer@V?$BasicOStreamWrapper@V?$basic_ostream@DU?$char_traits@D@std@@@std@@@OTIO_rapidjson@@U?$UTF8@D@2@U32@VCrtAllocator@2@$0A@@OTIO_rapidjson@@@?$Stack@VCrtAllocator@OTIO_rapidjson@@@internal@OTIO_rapidjson@@QEAAPEAULevel@?$Writer@V?$BasicOStreamWrapper@V?$basic_ostream@DU?$char_traits@D@std@@@std@@@OTIO_rapidjson@@U?$UTF8@D@2@U32@VCrtAllocator@2@$0A@@2@_K@Z
	??$Push@ULevel@?$Writer@V?$GenericStringBuffer@U?$UTF8@D@OTIO_rapidjson@@VCrtAllocator@2@@OTIO_rapidjson@@U?$UTF8@D@2@U32@VCrtAllocator@2@$0A@@OTIO_rapidjson@@@?$Stack@VCrtAllocator@OTIO_rapidjson@@@internal@OTIO_rapidjson@@QEAAPEAULevel@?$Writer@V?$GenericStringBuffer@U?$UTF8@D@OTIO_rapidjson@@VCrtAllocator@2@@OTIO_rapidjson@@U?$UTF8@D@2@U32@VCrtAllocator@2@$0A@@2@_K@Z
	??$PushUnsafe@D@?$Stack@VCrtAllocator@OTIO_rapidjson@@@internal@OTIO_rapidjson@@QEAAPEAD_K@Z
	??$PushUnsafe@I@?$Stack@VCrtAllocator@OTIO_rapidjson@@@internal@OTIO_rapidjson@@QEAAPEAI_K@Z
	??$PushUnsafe@ULevel@?$Writer@V?$BasicOStreamWrapper@V?$basic_ostream@DU?$char_traits@D@std@@@std@@@OTIO_rapidjson@@U?$UTF8@D@2@U32@VCrtAllocator@2@$0A@@OTIO_rapidjson@@@?$Stack@VCrtAllocator@OTIO_rapidjson@@@internal@OTIO_rapidjson@@QEAAPEAULevel@?$Writer@V?$BasicOStreamWrapper@V?$basic_ostream@DU?$char_traits@D@std@@@std@@@OTIO_rapidjson@@U?$UTF8@D@2@U32@VCrtAllocator@2@$0A@@2@_K@Z
	??$PushUnsafe@ULevel@?$Writer@V?$GenericStringBuffer@U?$UTF8@D@OTIO_rapidjson@@VCrtAllocator@2@@OTIO_rapidjson@@U?$UTF8@D@2@U32@VCrtAllocator@2@$0A@@OTIO_rapidjson@@@?$Stack@VCrtAllocator@OTIO_rapidjson@@@internal@OTIO_rapidjson@@QEAAPEAULevel@?$Writer@V?$GenericStringBuffer@U?$UTF8@D@OTIO_rapidjson@@VCrtAllocator@2@@OTIO_rapidjson@@U?$UTF8@D@2@U32@VCrtAllocator@2@$0A@@2@_K@Z
	??$PutN@V?$BasicOStreamWrapper@V?$basic_ostream@DU?$char_traits@D@std@@@std@@@OTIO_rapidjson@@D@OTIO_rapidjson@@YAXAEAV?$BasicOStreamWrapper@V?$basic_ostream@DU?$char_traits@D@std@@@std@@@0@D_K@Z
	??$PutN@V?$GenericStringBuffer@U?$UTF8@D@OTIO_rapidjson@@VCrtAllocator@2@@OTIO_rapidjson@@D@OTIO_rapidjson@@YAXAEAV?$GenericStringBuffer@U?$UTF8@D@OTIO_rapidjson@@VCrtAllocator@2@@0@D_K@Z
	??$PutReserve@U?$UTF8@D@OTIO_rapidjson@@VCrtAllocator@2@@OTIO_rapidjson@@YAXAEAV?$GenericStringBuffer@U?$UTF8@D@OTIO_rapidjson@@VCrtAllocator@2@@0@_K@Z
	??$PutReserve@V?$BasicOStreamWrapper@V?$basic_ostream@DU?$char_traits@D@std@@@std@@@OTIO_rapidjson@@@OTIO_rapidjson@@YAXAEAV?$BasicOStreamWrapper@V?$basic_ostream@DU?$char_traits@D@std@@@std@@@0@_K@Z
	??$PutUnsafe@U?$UTF8@D@OTIO_rapidjson@@VCrtAllocator@2@@OTIO_rapidjson@@YAXAEAV?$GenericStringBuffer@U?$UTF8@D@OTIO_rapidjson@@VCrtAllocator@2@@0@D@Z
	??$PutUnsafe@V?$BasicOStreamWrapper@V?$basic_ostream@DU?$char_traits@D@std@@@std@@@OTIO_rapidjson@@@OTIO_rapidjson@@YAXAEAV?$BasicOStreamWrapper@V?$basic_ostream@DU?$char_traits@D@std@@@std@@@0@D@Z
	??$Reserve@D@?$Stack@VCrtAllocator@OTIO_rapidjson@@@internal@OTIO_rapidjson@@QEAAX_K@Z
	??$Reserve@I@?$Stack@VCrtAllocator@OTIO_rapidjson@@@internal@OTIO_rapidjson@@QEAAX_K@Z
	??$Reserve@ULevel@?$Writer@V?$BasicOStreamWrapper@V?$basic_ostream@DU?$char_traits@D@std@@@std@@@OTIO_rapidjson@@U?$UTF8@D@2@U32@VCrtAllocator@2@$0A@@OTIO_rapidjson@@@?$Stack@VCrtAllocator@OTIO_rapidjson@@@internal@OTIO_rapidjson@@QEAAX_K@Z
	??$Reserve@ULevel@?$Writer@V?$GenericStringBuffer@U?$UTF8@D@OTIO_rapidjson@@VCrtAllocator@2@@OTIO_rapidjson@@U?$UTF8@D@2@U32@VCrtAllocator@2@$0A@@OTIO_rapidjson@@@?$Stack@VCrtAllocator@OTIO_rapidjson@@@internal@OTIO_rapidjson@@QEAAX_K@Z
	??$ScanCopyUnescapedString@V?$CursorStreamWrapper@U?$GenericStringStream@U?$UTF8@D@OTIO_rapidjson@@@OTIO_rapidjson@@U?$UTF8@D@2@@OTIO_rapidjson@@V12@@?$GenericReader@U?$UTF8@D@OTIO_rapidjson@@U12@VCrtAllocator@2@@OTIO_rapidjson@@CAXAEAV?$CursorStreamWrapper@U?$GenericStringStream@U?$UTF8@D@OTIO_rapidjson@@@OTIO_rapidjson@@U?$UTF8@D@2@@1@0@Z
	??$ScanCopyUnescapedString@V?$CursorStreamWrapper@U?$GenericStringStream@U?$UTF8@D@OTIO_rapidjson@@@OTIO_rapidjson@@U?$UTF8@D@2@@OTIO_rapidjson@@V?$StackStream@D@?$GenericReader@U?$UTF8@D@OTIO_rapidjson@@U12@VCrtAllocator@2@@2@@?$GenericReader@U?$UTF8@D@OTIO_rapidjson@@U12@VCrtAllocator@2@@OTIO_rapidjson@@CAXAEAV?$CursorStreamWrapper@U?$GenericStringStream@U?$UTF8@D@OTIO_rapidjson@@@OTIO_rapidjson@@U?$UTF8@D@2@@1@AEAV?$StackStream@D@01@@Z
	??$ScanCopyUnescapedString@V?$CursorStreamWrapper@VFileReadStream@OTIO_rapidjson@@U?$UTF8@D@2@@OTIO_rapidjson@@V12@@?$GenericReader@U?$UTF8@D@OTIO_rapidjson@@U12@VCrtAllocator@2@@OTIO_rapidjson@@CAXAEAV?$CursorStreamWrapper@VFileReadStream@OTIO_rapidjson@@U?$UTF8@D@2@@1@0@Z
	??$ScanCopyUnescapedString@V?$CursorStreamWrapper@VFileReadStream@OTIO_rapidjson@@U?$UTF8@D@2@@OTIO_rapidjson@@V?$StackStream@D@?$GenericReader@U?$UTF8@D@OTIO_rapidjson@@U12@VCrtAllocator@2@@2@@?$GenericReader@U?$UTF8@D@OTIO_rapidjson@@U12@VCrtAllocator@2@@OTIO_rapidjson@@CAXAEAV?$CursorStreamWrapper@VFileReadStream@OTIO_rapidjson@@U?$UTF8@D@2@@1@AEAV?$StackStream@D@01@@Z
	??$SkipWhitespace@V?$CursorStreamWrapper@U?$GenericStringStream@U?$UTF8@D@OTIO_rapidjson@@@OTIO_rapidjson@@U?$UTF8@D@2@@OTIO_rapidjson@@@OTIO_rapidjson@@YAXAEAV?$CursorStreamWrapper@U?$GenericStringStream@U?$UTF8@D@OTIO_rapidjson@@@OTIO_rapidjson@@U?$UTF8@D@2@@0@@Z
	??$SkipWhitespace@V?$CursorStreamWrapper@VFileReadStream@OTIO_rapidjson@@U?$UTF8@D@2@@OTIO_rapidjson@@@OTIO_rapidjson@@YAXAEAV?$CursorStreamWrapper@VFileReadStream@OTIO_rapidjson@@U?$UTF8@D@2@@0@@Z
	??$SkipWhitespaceAndComments@$0A@V?$CursorStreamWrapper@U?$GenericStringStream@U?$UTF8@D@OTIO_rapidjson@@@OTIO_rapidjson@@U?$UTF8@D@2@@OTIO_rapidjson@@@?$GenericReader@U?$UTF8@D@OTIO_rapidjson@@U12@VCrtAllocator@2@@OTIO_rapidjson@@AEAAXAEAV?$CursorStreamWrapper@U?$GenericStringStream@U?$UTF8@D@OTIO_rapidjson@@@OTIO_rapidjson@@U?$UTF8@D@2@@1@@Z
	??$SkipWhitespaceAndComments@$0A@V?$CursorStreamWrapper@VFileReadStream@OTIO_rapidjson@@U?$UTF8@D@2@@OTIO_rapidjson@@@?$GenericReader@U?$UTF8@D@OTIO_rapidjson@@U12@VCrtAllocator@2@@OTIO_rapidjson@@AEAAXAEAV?$CursorStreamWrapper@VFileReadStream@OTIO_rapidjson@@U?$UTF8@D@2@@1@@Z
	??$StrLen@D@internal@OTIO_rapidjson@@YAIPEBD@Z
	??$Top@I@?$Stack@VCrtAllocator@OTIO_rapidjson@@@internal@OTIO_rapidjson@@QEAAPEAIXZ
	??$Top@ULevel@?$Writer@V?$BasicOStreamWrapper@V?$basic_ostream@DU?$char_traits@D@std@@@std@@@OTIO_rapidjson@@U?$UTF8@D@2@U32@VCrtAllocator@2@$0A@@OTIO_rapidjson@@@?$Stack@VCrtAllocator@OTIO_rapidjson@@@internal@OTIO_rapidjson@@QEAAPEAULevel@?$Writer@V?$BasicOStreamWrapper@V?$basic_ostream@DU?$char_traits@D@std@@@std@@@OTIO_rapidjson@@U?$UTF8@D@2@U32@VCrtAllocator@2@$0A@@2@XZ
	??$Top@ULevel@?$Writer@V?$GenericStringBuffer@U?$UTF8@D@OTIO_rapidjson@@VCrtAllocator@2@@OTIO_rapidjson@@U?$UTF8@D@2@U32@VCrtAllocator@2@$0A@@OTIO_rapidjson@@@?$Stack@VCrtAllocator@OTIO_rapidjson@@@internal@OTIO_rapidjson@@QEAAPEAULevel@?$Writer@V?$GenericStringBuffer@U?$UTF8@D@OTIO_rapidjson@@VCrtAllocator@2@@OTIO_rapidjson@@U?$UTF8@D@2@U32@VCrtAllocator@2@$0A@@2@XZ
	??$Transcode@U?$GenericStringStream@U?$UTF8@D@OTIO_rapidjson@@@OTIO_rapidjson@@V?$StackStream@D@?$GenericReader@U?$UTF8@D@OTIO_rapidjson@@U12@VCrtAllocator@2@@2@@?$Transcoder@U?$UTF8@D@OTIO_rapidjson@@U12@@OTIO_rapidjson@@SA_NAEAU?$GenericStringStream@U?$UTF8@D@OTIO_rapidjson@@@1@AEAV?$StackStream@D@?$GenericReader@U?$UTF8@D@OTIO_rapidjson@@U12@VCrtAllocator@2@@1@@Z
	??$Transcode@V?$CursorStreamWrapper@U?$GenericStringStream@U?$UTF8@D@OTIO_rapidjson@@@OTIO_rapidjson@@U?$UTF8@D@2@@OTIO_rapidjson@@V12@@?$Transcoder@U?$UTF8@D@OTIO_rapidjson@@U12@@OTIO_rapidjson@@SA_NAEAV?$CursorStreamWrapper@U?$GenericStringStream@U?$UTF8@D@OTIO_rapidjson@@@OTIO_rapidjson@@U?$UTF8@D@2@@1@0@Z
	??$Transcode@V?$CursorStreamWrapper@U?$GenericStringStream@U?$UTF8@D@OTIO_rapidjson@@@OTIO_rapidjson@@U?$UTF8@D@2@@OTIO_rapidjson@@V?$StackStream@D@?$GenericReader@U?$UTF8@D@OTIO_rapidjson@@U12@VCrtAllocator@2@@2@@?$Transcoder@U?$UTF8@D@OTIO_rapidjson@@U12@@OTIO_rapidjson@@SA_NAEAV?$CursorStreamWrapper@U?$GenericStringStream@U?$UTF8@D@OTIO_rapidjson@@@OTIO_rapidjson@@U?$UTF8@D@2@@1@AEAV?$StackStream@D@?$GenericReader@U?$UTF8@D@OTIO_rapidjson@@U12@VCrtAllocator@2@@1@@Z
	??$Transcode@V?$CursorStreamWrapper@VFileReadStream@OTIO_rapidjson@@U?$UTF8@D@2@@OTIO_rapidjson@@V12@@?$Transcoder@U?$UTF8@D@OTIO_rapidjson@@U12@@OTIO_rapidjson@@SA_NAEAV?$CursorStreamWrapper@VFileReadStream@OTIO_rapidjson@@U?$UTF8@D@2@@1@0@Z
	??$Transcode@V?$CursorStreamWrapper@VFileReadStream@OTIO_rapidjson@@U?$UTF8@D@2@@OTIO_rapidjson@@V?$StackStream@D@?$GenericReader@U?$UTF8@D@OTIO_rapidjson@@U12@VCrtAllocator@2@@2@@?$Transcoder@U?$UTF8@D@OTIO_rapidjson@@U12@@OTIO_rapidjson@@SA_NAEAV?$CursorStreamWrapper@VFileReadStream@OTIO_rapidjson@@U?$UTF8@D@2@@1@AEAV?$StackStream@D@?$GenericReader@U?$UTF8@D@OTIO_rapidjson@@U12@VCrtAllocator@2@@1@@Z
	??$TranscodeUnsafe@U?$GenericStringStream@U?$UTF8@D@OTIO_rapidjson@@@OTIO_rapidjson@@V?$BasicOStreamWrapper@V?$basic_ostream@DU?$char_traits@D@std@@@std@@@2@@?$Transcoder@U?$UTF8@D@OTIO_rapidjson@@U12@@OTIO_rapidjson@@SA_NAEAU?$GenericStringStream@U?$UTF8@D@OTIO_rapidjson@@@1@AEAV?$BasicOStreamWrapper@V?$basic_ostream@DU?$char_traits@D@std@@@std@@@1@@Z
	??$TranscodeUnsafe@U?$GenericStringStream@U?$UTF8@D@OTIO_rapidjson@@@OTIO_rapidjson@@V?$GenericStringBuffer@U?$UTF8@D@OTIO_rapidjson@@VCrtAllocator@2@@2@@?$Transcoder@U?$UTF8@D@OTIO_rapidjson@@U12@@OTIO_rapidjson@@SA_NAEAU?$GenericStringStream@U?$UTF8@D@OTIO_rapidjson@@@1@AEAV?$GenericStringBuffer@U?$UTF8@D@OTIO_rapidjson@@VCrtAllocator@2@@1@@Z
	??$Transit@$0A@V?$CursorStreamWrapper@U?$GenericStringStream@U?$UTF8@D@OTIO_rapidjson@@@OTIO_rapidjson@@U?$UTF8@D@2@@OTIO_rapidjson@@VJSONDecoder@v1_0@opentimelineio@@@?$GenericReader@U?$UTF8@D@OTIO_rapidjson@@U12@VCrtAllocator@2@@OTIO_rapidjson@@AEAA?AW4IterativeParsingState@01@W4201@W4Token@01@0AEAV?$CursorStreamWrapper@U?$GenericStringStream@U?$UTF8@D@OTIO_rapidjson@@@OTIO_rapidjson@@U?$UTF8@D@2@@1@AEAVJSONDecoder@v1_0@opentimelineio@@@Z
	??$Transit@$0A@V?$CursorStreamWrapper@VFileReadStream@OTIO_rapidjson@@U?$UTF8@D@2@@OTIO_rapidjson@@VJSONDecoder@v1_0@opentimelineio@@@?$GenericReader@U?$UTF8@D@OTIO_rapidjson@@U12@VCrtAllocator@2@@OTIO_rapidjson@@AEAA?AW4IterativeParsingState@01@W4201@W4Token@01@0AEAV?$CursorStreamWrapper@VFileReadStream@OTIO_rapidjson@@U?$UTF8@D@2@@1@AEAVJSONDecoder@v1_0@opentimelineio@@@Z
	??$Validate@U?$GenericStringStream@U?$UTF8@D@OTIO_rapidjson@@@OTIO_rapidjson@@V?$BasicOStreamWrapper@V?$basic_ostream@DU?$char_traits@D@std@@@std@@@2@@?$Transcoder@U?$UTF8@D@OTIO_rapidjson@@U12@@OTIO_rapidjson@@SA_NAEAU?$GenericStringStream@U?$UTF8@D@OTIO_rapidjson@@@1@AEAV?$BasicOStreamWrapper@V?$basic_ostream@DU?$char_traits@D@std@@@std@@@1@@Z
	??$Validate@U?$GenericStringStream@U?$UTF8@D@OTIO_rapidjson@@@OTIO_rapidjson@@V?$BasicOStreamWrapper@V?$basic_ostream@DU?$char_traits@D@std@@@std@@@2@@?$UTF8@D@OTIO_rapidjson@@SA_NAEAU?$GenericStringStream@U?$UTF8@D@OTIO_rapidjson@@@1@AEAV?$BasicOStreamWrapper@V?$basic_ostream@DU?$char_traits@D@std@@@std@@@1@@Z
	??$Validate@U?$GenericStringStream@U?$UTF8@D@OTIO_rapidjson@@@OTIO_rapidjson@@V?$GenericStringBuffer@U?$UTF8@D@OTIO_rapidjson@@VCrtAllocator@2@@2@@?$Transcoder@U?$UTF8@D@OTIO_rapidjson@@U12@@OTIO_rapidjson@@SA_NAEAU?$GenericStringStream@U?$UTF8@D@OTIO_rapidjson@@@1@AEAV?$GenericStringBuffer@U?$UTF8@D@OTIO_rapidjson@@VCrtAllocator@2@@1@@Z
	??$Validate@U?$GenericStringStream@U?$UTF8@D@OTIO_rapidjson@@@OTIO_rapidjson@@V?$GenericStringBuffer@U?$UTF8@D@OTIO_rapidjson@@VCrtAllocator@2@@2@@?$UTF8@D@OTIO_rapidjson@@SA_NAEAU?$GenericStringStream@U?$UTF8@D@OTIO_rapidjson@@@1@AEAV?$GenericStringBuffer@U?$UTF8@D@OTIO_rapidjson@@VCrtAllocator@2@@1@@Z
	??$Validate@V?$CursorStreamWrapper@U?$GenericStringStream@U?$UTF8@D@OTIO_rapidjson@@@OTIO_rapidjson@@U?$UTF8@D@2@@OTIO_rapidjson@@V12@@?$Transcoder@U?$UTF8@D@OTIO_rapidjson@@U12@@OTIO_rapidjson@@SA_NAEAV?$CursorStreamWrapper@U?$GenericStringStream@U?$UTF8@D@OTIO_rapidjson@@@OTIO_rapidjson@@U?$UTF8@D@2@@1@0@Z
	??$Validate@V?$CursorStreamWrapper@U?$GenericStringStream@U?$UTF8@D@OTIO_rapidjson@@@OTIO_rapidjson@@U?$UTF8@D@2@@OTIO_rapidjson@@V12@@?$UTF8@D@OTIO_rapidjson@@SA_NAEAV?$CursorStreamWrapper@U?$GenericStringStream@U?$UTF8@D@OTIO_rapidjson@@@OTIO_rapidjson@@U?$UTF8@D@2@@1@0@Z
	??$Validate@V?$CursorStreamWrapper@U?$GenericStringStream@U?$UTF8@D@OTIO_rapidjson@@@OTIO_rapidjson@@U?$UTF8@D@2@@OTIO_rapidjson@@V?$StackStream@D@?$GenericReader@U?$UTF8@D@OTIO_rapidjson@@U12@VCrtAllocator@2@@2@@?$Transcoder@U?$UTF8@D@OTIO_rapidjson@@U12@@OTIO_rapidjson@@SA_NAEAV?$CursorStreamWrapper@U?$GenericStringStream@U?$UTF8@D@OTIO_rapidjson@@@OTIO_rapidjson@@U?$UTF8@D@2@@1@AEAV?$StackStream@D@?$GenericReader@U?$UTF8@D@OTIO_rapidjson@@U12@VCrtAllocator@2@@1@@Z
	??$Validate@V?$CursorStreamWrapper@U?$GenericStringStream@U?$UTF8@D@OTIO_rapidjson@@@OTIO_rapidjson@@U?$UTF8@D@2@@OTIO_rapidjson@@V?$StackStream@D@?$GenericReader@U?$UTF8@D@OTIO_rapidjson@@U12@VCrtAllocator@2@@2@@?$UTF8@D@OTIO_rapidjson@@SA_NAEAV?$CursorStreamWrapper@U?$GenericStringStream@U?$UTF8@D@OTIO_rapidjson@@@OTIO_rapidjson@@U?$UTF8@D@2@@1@AEAV?$StackStream@D@?$GenericReader@U?$UTF8@D@OTIO_rapidjson@@U12@VCrtAllocator@2@@1@@Z
	??$Validate@V?$CursorStreamWrapper@VFileReadStream@OTIO_rapidjson@@U?$UTF8@D@2@@OTIO_rapidjson@@V12@@?$Transcoder@U?$UTF8@D@OTIO_rapidjson@@U12@@OTIO_rapidjson@@SA_NAEAV?$CursorStreamWrapper@VFileReadStream@OTIO_rapidjson@@U?$UTF8@D@2@@1@0@Z
	??$Validate@V?$CursorStreamWrapper@VFileReadStream@OTIO_rapidjson@@U?$UTF8@D@2@@OTIO_rapidjson@@V12@@?$UTF8@D@OTIO_rapidjson@@SA_NAEAV?$CursorStreamWrapper@VFileReadStream@OTIO_rapidjson@@U?$UTF8@D@2@@1@0@Z
	??$Validate@V?$CursorStreamWrapper@VFileReadStream@OTIO_rapidjson@@U?$UTF8@D@2@@OTIO_rapidjson@@V?$StackStream@D@?$GenericReader@U?$UTF8@D@OTIO_rapidjson@@U12@VCrtAllocator@2@@2@@?$Transcoder@U?$UTF8@D@OTIO_rapidjson@@U12@@OTIO_rapidjson@@SA_NAEAV?$CursorStreamWrapper@VFileReadStream@OTIO_rapidjson@@U?$UTF8@D@2@@1@AEAV?$StackStream@D@?$GenericReader@U?$UTF8@D@OTIO_rapidjson@@U12@VCrtAllocator@2@@1@@Z
	??$Validate@V?$CursorStreamWrapper@VFileReadStream@OTIO_rapidjson@@U?$UTF8@D@2@@OTIO_rapidjson@@V?$StackStream@D@?$GenericReader@U?$UTF8@D@OTIO_rapidjson@@U12@VCrtAllocator@2@@2@@?$UTF8@D@OTIO_rapidjson@@SA_NAEAV?$CursorStreamWrapper@VFileReadStream@OTIO_rapidjson@@U?$UTF8@D@2@@1@AEAV?$StackStream@D@?$GenericReader@U?$UTF8@D@OTIO_rapidjson@@U12@VCrtAllocator@2@@1@@Z
	??$_Adl_verify_range1@PEADPEAD@std@@YAXAEBQEAD0U?$integral_constant@_N$0A@@0@@Z
	??$_Adl_verify_range1@PEAVany@linb@@PEAV12@@std@@YAXAEBQEAVany@linb@@0U?$integral_constant@_N$0A@@0@@Z
	??$_Adl_verify_range1@V?$_Vector_const_iterator@V?$_Vector_val@U?$_Simple_types@PEAVComposable@v1_0@opentimelineio@@@std@@@std@@@std@@V12@@std@@YAXAEBV?$_Vector_const_iterator@V?$_Vector_val@U?$_Simple_types@PEAVComposable@v1_0@opentimelineio@@@std@@@std@@@0@0U?$integral_constant@_N$0A@@0@@Z
	??$_Adl_verify_range1@V?$_Vector_const_iterator@V?$_Vector_val@U?$_Simple_types@PEAVEffect@v1_0@opentimelineio@@@std@@@std@@@std@@V12@@std@@YAXAEBV?$_Vector_const_iterator@V?$_Vector_val@U?$_Simple_types@PEAVEffect@v1_0@opentimelineio@@@std@@@std@@@0@0U?$integral_constant@_N$0A@@0@@Z
	??$_Adl_verify_range1@V?$_Vector_const_iterator@V?$_Vector_val@U?$_Simple_types@PEAVMarker@v1_0@opentimelineio@@@std@@@std@@@std@@V12@@std@@YAXAEBV?$_Vector_const_iterator@V?$_Vector_val@U?$_Simple_types@PEAVMarker@v1_0@opentimelineio@@@std@@@std@@@0@0U?$integral_constant@_N$0A@@0@@Z
	??$_Adl_verify_range1@V?$_Vector_const_iterator@V?$_Vector_val@U?$_Simple_types@PEAVSerializableObject@v1_0@opentimelineio@@@std@@@std@@@std@@V12@@std@@YAXAEBV?$_Vector_const_iterator@V?$_Vector_val@U?$_Simple_types@PEAVSerializableObject@v1_0@opentimelineio@@@std@@@std@@@0@0U?$integral_constant@_N$0A@@0@@Z
	??$_Adl_verify_range1@V?$_Vector_const_iterator@V?$_Vector_val@U?$_Simple_types@U?$Retainer@VComposable@v1_0@opentimelineio@@@SerializableObject@v1_0@opentimelineio@@@std@@@std@@@std@@V12@@std@@YAXAEBV?$_Vector_const_iterator@V?$_Vector_val@U?$_Simple_types@U?$Retainer@VComposable@v1_0@opentimelineio@@@SerializableObject@v1_0@opentimelineio@@@std@@@std@@@0@0U?$integral_constant@_N$0A@@0@@Z
	??$_Adl_verify_range1@V?$_Vector_iterator@V?$_Vector_val@U?$_Simple_types@PEAVSerializableObject@v1_0@opentimelineio@@@std@@@std@@@std@@V12@@std@@YAXAEBV?$_Vector_iterator@V?$_Vector_val@U?$_Simple_types@PEAVSerializableObject@v1_0@opentimelineio@@@std@@@std@@@0@0U?$integral_constant@_N$0A@@0@@Z
	??$_Adl_verify_range@PEADPEAD@std@@YAXAEBQEAD0@Z
	??$_Adl_verify_range@PEAVany@linb@@PEAV12@@std@@YAXAEBQEAVany@linb@@0@Z
	??$_Adl_verify_range@V?$_Vector_const_iterator@V?$_Vector_val@U?$_Simple_types@PEAVComposable@v1_0@opentimelineio@@@std@@@std@@@std@@V12@@std@@YAXAEBV?$_Vector_const_iterator@V?$_Vector_val@U?$_Simple_types@PEAVComposable@v1_0@opentimelineio@@@std@@@std@@@0@0@Z
	??$_Adl_verify_range@V?$_Vector_const_iterator@V?$_Vector_val@U?$_Simple_types@PEAVEffect@v1_0@opentimelineio@@@std@@@std@@@std@@V12@@std@@YAXAEBV?$_Vector_const_iterator@V?$_Vector_val@U?$_Simple_types@PEAVEffect@v1_0@opentimelineio@@@std@@@std@@@0@0@Z
	??$_Adl_verify_range@V?$_Vector_const_iterator@V?$_Vector_val@U?$_Simple_types@PEAVMarker@v1_0@opentimelineio@@@std@@@std@@@std@@V12@@std@@YAXAEBV?$_Vector_const_iterator@V?$_Vector_val@U?$_Simple_types@PEAVMarker@v1_0@opentimelineio@@@std@@@std@@@0@0@Z
	??$_Adl_verify_range@V?$_Vector_const_iterator@V?$_Vector_val@U?$_Simple_types@PEAVSerializableObject@v1_0@opentimelineio@@@std@@@std@@@std@@V12@@std@@YAXAEBV?$_Vector_const_iterator@V?$_Vector_val@U?$_Simple_types@PEAVSerializableObject@v1_0@opentimelineio@@@std@@@std@@@0@0@Z
	??$_Adl_verify_range@V?$_Vector_const_iterator@V?$_Vector_val@U?$_Simple_types@U?$Retainer@VComposable@v1_0@opentimelineio@@@SerializableObject@v1_0@opentimelineio@@@std@@@std@@@std@@V12@@std@@YAXAEBV?$_Vector_const_iterator@V?$_Vector_val@U?$_Simple_types@U?$Retainer@VComposable@v1_0@opentimelineio@@@SerializableObject@v1_0@opentimelineio@@@std@@@std@@@0@0@Z
	??$_Adl_verify_range@V?$_Vector_iterator@V?$_Vector_val@U?$_Simple_types@PEAVSerializableObject@v1_0@opentimelineio@@@std@@@std@@@std@@V12@@std@@YAXAEBV?$_Vector_iterator@V?$_Vector_val@U?$_Simple_types@PEAVSerializableObject@v1_0@opentimelineio@@@std@@@std@@@0@0@Z
	??$_Advance1@PEAVany@linb@@_J@std@@YAXAEAPEAVany@linb@@_JUrandom_access_iterator_tag@0@@Z
	??$_Allocate@$0BA@U_Default_allocate_traits@std@@$0A@@std@@YAPEAX_K@Z
	??$_Allocate_manually_vector_aligned@U_Default_allocate_traits@std@@@std@@YAPEAX_K@Z
	??$_Assign_range@PEAVany@linb@@@?$vector@Vany@linb@@V?$allocator@Vany@linb@@@std@@@std@@AEAAXPEAVany@linb@@0Uforward_iterator_tag@1@@Z
	??$_Buy_if_not_node@AEAPEAVComposable@v1_0@opentimelineio@@@?$_Tree@V?$_Tset_traits@PEAVComposable@v1_0@opentimelineio@@U?$less@PEAVComposable@v1_0@opentimelineio@@@std@@V?$allocator@PEAVComposable@v1_0@opentimelineio@@@5@$0A@@std@@@std@@IEAAPEAU?$_Tree_node@PEAVComposable@v1_0@opentimelineio@@PEAX@1@PEAU21@AEAPEAVComposable@v1_0@opentimelineio@@@Z
	??$_Buy_if_not_node@AEAU?$pair@$$CBHV?$function@$$A6AXPEAVAnyDictionary@v1_0@opentimelineio@@@Z@std@@@std@@@?$_Tree@V?$_Tmap_traits@HV?$function@$$A6AXPEAVAnyDictionary@v1_0@opentimelineio@@@Z@std@@U?$less@H@2@V?$allocator@U?$pair@$$CBHV?$function@$$A6AXPEAVAnyDictionary@v1_0@opentimelineio@@@Z@std@@@std@@@2@$0A@@std@@@std@@IEAAPEAU?$_Tree_node@U?$pair@$$CBHV?$function@$$A6AXPEAVAnyDictionary@v1_0@opentimelineio@@@Z@std@@@std@@PEAX@1@PEAU21@AEAU?$pair@$$CBHV?$function@$$A6AXPEAVAnyDictionary@v1_0@opentimelineio@@@Z@std@@@1@@Z
	??$_Buy_if_not_node@AEAU?$pair@$$CBV?$basic_string@DU?$char_traits@D@std@@V?$allocator@D@2@@std@@H@std@@@?$_Tree@V?$_Tmap_traits@V?$basic_string@DU?$char_traits@D@std@@V?$allocator@D@2@@std@@HU?$less@V?$basic_string@DU?$char_traits@D@std@@V?$allocator@D@2@@std@@@2@V?$allocator@U?$pair@$$CBV?$basic_string@DU?$char_traits@D@std@@V?$allocator@D@2@@std@@H@std@@@2@$0A@@std@@@std@@IEAAPEAU?$_Tree_node@U?$pair@$$CBV?$basic_string@DU?$char_traits@D@std@@V?$allocator@D@2@@std@@H@std@@PEAX@1@PEAU21@AEAU?$pair@$$CBV?$basic_string@DU?$char_traits@D@std@@V?$allocator@D@2@@std@@H@1@@Z
	??$_Buy_if_not_node@AEAU?$pair@$$CBV?$basic_string@DU?$char_traits@D@std@@V?$allocator@D@2@@std@@PEAVSerializableObject@v1_0@opentimelineio@@@std@@@?$_Tree@V?$_Tmap_traits@V?$basic_string@DU?$char_traits@D@std@@V?$allocator@D@2@@std@@PEAVSerializableObject@v1_0@opentimelineio@@U?$less@V?$basic_string@DU?$char_traits@D@std@@V?$allocator@D@2@@std@@@2@V?$allocator@U?$pair@$$CBV?$basic_string@DU?$char_traits@D@std@@V?$allocator@D@2@@std@@PEAVSerializableObject@v1_0@opentimelineio@@@std@@@2@$0A@@std@@@std@@IEAAPEAU?$_Tree_node@U?$pair@$$CBV?$basic_string@DU?$char_traits@D@std@@V?$allocator@D@2@@std@@PEAVSerializableObject@v1_0@opentimelineio@@@std@@PEAX@1@PEAU21@AEAU?$pair@$$CBV?$basic_string@DU?$char_traits@D@std@@V?$allocator@D@2@@std@@PEAVSerializableObject@v1_0@opentimelineio@@@1@@Z
	??$_Buy_if_not_node@AEAU?$pair@$$CBV?$basic_string@DU?$char_traits@D@std@@V?$allocator@D@2@@std@@PEAV_TypeRecord@TypeRegistry@v1_0@opentimelineio@@@std@@@?$_Tree@V?$_Tmap_traits@V?$basic_string@DU?$char_traits@D@std@@V?$allocator@D@2@@std@@PEAV_TypeRecord@TypeRegistry@v1_0@opentimelineio@@U?$less@V?$basic_string@DU?$char_traits@D@std@@V?$allocator@D@2@@std@@@2@V?$allocator@U?$pair@$$CBV?$basic_string@DU?$char_traits@D@std@@V?$allocator@D@2@@std@@PEAV_TypeRecord@TypeRegistry@v1_0@opentimelineio@@@std@@@2@$0A@@std@@@std@@IEAAPEAU?$_Tree_node@U?$pair@$$CBV?$basic_string@DU?$char_traits@D@std@@V?$allocator@D@2@@std@@PEAV_TypeRecord@TypeRegistry@v1_0@opentimelineio@@@std@@PEAX@1@PEAU21@AEAU?$pair@$$CBV?$basic_string@DU?$char_traits@D@std@@V?$allocator@D@2@@std@@PEAV_TypeRecord@TypeRegistry@v1_0@opentimelineio@@@1@@Z
	??$_Buy_if_not_node@AEAU?$pair@$$CBV?$basic_string@DU?$char_traits@D@std@@V?$allocator@D@2@@std@@V?$function@$$A6AXAEBVany@linb@@@Z@2@@std@@@?$_Tree@V?$_Tmap_traits@V?$basic_string@DU?$char_traits@D@std@@V?$allocator@D@2@@std@@V?$function@$$A6AXAEBVany@linb@@@Z@2@U?$less@V?$basic_string@DU?$char_traits@D@std@@V?$allocator@D@2@@std@@@2@V?$allocator@U?$pair@$$CBV?$basic_string@DU?$char_traits@D@std@@V?$allocator@D@2@@std@@V?$function@$$A6AXAEBVany@linb@@@Z@2@@std@@@2@$0A@@std@@@std@@IEAAPEAU?$_Tree_node@U?$pair@$$CBV?$basic_string@DU?$char_traits@D@std@@V?$allocator@D@2@@std@@V?$function@$$A6AXAEBVany@linb@@@Z@2@@std@@PEAX@1@PEAU21@AEAU?$pair@$$CBV?$basic_string@DU?$char_traits@D@std@@V?$allocator@D@2@@std@@V?$function@$$A6AXAEBVany@linb@@@Z@2@@1@@Z
	??$_Buy_if_not_node@AEAU?$pair@$$CBV?$basic_string@DU?$char_traits@D@std@@V?$allocator@D@2@@std@@Vany@linb@@@std@@@?$_Tree@V?$_Tmap_traits@V?$basic_string@DU?$char_traits@D@std@@V?$allocator@D@2@@std@@Vany@linb@@U?$less@V?$basic_string@DU?$char_traits@D@std@@V?$allocator@D@2@@std@@@2@V?$allocator@U?$pair@$$CBV?$basic_string@DU?$char_traits@D@std@@V?$allocator@D@2@@std@@Vany@linb@@@std@@@2@$0A@@std@@@std@@IEAAPEAU?$_Tree_node@U?$pair@$$CBV?$basic_string@DU?$char_traits@D@std@@V?$allocator@D@2@@std@@Vany@linb@@@std@@PEAX@1@PEAU21@AEAU?$pair@$$CBV?$basic_string@DU?$char_traits@D@std@@V?$allocator@D@2@@std@@Vany@linb@@@1@@Z
	??$_Buy_if_not_node@AEAU?$pair@QEAVComposable@v1_0@opentimelineio@@VTimeRange@2opentime@@@std@@@?$_Tree@V?$_Tmap_traits@PEAVComposable@v1_0@opentimelineio@@VTimeRange@2opentime@@U?$less@PEAVComposable@v1_0@opentimelineio@@@std@@V?$allocator@U?$pair@QEAVComposable@v1_0@opentimelineio@@VTimeRange@2opentime@@@std@@@7@$0A@@std@@@std@@IEAAPEAU?$_Tree_node@U?$pair@QEAVComposable@v1_0@opentimelineio@@VTimeRange@2opentime@@@std@@PEAX@1@PEAU21@AEAU?$pair@QEAVComposable@v1_0@opentimelineio@@VTimeRange@2opentime@@@1@@Z
	??$_Buy_if_not_node@AEAU?$pair@QEAVSerializableObject@v1_0@opentimelineio@@H@std@@@?$_Tree@V?$_Tmap_traits@PEAVSerializableObject@v1_0@opentimelineio@@HU?$less@PEAVSerializableObject@v1_0@opentimelineio@@@std@@V?$allocator@U?$pair@QEAVSerializableObject@v1_0@opentimelineio@@H@std@@@5@$0A@@std@@@std@@IEAAPEAU?$_Tree_node@U?$pair@QEAVSerializableObject@v1_0@opentimelineio@@H@std@@PEAX@1@PEAU21@AEAU?$pair@QEAVSerializableObject@v1_0@opentimelineio@@H@1@@Z
	??$_Buy_if_not_node@AEAU?$pair@QEAVSerializableObject@v1_0@opentimelineio@@VAnyDictionary@23@@std@@@?$_Tree@V?$_Tmap_traits@PEAVSerializableObject@v1_0@opentimelineio@@VAnyDictionary@23@U?$less@PEAVSerializableObject@v1_0@opentimelineio@@@std@@V?$allocator@U?$pair@QEAVSerializableObject@v1_0@opentimelineio@@VAnyDictionary@23@@std@@@6@$0A@@std@@@std@@IEAAPEAU?$_Tree_node@U?$pair@QEAVSerializableObject@v1_0@opentimelineio@@VAnyDictionary@23@@std@@PEAX@1@PEAU21@AEAU?$pair@QEAVSerializableObject@v1_0@opentimelineio@@VAnyDictionary@23@@1@@Z
	??$_Buy_if_not_node@AEAU?$pair@QEAVTrack@v1_0@opentimelineio@@V?$map@PEAVComposable@v1_0@opentimelineio@@VTimeRange@2opentime@@U?$less@PEAVComposable@v1_0@opentimelineio@@@std@@V?$allocator@U?$pair@QEAVComposable@v1_0@opentimelineio@@VTimeRange@2opentime@@@std@@@7@@std@@@std@@@?$_Tree@V?$_Tmap_traits@PEAVTrack@v1_0@opentimelineio@@V?$map@PEAVComposable@v1_0@opentimelineio@@VTimeRange@2opentime@@U?$less@PEAVComposable@v1_0@opentimelineio@@@std@@V?$allocator@U?$pair@QEAVComposable@v1_0@opentimelineio@@VTimeRange@2opentime@@@std@@@7@@std@@U?$less@PEAVTrack@v1_0@opentimelineio@@@5@V?$allocator@U?$pair@QEAVTrack@v1_0@opentimelineio@@V?$map@PEAVComposable@v1_0@opentimelineio@@VTimeRange@2opentime@@U?$less@PEAVComposable@v1_0@opentimelineio@@@std@@V?$allocator@U?$pair@QEAVComposable@v1_0@opentimelineio@@VTimeRange@2opentime@@@std@@@7@@std@@@std@@@5@$0A@@std@@@std@@IEAAPEAU?$_Tree_node@U?$pair@QEAVTrack@v1_0@opentimelineio@@V?$map@PEAVComposable@v1_0@opentimelineio@@VTimeRange@2opentime@@U?$less@PEAVComposable@v1_0@opentimelineio@@@std@@V?$allocator@U?$pair@QEAVComposable@v1_0@opentimelineio@@VTimeRange@2opentime@@@std@@@7@@std@@@std@@PEAX@1@PEAU21@AEAU?$pair@QEAVTrack@v1_0@opentimelineio@@V?$map@PEAVComposable@v1_0@opentimelineio@@VTimeRange@2opentime@@U?$less@PEAVComposable@v1_0@opentimelineio@@@std@@V?$allocator@U?$pair@QEAVComposable@v1_0@opentimelineio@@VTimeRange@2opentime@@@std@@@7@@std@@@1@@Z
	??$_Buy_if_not_node@AEAU?$pair@QEBVSerializableObject@v1_0@opentimelineio@@V?$basic_string@DU?$char_traits@D@std@@V?$allocator@D@2@@std@@@std@@@?$_Tree@V?$_Tmap_traits@PEBVSerializableObject@v1_0@opentimelineio@@V?$basic_string@DU?$char_traits@D@std@@V?$allocator@D@2@@std@@U?$less@PEBVSerializableObject@v1_0@opentimelineio@@@5@V?$allocator@U?$pair@QEBVSerializableObject@v1_0@opentimelineio@@V?$basic_string@DU?$char_traits@D@std@@V?$allocator@D@2@@std@@@std@@@5@$0A@@std@@@std@@IEAAPEAU?$_Tree_node@U?$pair@QEBVSerializableObject@v1_0@opentimelineio@@V?$basic_string@DU?$char_traits@D@std@@V?$allocator@D@2@@std@@@std@@PEAX@1@PEAU21@AEAU?$pair@QEBVSerializableObject@v1_0@opentimelineio@@V?$basic_string@DU?$char_traits@D@std@@V?$allocator@D@2@@std@@@1@@Z
	??$_Buy_if_not_node@AEAU?$pair@QEBVtype_info@@V?$function@$$A6AXAEBVany@linb@@@Z@std@@@std@@@?$_Tree@V?$_Tmap_traits@PEBVtype_info@@V?$function@$$A6AXAEBVany@linb@@@Z@std@@U?$less@PEBVtype_info@@@3@V?$allocator@U?$pair@QEBVtype_info@@V?$function@$$A6AXAEBVany@linb@@@Z@std@@@std@@@3@$0A@@std@@@std@@IEAAPEAU?$_Tree_node@U?$pair@QEBVtype_info@@V?$function@$$A6AXAEBVany@linb@@@Z@std@@@std@@PEAX@1@PEAU21@AEAU?$pair@QEBVtype_info@@V?$function@$$A6AXAEBVany@linb@@@Z@std@@@1@@Z
	??$_Buy_if_not_node@AEAU?$pair@QEBVtype_info@@V?$function@$$A6A_NAEBVany@linb@@0@Z@std@@@std@@@?$_Tree@V?$_Tmap_traits@PEBVtype_info@@V?$function@$$A6A_NAEBVany@linb@@0@Z@std@@U?$less@PEBVtype_info@@@3@V?$allocator@U?$pair@QEBVtype_info@@V?$function@$$A6A_NAEBVany@linb@@0@Z@std@@@std@@@3@$0A@@std@@@std@@IEAAPEAU?$_Tree_node@U?$pair@QEBVtype_info@@V?$function@$$A6A_NAEBVany@linb@@0@Z@std@@@std@@PEAX@1@PEAU21@AEAU?$pair@QEBVtype_info@@V?$function@$$A6A_NAEBVany@linb@@0@Z@std@@@1@@Z
	??$_Buy_if_not_node@AEBQEAVComposable@v1_0@opentimelineio@@@?$_Tree@V?$_Tset_traits@PEAVComposable@v1_0@opentimelineio@@U?$less@PEAVComposable@v1_0@opentimelineio@@@std@@V?$allocator@PEAVComposable@v1_0@opentimelineio@@@5@$0A@@std@@@std@@IEAAPEAU?$_Tree_node@PEAVComposable@v1_0@opentimelineio@@PEAX@1@U_Not_a_node_tag@1@AEBQEAVComposable@v1_0@opentimelineio@@@Z
	??$_Buy_if_not_node@AEBQEBVComposition@v1_0@opentimelineio@@@?$_Tree@V?$_Tset_traits@PEBVComposition@v1_0@opentimelineio@@U?$less@PEBVComposition@v1_0@opentimelineio@@@std@@V?$allocator@PEBVComposition@v1_0@opentimelineio@@@5@$0A@@std@@@std@@IEAAPEAU?$_Tree_node@PEBVComposition@v1_0@opentimelineio@@PEAX@1@U_Not_a_node_tag@1@AEBQEBVComposition@v1_0@opentimelineio@@@Z
	??$_Buynode@AEAPEAVSerializableObject@v1_0@opentimelineio@@VAnyDictionary@23@@?$_Tree_comp_alloc@V?$_Tmap_traits@PEAVSerializableObject@v1_0@opentimelineio@@VAnyDictionary@23@U?$less@PEAVSerializableObject@v1_0@opentimelineio@@@std@@V?$allocator@U?$pair@QEAVSerializableObject@v1_0@opentimelineio@@VAnyDictionary@23@@std@@@6@$0A@@std@@@std@@QEAAPEAU?$_Tree_node@U?$pair@QEAVSerializableObject@v1_0@opentimelineio@@VAnyDictionary@23@@std@@PEAX@1@AEAPEAVSerializableObject@v1_0@opentimelineio@@$$QEAVAnyDictionary@45@@Z
	??$_Buynode@AEAPEAVTrack@v1_0@opentimelineio@@V?$map@PEAVComposable@v1_0@opentimelineio@@VTimeRange@2opentime@@U?$less@PEAVComposable@v1_0@opentimelineio@@@std@@V?$allocator@U?$pair@QEAVComposable@v1_0@opentimelineio@@VTimeRange@2opentime@@@std@@@7@@std@@@?$_Tree_comp_alloc@V?$_Tmap_traits@PEAVTrack@v1_0@opentimelineio@@V?$map@PEAVComposable@v1_0@opentimelineio@@VTimeRange@2opentime@@U?$less@PEAVComposable@v1_0@opentimelineio@@@std@@V?$allocator@U?$pair@QEAVComposable@v1_0@opentimelineio@@VTimeRange@2opentime@@@std@@@7@@std@@U?$less@PEAVTrack@v1_0@opentimelineio@@@5@V?$allocator@U?$pair@QEAVTrack@v1_0@opentimelineio@@V?$map@PEAVComposable@v1_0@opentimelineio@@VTimeRange@2opentime@@U?$less@PEAVComposable@v1_0@opentimelineio@@@std@@V?$allocator@U?$pair@QEAVComposable@v1_0@opentimelineio@@VTimeRange@2opentime@@@std@@@7@@std@@@std@@@5@$0A@@std@@@std@@QEAAPEAU?$_Tree_node@U?$pair@QEAVTrack@v1_0@opentimelineio@@V?$map@PEAVComposable@v1_0@opentimelineio@@VTimeRange@2opentime@@U?$less@PEAVComposable@v1_0@opentimelineio@@@std@@V?$allocator@U?$pair@QEAVComposable@v1_0@opentimelineio@@VTimeRange@2opentime@@@std@@@7@@std@@@std@@PEAX@1@AEAPEAVTrack@v1_0@opentimelineio@@$$QEAV?$map@PEAVComposable@v1_0@opentimelineio@@VTimeRange@2opentime@@U?$less@PEAVComposable@v1_0@opentimelineio@@@std@@V?$allocator@U?$pair@QEAVComposable@v1_0@opentimelineio@@VTimeRange@2opentime@@@std@@@7@@1@@Z
	??$_Buynode@AEAU?$pair@$$CBV?$basic_string@DU?$char_traits@D@std@@V?$allocator@D@2@@std@@Vany@linb@@@std@@@?$_Tree_comp_alloc@V?$_Tmap_traits@V?$basic_string@DU?$char_traits@D@std@@V?$allocator@D@2@@std@@Vany@linb@@U?$less@V?$basic_string@DU?$char_traits@D@std@@V?$allocator@D@2@@std@@@2@V?$allocator@U?$pair@$$CBV?$basic_string@DU?$char_traits@D@std@@V?$allocator@D@2@@std@@Vany@linb@@@std@@@2@$0A@@std@@@std@@QEAAPEAU?$_Tree_node@U?$pair@$$CBV?$basic_string@DU?$char_traits@D@std@@V?$allocator@D@2@@std@@Vany@linb@@@std@@PEAX@1@AEAU?$pair@$$CBV?$basic_string@DU?$char_traits@D@std@@V?$allocator@D@2@@std@@Vany@linb@@@1@@Z
	??$_Buynode@AEAV?$basic_string@DU?$char_traits@D@std@@V?$allocator@D@2@@std@@AEAVany@linb@@@?$_Tree_comp_alloc@V?$_Tmap_traits@V?$basic_string@DU?$char_traits@D@std@@V?$allocator@D@2@@std@@Vany@linb@@U?$less@V?$basic_string@DU?$char_traits@D@std@@V?$allocator@D@2@@std@@@2@V?$allocator@U?$pair@$$CBV?$basic_string@DU?$char_traits@D@std@@V?$allocator@D@2@@std@@Vany@linb@@@std@@@2@$0A@@std@@@std@@QEAAPEAU?$_Tree_node@U?$pair@$$CBV?$basic_string@DU?$char_traits@D@std@@V?$allocator@D@2@@std@@Vany@linb@@@std@@PEAX@1@AEAV?$basic_string@DU?$char_traits@D@std@@V?$allocator@D@2@@1@AEAVany@linb@@@Z
	??$_Buynode@AEBQEAVComposable@v1_0@opentimelineio@@@?$_Tree_comp_alloc@V?$_Tset_traits@PEAVComposable@v1_0@opentimelineio@@U?$less@PEAVComposable@v1_0@opentimelineio@@@std@@V?$allocator@PEAVComposable@v1_0@opentimelineio@@@5@$0A@@std@@@std@@QEAAPEAU?$_Tree_node@PEAVComposable@v1_0@opentimelineio@@PEAX@1@AEBQEAVComposable@v1_0@opentimelineio@@@Z
	??$_Buynode@AEBQEBVComposition@v1_0@opentimelineio@@@?$_Tree_comp_alloc@V?$_Tset_traits@PEBVComposition@v1_0@opentimelineio@@U?$less@PEBVComposition@v1_0@opentimelineio@@@std@@V?$allocator@PEBVComposition@v1_0@opentimelineio@@@5@$0A@@std@@@std@@QEAAPEAU?$_Tree_node@PEBVComposition@v1_0@opentimelineio@@PEAX@1@AEBQEBVComposition@v1_0@opentimelineio@@@Z
	??$_Buynode@AEBUpiecewise_construct_t@std@@V?$tuple@$$QEAPEAVComposable@v1_0@opentimelineio@@@2@V?$tuple@$$V@2@@?$_Tree_comp_alloc@V?$_Tmap_traits@PEAVComposable@v1_0@opentimelineio@@VTimeRange@2opentime@@U?$less@PEAVComposable@v1_0@opentimelineio@@@std@@V?$allocator@U?$pair@QEAVComposable@v1_0@opentimelineio@@VTimeRange@2opentime@@@std@@@7@$0A@@std@@@std@@QEAAPEAU?$_Tree_node@U?$pair@QEAVComposable@v1_0@opentimelineio@@VTimeRange@2opentime@@@std@@PEAX@1@AEBUpiecewise_construct_t@1@$$QEAV?$tuple@$$QEAPEAVComposable@v1_0@opentimelineio@@@1@$$QEAV?$tuple@$$V@1@@Z
	??$_Buynode@AEBUpiecewise_construct_t@std@@V?$tuple@$$QEAPEBVtype_info@@@2@V?$tuple@$$V@2@@?$_Tree_comp_alloc@V?$_Tmap_traits@PEBVtype_info@@V?$function@$$A6AXAEBVany@linb@@@Z@std@@U?$less@PEBVtype_info@@@3@V?$allocator@U?$pair@QEBVtype_info@@V?$function@$$A6AXAEBVany@linb@@@Z@std@@@std@@@3@$0A@@std@@@std@@QEAAPEAU?$_Tree_node@U?$pair@QEBVtype_info@@V?$function@$$A6AXAEBVany@linb@@@Z@std@@@std@@PEAX@1@AEBUpiecewise_construct_t@1@$$QEAV?$tuple@$$QEAPEBVtype_info@@@1@$$QEAV?$tuple@$$V@1@@Z
	??$_Buynode@AEBUpiecewise_construct_t@std@@V?$tuple@$$QEAPEBVtype_info@@@2@V?$tuple@$$V@2@@?$_Tree_comp_alloc@V?$_Tmap_traits@PEBVtype_info@@V?$function@$$A6A_NAEBVany@linb@@0@Z@std@@U?$less@PEBVtype_info@@@3@V?$allocator@U?$pair@QEBVtype_info@@V?$function@$$A6A_NAEBVany@linb@@0@Z@std@@@std@@@3@$0A@@std@@@std@@QEAAPEAU?$_Tree_node@U?$pair@QEBVtype_info@@V?$function@$$A6A_NAEBVany@linb@@0@Z@std@@@std@@PEAX@1@AEBUpiecewise_construct_t@1@$$QEAV?$tuple@$$QEAPEBVtype_info@@@1@$$QEAV?$tuple@$$V@1@@Z
	??$_Buynode@AEBUpiecewise_construct_t@std@@V?$tuple@$$QEAV?$basic_string@DU?$char_traits@D@std@@V?$allocator@D@2@@std@@@2@V?$tuple@$$V@2@@?$_Tree_comp_alloc@V?$_Tmap_traits@V?$basic_string@DU?$char_traits@D@std@@V?$allocator@D@2@@std@@PEAV_TypeRecord@TypeRegistry@v1_0@opentimelineio@@U?$less@V?$basic_string@DU?$char_traits@D@std@@V?$allocator@D@2@@std@@@2@V?$allocator@U?$pair@$$CBV?$basic_string@DU?$char_traits@D@std@@V?$allocator@D@2@@std@@PEAV_TypeRecord@TypeRegistry@v1_0@opentimelineio@@@std@@@2@$0A@@std@@@std@@QEAAPEAU?$_Tree_node@U?$pair@$$CBV?$basic_string@DU?$char_traits@D@std@@V?$allocator@D@2@@std@@PEAV_TypeRecord@TypeRegistry@v1_0@opentimelineio@@@std@@PEAX@1@AEBUpiecewise_construct_t@1@$$QEAV?$tuple@$$QEAV?$basic_string@DU?$char_traits@D@std@@V?$allocator@D@2@@std@@@1@$$QEAV?$tuple@$$V@1@@Z
	??$_Buynode@AEBUpiecewise_construct_t@std@@V?$tuple@$$QEAV?$basic_string@DU?$char_traits@D@std@@V?$allocator@D@2@@std@@@2@V?$tuple@$$V@2@@?$_Tree_comp_alloc@V?$_Tmap_traits@V?$basic_string@DU?$char_traits@D@std@@V?$allocator@D@2@@std@@V?$function@$$A6AXAEBVany@linb@@@Z@2@U?$less@V?$basic_string@DU?$char_traits@D@std@@V?$allocator@D@2@@std@@@2@V?$allocator@U?$pair@$$CBV?$basic_string@DU?$char_traits@D@std@@V?$allocator@D@2@@std@@V?$function@$$A6AXAEBVany@linb@@@Z@2@@std@@@2@$0A@@std@@@std@@QEAAPEAU?$_Tree_node@U?$pair@$$CBV?$basic_string@DU?$char_traits@D@std@@V?$allocator@D@2@@std@@V?$function@$$A6AXAEBVany@linb@@@Z@2@@std@@PEAX@1@AEBUpiecewise_construct_t@1@$$QEAV?$tuple@$$QEAV?$basic_string@DU?$char_traits@D@std@@V?$allocator@D@2@@std@@@1@$$QEAV?$tuple@$$V@1@@Z
	??$_Buynode@AEBUpiecewise_construct_t@std@@V?$tuple@$$QEAV?$basic_string@DU?$char_traits@D@std@@V?$allocator@D@2@@std@@@2@V?$tuple@$$V@2@@?$_Tree_comp_alloc@V?$_Tmap_traits@V?$basic_string@DU?$char_traits@D@std@@V?$allocator@D@2@@std@@Vany@linb@@U?$less@V?$basic_string@DU?$char_traits@D@std@@V?$allocator@D@2@@std@@@2@V?$allocator@U?$pair@$$CBV?$basic_string@DU?$char_traits@D@std@@V?$allocator@D@2@@std@@Vany@linb@@@std@@@2@$0A@@std@@@std@@QEAAPEAU?$_Tree_node@U?$pair@$$CBV?$basic_string@DU?$char_traits@D@std@@V?$allocator@D@2@@std@@Vany@linb@@@std@@PEAX@1@AEBUpiecewise_construct_t@1@$$QEAV?$tuple@$$QEAV?$basic_string@DU?$char_traits@D@std@@V?$allocator@D@2@@std@@@1@$$QEAV?$tuple@$$V@1@@Z
	??$_Buynode@AEBUpiecewise_construct_t@std@@V?$tuple@AEBH@2@V?$tuple@$$V@2@@?$_Tree_comp_alloc@V?$_Tmap_traits@HV?$function@$$A6AXPEAVAnyDictionary@v1_0@opentimelineio@@@Z@std@@U?$less@H@2@V?$allocator@U?$pair@$$CBHV?$function@$$A6AXPEAVAnyDictionary@v1_0@opentimelineio@@@Z@std@@@std@@@2@$0A@@std@@@std@@QEAAPEAU?$_Tree_node@U?$pair@$$CBHV?$function@$$A6AXPEAVAnyDictionary@v1_0@opentimelineio@@@Z@std@@@std@@PEAX@1@AEBUpiecewise_construct_t@1@$$QEAV?$tuple@AEBH@1@$$QEAV?$tuple@$$V@1@@Z
	??$_Buynode@AEBUpiecewise_construct_t@std@@V?$tuple@AEBQEAVComposable@v1_0@opentimelineio@@@2@V?$tuple@$$V@2@@?$_Tree_comp_alloc@V?$_Tmap_traits@PEAVComposable@v1_0@opentimelineio@@VTimeRange@2opentime@@U?$less@PEAVComposable@v1_0@opentimelineio@@@std@@V?$allocator@U?$pair@QEAVComposable@v1_0@opentimelineio@@VTimeRange@2opentime@@@std@@@7@$0A@@std@@@std@@QEAAPEAU?$_Tree_node@U?$pair@QEAVComposable@v1_0@opentimelineio@@VTimeRange@2opentime@@@std@@PEAX@1@AEBUpiecewise_construct_t@1@$$QEAV?$tuple@AEBQEAVComposable@v1_0@opentimelineio@@@1@$$QEAV?$tuple@$$V@1@@Z
	??$_Buynode@AEBUpiecewise_construct_t@std@@V?$tuple@AEBQEAVSerializableObject@v1_0@opentimelineio@@@2@V?$tuple@$$V@2@@?$_Tree_comp_alloc@V?$_Tmap_traits@PEAVSerializableObject@v1_0@opentimelineio@@HU?$less@PEAVSerializableObject@v1_0@opentimelineio@@@std@@V?$allocator@U?$pair@QEAVSerializableObject@v1_0@opentimelineio@@H@std@@@5@$0A@@std@@@std@@QEAAPEAU?$_Tree_node@U?$pair@QEAVSerializableObject@v1_0@opentimelineio@@H@std@@PEAX@1@AEBUpiecewise_construct_t@1@$$QEAV?$tuple@AEBQEAVSerializableObject@v1_0@opentimelineio@@@1@$$QEAV?$tuple@$$V@1@@Z
	??$_Buynode@AEBUpiecewise_construct_t@std@@V?$tuple@AEBQEBVSerializableObject@v1_0@opentimelineio@@@2@V?$tuple@$$V@2@@?$_Tree_comp_alloc@V?$_Tmap_traits@PEBVSerializableObject@v1_0@opentimelineio@@V?$basic_string@DU?$char_traits@D@std@@V?$allocator@D@2@@std@@U?$less@PEBVSerializableObject@v1_0@opentimelineio@@@5@V?$allocator@U?$pair@QEBVSerializableObject@v1_0@opentimelineio@@V?$basic_string@DU?$char_traits@D@std@@V?$allocator@D@2@@std@@@std@@@5@$0A@@std@@@std@@QEAAPEAU?$_Tree_node@U?$pair@QEBVSerializableObject@v1_0@opentimelineio@@V?$basic_string@DU?$char_traits@D@std@@V?$allocator@D@2@@std@@@std@@PEAX@1@AEBUpiecewise_construct_t@1@$$QEAV?$tuple@AEBQEBVSerializableObject@v1_0@opentimelineio@@@1@$$QEAV?$tuple@$$V@1@@Z
	??$_Buynode@AEBUpiecewise_construct_t@std@@V?$tuple@AEBV?$basic_string@DU?$char_traits@D@std@@V?$allocator@D@2@@std@@@2@V?$tuple@$$V@2@@?$_Tree_comp_alloc@V?$_Tmap_traits@V?$basic_string@DU?$char_traits@D@std@@V?$allocator@D@2@@std@@HU?$less@V?$basic_string@DU?$char_traits@D@std@@V?$allocator@D@2@@std@@@2@V?$allocator@U?$pair@$$CBV?$basic_string@DU?$char_traits@D@std@@V?$allocator@D@2@@std@@H@std@@@2@$0A@@std@@@std@@QEAAPEAU?$_Tree_node@U?$pair@$$CBV?$basic_string@DU?$char_traits@D@std@@V?$allocator@D@2@@std@@H@std@@PEAX@1@AEBUpiecewise_construct_t@1@$$QEAV?$tuple@AEBV?$basic_string@DU?$char_traits@D@std@@V?$allocator@D@2@@std@@@1@$$QEAV?$tuple@$$V@1@@Z
	??$_Buynode@AEBUpiecewise_construct_t@std@@V?$tuple@AEBV?$basic_string@DU?$char_traits@D@std@@V?$allocator@D@2@@std@@@2@V?$tuple@$$V@2@@?$_Tree_comp_alloc@V?$_Tmap_traits@V?$basic_string@DU?$char_traits@D@std@@V?$allocator@D@2@@std@@PEAVSerializableObject@v1_0@opentimelineio@@U?$less@V?$basic_string@DU?$char_traits@D@std@@V?$allocator@D@2@@std@@@2@V?$allocator@U?$pair@$$CBV?$basic_string@DU?$char_traits@D@std@@V?$allocator@D@2@@std@@PEAVSerializableObject@v1_0@opentimelineio@@@std@@@2@$0A@@std@@@std@@QEAAPEAU?$_Tree_node@U?$pair@$$CBV?$basic_string@DU?$char_traits@D@std@@V?$allocator@D@2@@std@@PEAVSerializableObject@v1_0@opentimelineio@@@std@@PEAX@1@AEBUpiecewise_construct_t@1@$$QEAV?$tuple@AEBV?$basic_string@DU?$char_traits@D@std@@V?$allocator@D@2@@std@@@1@$$QEAV?$tuple@$$V@1@@Z
	??$_Buynode@AEBUpiecewise_construct_t@std@@V?$tuple@AEBV?$basic_string@DU?$char_traits@D@std@@V?$allocator@D@2@@std@@@2@V?$tuple@$$V@2@@?$_Tree_comp_alloc@V?$_Tmap_traits@V?$basic_string@DU?$char_traits@D@std@@V?$allocator@D@2@@std@@PEAV_TypeRecord@TypeRegistry@v1_0@opentimelineio@@U?$less@V?$basic_string@DU?$char_traits@D@std@@V?$allocator@D@2@@std@@@2@V?$allocator@U?$pair@$$CBV?$basic_string@DU?$char_traits@D@std@@V?$allocator@D@2@@std@@PEAV_TypeRecord@TypeRegistry@v1_0@opentimelineio@@@std@@@2@$0A@@std@@@std@@QEAAPEAU?$_Tree_node@U?$pair@$$CBV?$basic_string@DU?$char_traits@D@std@@V?$allocator@D@2@@std@@PEAV_TypeRecord@TypeRegistry@v1_0@opentimelineio@@@std@@PEAX@1@AEBUpiecewise_construct_t@1@$$QEAV?$tuple@AEBV?$basic_string@DU?$char_traits@D@std@@V?$allocator@D@2@@std@@@1@$$QEAV?$tuple@$$V@1@@Z
	??$_Buynode@AEBV?$basic_string@DU?$char_traits@D@std@@V?$allocator@D@2@@std@@Vany@linb@@@?$_Tree_comp_alloc@V?$_Tmap_traits@V?$basic_string@DU?$char_traits@D@std@@V?$allocator@D@2@@std@@Vany@linb@@U?$less@V?$basic_string@DU?$char_traits@D@std@@V?$allocator@D@2@@std@@@2@V?$allocator@U?$pair@$$CBV?$basic_string@DU?$char_traits@D@std@@V?$allocator@D@2@@std@@Vany@linb@@@std@@@2@$0A@@std@@@std@@QEAAPEAU?$_Tree_node@U?$pair@$$CBV?$basic_string@DU?$char_traits@D@std@@V?$allocator@D@2@@std@@Vany@linb@@@std@@PEAX@1@AEBV?$basic_string@DU?$char_traits@D@std@@V?$allocator@D@2@@1@$$QEAVany@linb@@@Z
	??$_Call@AEAP6A_NAEBVany@linb@@0@ZAEBV12@AEBV12@@?$_Invoker_ret@_N$0A@@std@@SA_NAEAP6A_NAEBVany@linb@@0@Z00@Z
	??$_Call@AEAP6A_NAEBVany@linb@@0@ZAEBV12@AEBV12@@_Invoker_functor@std@@SA_NAEAP6A_NAEBVany@linb@@0@Z00@Z
	??$_Call@AEAP8?$CursorStreamWrapper@U?$GenericStringStream@U?$UTF8@D@OTIO_rapidjson@@@OTIO_rapidjson@@U?$UTF8@D@2@@OTIO_rapidjson@@EBA_KXZAEAPEAV12@@?$_Invoker_ret@U_Unforced@std@@$0A@@std@@SA_KAEAP8?$CursorStreamWrapper@U?$GenericStringStream@U?$UTF8@D@OTIO_rapidjson@@@OTIO_rapidjson@@U?$UTF8@D@2@@OTIO_rapidjson@@EBA_KXZAEAPEAV23@@Z
	??$_Call@AEAP8?$CursorStreamWrapper@VFileReadStream@OTIO_rapidjson@@U?$UTF8@D@2@@OTIO_rapidjson@@EBA_KXZAEAPEAV12@@?$_Invoker_ret@U_Unforced@std@@$0A@@std@@SA_KAEAP8?$CursorStreamWrapper@VFileReadStream@OTIO_rapidjson@@U?$UTF8@D@2@@OTIO_rapidjson@@EBA_KXZAEAPEAV23@@Z
	??$_Call@AEAP8Encoder@v1_0@opentimelineio@@EAAXAEBUErrorStatus@23@@ZAEAPEAVCloningEncoder@23@AEBU423@@?$_Invoker_ret@U_Unforced@std@@$0A@@std@@SAXAEAP8Encoder@v1_0@opentimelineio@@EAAXAEBUErrorStatus@34@@ZAEAPEAVCloningEncoder@34@0@Z
	??$_Call@AEAP8JSONDecoder@v1_0@opentimelineio@@EAAXAEBUErrorStatus@23@@ZAEAPEAV123@AEBU423@@?$_Invoker_ret@U_Unforced@std@@$0A@@std@@SAXAEAP8JSONDecoder@v1_0@opentimelineio@@EAAXAEBUErrorStatus@34@@ZAEAPEAV234@0@Z
	??$_Call@AEAV<lambda_0d80f6a868f8b36a1d5f68283412da7e>@@$$V@_Invoker_functor@std@@SAPEAVSerializableObject@v1_0@opentimelineio@@AEAV<lambda_0d80f6a868f8b36a1d5f68283412da7e>@@@Z
	??$_Call@AEAV<lambda_0d80f6a868f8b36a1d5f68283412da7e>@@@?$_Invoker_ret@PEAVSerializableObject@v1_0@opentimelineio@@$0A@@std@@SAPEAVSerializableObject@v1_0@opentimelineio@@AEAV<lambda_0d80f6a868f8b36a1d5f68283412da7e>@@@Z
	??$_Call@AEAV<lambda_27988cd41ae6a4288cc8caa9931f6267>@@$$V@_Invoker_functor@std@@SAPEAVSerializableObject@v1_0@opentimelineio@@AEAV<lambda_27988cd41ae6a4288cc8caa9931f6267>@@@Z
	??$_Call@AEAV<lambda_27988cd41ae6a4288cc8caa9931f6267>@@@?$_Invoker_ret@PEAVSerializableObject@v1_0@opentimelineio@@$0A@@std@@SAPEAVSerializableObject@v1_0@opentimelineio@@AEAV<lambda_27988cd41ae6a4288cc8caa9931f6267>@@@Z
	??$_Call@AEAV<lambda_3732206c6b8af39d0d8542d4c00085cb>@@$$V@_Invoker_functor@std@@SAPEAVSerializableObject@v1_0@opentimelineio@@AEAV<lambda_3732206c6b8af39d0d8542d4c00085cb>@@@Z
	??$_Call@AEAV<lambda_3732206c6b8af39d0d8542d4c00085cb>@@@?$_Invoker_ret@PEAVSerializableObject@v1_0@opentimelineio@@$0A@@std@@SAPEAVSerializableObject@v1_0@opentimelineio@@AEAV<lambda_3732206c6b8af39d0d8542d4c00085cb>@@@Z
	??$_Call@AEAV<lambda_3a755e0d8b19c3b265999c93c407e624>@@$$V@_Invoker_functor@std@@SAPEAVSerializableObject@v1_0@opentimelineio@@AEAV<lambda_3a755e0d8b19c3b265999c93c407e624>@@@Z
	??$_Call@AEAV<lambda_3a755e0d8b19c3b265999c93c407e624>@@@?$_Invoker_ret@PEAVSerializableObject@v1_0@opentimelineio@@$0A@@std@@SAPEAVSerializableObject@v1_0@opentimelineio@@AEAV<lambda_3a755e0d8b19c3b265999c93c407e624>@@@Z
	??$_Call@AEAV<lambda_5ddccacd3f77002255f4016c725c7a55>@@$$V@_Invoker_functor@std@@SAPEAVSerializableObject@v1_0@opentimelineio@@AEAV<lambda_5ddccacd3f77002255f4016c725c7a55>@@@Z
	??$_Call@AEAV<lambda_5ddccacd3f77002255f4016c725c7a55>@@@?$_Invoker_ret@PEAVSerializableObject@v1_0@opentimelineio@@$0A@@std@@SAPEAVSerializableObject@v1_0@opentimelineio@@AEAV<lambda_5ddccacd3f77002255f4016c725c7a55>@@@Z
	??$_Call@AEAV<lambda_651a8b2021ee43daced787a936a58fab>@@$$V@_Invoker_functor@std@@SAPEAVSerializableObject@v1_0@opentimelineio@@AEAV<lambda_651a8b2021ee43daced787a936a58fab>@@@Z
	??$_Call@AEAV<lambda_651a8b2021ee43daced787a936a58fab>@@@?$_Invoker_ret@PEAVSerializableObject@v1_0@opentimelineio@@$0A@@std@@SAPEAVSerializableObject@v1_0@opentimelineio@@AEAV<lambda_651a8b2021ee43daced787a936a58fab>@@@Z
	??$_Call@AEAV<lambda_69b8fad06dc2ded66a083d5ea69c9992>@@$$V@_Invoker_functor@std@@SAPEAVSerializableObject@v1_0@opentimelineio@@AEAV<lambda_69b8fad06dc2ded66a083d5ea69c9992>@@@Z
	??$_Call@AEAV<lambda_69b8fad06dc2ded66a083d5ea69c9992>@@@?$_Invoker_ret@PEAVSerializableObject@v1_0@opentimelineio@@$0A@@std@@SAPEAVSerializableObject@v1_0@opentimelineio@@AEAV<lambda_69b8fad06dc2ded66a083d5ea69c9992>@@@Z
	??$_Call@AEAV<lambda_6cb77d3f4339c3ac20acbae2e2a5ac3e>@@$$V@_Invoker_functor@std@@SAPEAVSerializableObject@v1_0@opentimelineio@@AEAV<lambda_6cb77d3f4339c3ac20acbae2e2a5ac3e>@@@Z
	??$_Call@AEAV<lambda_6cb77d3f4339c3ac20acbae2e2a5ac3e>@@@?$_Invoker_ret@PEAVSerializableObject@v1_0@opentimelineio@@$0A@@std@@SAPEAVSerializableObject@v1_0@opentimelineio@@AEAV<lambda_6cb77d3f4339c3ac20acbae2e2a5ac3e>@@@Z
	??$_Call@AEAV<lambda_6e89609f4599898de401668f9f0eac24>@@$$V@_Invoker_functor@std@@SAPEAVSerializableObject@v1_0@opentimelineio@@AEAV<lambda_6e89609f4599898de401668f9f0eac24>@@@Z
	??$_Call@AEAV<lambda_6e89609f4599898de401668f9f0eac24>@@@?$_Invoker_ret@PEAVSerializableObject@v1_0@opentimelineio@@$0A@@std@@SAPEAVSerializableObject@v1_0@opentimelineio@@AEAV<lambda_6e89609f4599898de401668f9f0eac24>@@@Z
	??$_Call@AEAV<lambda_75a2f7577643b9f1ad091410b79c5b2c>@@$$V@_Invoker_functor@std@@SAPEAVSerializableObject@v1_0@opentimelineio@@AEAV<lambda_75a2f7577643b9f1ad091410b79c5b2c>@@@Z
	??$_Call@AEAV<lambda_75a2f7577643b9f1ad091410b79c5b2c>@@@?$_Invoker_ret@PEAVSerializableObject@v1_0@opentimelineio@@$0A@@std@@SAPEAVSerializableObject@v1_0@opentimelineio@@AEAV<lambda_75a2f7577643b9f1ad091410b79c5b2c>@@@Z
	??$_Call@AEAV<lambda_76eca87a02e8a96c82650c9895946a93>@@$$V@_Invoker_functor@std@@SAPEAVSerializableObject@v1_0@opentimelineio@@AEAV<lambda_76eca87a02e8a96c82650c9895946a93>@@@Z
	??$_Call@AEAV<lambda_76eca87a02e8a96c82650c9895946a93>@@@?$_Invoker_ret@PEAVSerializableObject@v1_0@opentimelineio@@$0A@@std@@SAPEAVSerializableObject@v1_0@opentimelineio@@AEAV<lambda_76eca87a02e8a96c82650c9895946a93>@@@Z
	??$_Call@AEAV<lambda_7a39e7abaca8030fbed7b6163cf2ac7e>@@$$V@_Invoker_functor@std@@SAPEAVSerializableObject@v1_0@opentimelineio@@AEAV<lambda_7a39e7abaca8030fbed7b6163cf2ac7e>@@@Z
	??$_Call@AEAV<lambda_7a39e7abaca8030fbed7b6163cf2ac7e>@@@?$_Invoker_ret@PEAVSerializableObject@v1_0@opentimelineio@@$0A@@std@@SAPEAVSerializableObject@v1_0@opentimelineio@@AEAV<lambda_7a39e7abaca8030fbed7b6163cf2ac7e>@@@Z
	??$_Call@AEAV<lambda_7ad123fd80a0e795f627b98885f054a9>@@$$V@_Invoker_functor@std@@SAPEAVSerializableObject@v1_0@opentimelineio@@AEAV<lambda_7ad123fd80a0e795f627b98885f054a9>@@@Z
	??$_Call@AEAV<lambda_7ad123fd80a0e795f627b98885f054a9>@@@?$_Invoker_ret@PEAVSerializableObject@v1_0@opentimelineio@@$0A@@std@@SAPEAVSerializableObject@v1_0@opentimelineio@@AEAV<lambda_7ad123fd80a0e795f627b98885f054a9>@@@Z
	??$_Call@AEAV<lambda_9443c01dc1ed3db71386b1d5715e24ee>@@$$V@_Invoker_functor@std@@SAPEAVSerializableObject@v1_0@opentimelineio@@AEAV<lambda_9443c01dc1ed3db71386b1d5715e24ee>@@@Z
	??$_Call@AEAV<lambda_9443c01dc1ed3db71386b1d5715e24ee>@@@?$_Invoker_ret@PEAVSerializableObject@v1_0@opentimelineio@@$0A@@std@@SAPEAVSerializableObject@v1_0@opentimelineio@@AEAV<lambda_9443c01dc1ed3db71386b1d5715e24ee>@@@Z
	??$_Call@AEAV<lambda_c6547d0cfce5b73f7e2493d990f979cb>@@$$V@_Invoker_functor@std@@SAPEAVSerializableObject@v1_0@opentimelineio@@AEAV<lambda_c6547d0cfce5b73f7e2493d990f979cb>@@@Z
	??$_Call@AEAV<lambda_c6547d0cfce5b73f7e2493d990f979cb>@@@?$_Invoker_ret@PEAVSerializableObject@v1_0@opentimelineio@@$0A@@std@@SAPEAVSerializableObject@v1_0@opentimelineio@@AEAV<lambda_c6547d0cfce5b73f7e2493d990f979cb>@@@Z
	??$_Call@AEAV<lambda_c98e3b18bd6b6fb88298302e9b12aff7>@@$$V@_Invoker_functor@std@@SAPEAVSerializableObject@v1_0@opentimelineio@@AEAV<lambda_c98e3b18bd6b6fb88298302e9b12aff7>@@@Z
	??$_Call@AEAV<lambda_c98e3b18bd6b6fb88298302e9b12aff7>@@@?$_Invoker_ret@PEAVSerializableObject@v1_0@opentimelineio@@$0A@@std@@SAPEAVSerializableObject@v1_0@opentimelineio@@AEAV<lambda_c98e3b18bd6b6fb88298302e9b12aff7>@@@Z
	??$_Call@AEAV<lambda_cba0749f46c119f7b63682ec6ce1bdaa>@@$$V@_Invoker_functor@std@@SAPEAVSerializableObject@v1_0@opentimelineio@@AEAV<lambda_cba0749f46c119f7b63682ec6ce1bdaa>@@@Z
	??$_Call@AEAV<lambda_cba0749f46c119f7b63682ec6ce1bdaa>@@@?$_Invoker_ret@PEAVSerializableObject@v1_0@opentimelineio@@$0A@@std@@SAPEAVSerializableObject@v1_0@opentimelineio@@AEAV<lambda_cba0749f46c119f7b63682ec6ce1bdaa>@@@Z
	??$_Call@AEAV<lambda_d2673311fb86753a5af4fed0b679e1fc>@@$$V@_Invoker_functor@std@@SAPEAVSerializableObject@v1_0@opentimelineio@@AEAV<lambda_d2673311fb86753a5af4fed0b679e1fc>@@@Z
	??$_Call@AEAV<lambda_d2673311fb86753a5af4fed0b679e1fc>@@@?$_Invoker_ret@PEAVSerializableObject@v1_0@opentimelineio@@$0A@@std@@SAPEAVSerializableObject@v1_0@opentimelineio@@AEAV<lambda_d2673311fb86753a5af4fed0b679e1fc>@@@Z
	??$_Call@AEAV<lambda_d6bc8737d8bc7e3959c59b9691239ab6>@@$$V@_Invoker_functor@std@@SAPEAVSerializableObject@v1_0@opentimelineio@@AEAV<lambda_d6bc8737d8bc7e3959c59b9691239ab6>@@@Z
	??$_Call@AEAV<lambda_d6bc8737d8bc7e3959c59b9691239ab6>@@@?$_Invoker_ret@PEAVSerializableObject@v1_0@opentimelineio@@$0A@@std@@SAPEAVSerializableObject@v1_0@opentimelineio@@AEAV<lambda_d6bc8737d8bc7e3959c59b9691239ab6>@@@Z
	??$_Call@AEAV<lambda_e777b282161b9f497bc9ea4bd7150aef>@@$$V@_Invoker_functor@std@@SAPEAVSerializableObject@v1_0@opentimelineio@@AEAV<lambda_e777b282161b9f497bc9ea4bd7150aef>@@@Z
	??$_Call@AEAV<lambda_e777b282161b9f497bc9ea4bd7150aef>@@@?$_Invoker_ret@PEAVSerializableObject@v1_0@opentimelineio@@$0A@@std@@SAPEAVSerializableObject@v1_0@opentimelineio@@AEAV<lambda_e777b282161b9f497bc9ea4bd7150aef>@@@Z
	??$_Call@AEAV<lambda_ee5fcd274901b255b1db6ecbe82f8ba7>@@$$V@_Invoker_functor@std@@SAPEAVSerializableObject@v1_0@opentimelineio@@AEAV<lambda_ee5fcd274901b255b1db6ecbe82f8ba7>@@@Z
	??$_Call@AEAV<lambda_ee5fcd274901b255b1db6ecbe82f8ba7>@@@?$_Invoker_ret@PEAVSerializableObject@v1_0@opentimelineio@@$0A@@std@@SAPEAVSerializableObject@v1_0@opentimelineio@@AEAV<lambda_ee5fcd274901b255b1db6ecbe82f8ba7>@@@Z
	??$_Call@AEAV<lambda_fd597aa0b1bb92b7cb8cbd2b41c97086>@@$$V@_Invoker_functor@std@@SAPEAVSerializableObject@v1_0@opentimelineio@@AEAV<lambda_fd597aa0b1bb92b7cb8cbd2b41c97086>@@@Z
	??$_Call@AEAV<lambda_fd597aa0b1bb92b7cb8cbd2b41c97086>@@@?$_Invoker_ret@PEAVSerializableObject@v1_0@opentimelineio@@$0A@@std@@SAPEAVSerializableObject@v1_0@opentimelineio@@AEAV<lambda_fd597aa0b1bb92b7cb8cbd2b41c97086>@@@Z
	??$_Call@AEAV?$_Binder@U_Unforced@std@@P8?$CursorStreamWrapper@U?$GenericStringStream@U?$UTF8@D@OTIO_rapidjson@@@OTIO_rapidjson@@U?$UTF8@D@2@@OTIO_rapidjson@@EBA_KXZPEAV34@@std@@$$V@_Invoker_functor@std@@SA_KAEAV?$_Binder@U_Unforced@std@@P8?$CursorStreamWrapper@U?$GenericStringStream@U?$UTF8@D@OTIO_rapidjson@@@OTIO_rapidjson@@U?$UTF8@D@2@@OTIO_rapidjson@@EBA_KXZPEAV34@@1@@Z
	??$_Call@AEAV?$_Binder@U_Unforced@std@@P8?$CursorStreamWrapper@U?$GenericStringStream@U?$UTF8@D@OTIO_rapidjson@@@OTIO_rapidjson@@U?$UTF8@D@2@@OTIO_rapidjson@@EBA_KXZPEAV34@@std@@@?$_Invoker_ret@_K$0A@@std@@SA_KAEAV?$_Binder@U_Unforced@std@@P8?$CursorStreamWrapper@U?$GenericStringStream@U?$UTF8@D@OTIO_rapidjson@@@OTIO_rapidjson@@U?$UTF8@D@2@@OTIO_rapidjson@@EBA_KXZPEAV34@@1@@Z
	??$_Call@AEAV?$_Binder@U_Unforced@std@@P8?$CursorStreamWrapper@VFileReadStream@OTIO_rapidjson@@U?$UTF8@D@2@@OTIO_rapidjson@@EBA_KXZPEAV34@@std@@$$V@_Invoker_functor@std@@SA_KAEAV?$_Binder@U_Unforced@std@@P8?$CursorStreamWrapper@VFileReadStream@OTIO_rapidjson@@U?$UTF8@D@2@@OTIO_rapidjson@@EBA_KXZPEAV34@@1@@Z
	??$_Call@AEAV?$_Binder@U_Unforced@std@@P8?$CursorStreamWrapper@VFileReadStream@OTIO_rapidjson@@U?$UTF8@D@2@@OTIO_rapidjson@@EBA_KXZPEAV34@@std@@@?$_Invoker_ret@_K$0A@@std@@SA_KAEAV?$_Binder@U_Unforced@std@@P8?$CursorStreamWrapper@VFileReadStream@OTIO_rapidjson@@U?$UTF8@D@2@@OTIO_rapidjson@@EBA_KXZPEAV34@@1@@Z
	??$_Call@AEAV?$_Binder@U_Unforced@std@@P8Encoder@v1_0@opentimelineio@@EAAXAEBUErrorStatus@45@@ZPEAVCloningEncoder@45@AEBU?$_Ph@$00@2@@std@@AEBUErrorStatus@v1_0@opentimelineio@@@?$_Invoker_ret@X$00@std@@SAXAEAV?$_Binder@U_Unforced@std@@P8Encoder@v1_0@opentimelineio@@EAAXAEBUErrorStatus@45@@ZPEAVCloningEncoder@45@AEBU?$_Ph@$00@2@@1@AEBUErrorStatus@v1_0@opentimelineio@@@Z
	??$_Call@AEAV?$_Binder@U_Unforced@std@@P8Encoder@v1_0@opentimelineio@@EAAXAEBUErrorStatus@45@@ZPEAVCloningEncoder@45@AEBU?$_Ph@$00@2@@std@@AEBUErrorStatus@v1_0@opentimelineio@@@_Invoker_functor@std@@SAXAEAV?$_Binder@U_Unforced@std@@P8Encoder@v1_0@opentimelineio@@EAAXAEBUErrorStatus@45@@ZPEAVCloningEncoder@45@AEBU?$_Ph@$00@2@@1@AEBUErrorStatus@v1_0@opentimelineio@@@Z
	??$_Call@AEAV?$_Binder@U_Unforced@std@@P8JSONDecoder@v1_0@opentimelineio@@EAAXAEBUErrorStatus@45@@ZPEAV345@AEBU?$_Ph@$00@2@@std@@AEBUErrorStatus@v1_0@opentimelineio@@@?$_Invoker_ret@X$00@std@@SAXAEAV?$_Binder@U_Unforced@std@@P8JSONDecoder@v1_0@opentimelineio@@EAAXAEBUErrorStatus@45@@ZPEAV345@AEBU?$_Ph@$00@2@@1@AEBUErrorStatus@v1_0@opentimelineio@@@Z
	??$_Call@AEAV?$_Binder@U_Unforced@std@@P8JSONDecoder@v1_0@opentimelineio@@EAAXAEBUErrorStatus@45@@ZPEAV345@AEBU?$_Ph@$00@2@@std@@AEBUErrorStatus@v1_0@opentimelineio@@@_Invoker_functor@std@@SAXAEAV?$_Binder@U_Unforced@std@@P8JSONDecoder@v1_0@opentimelineio@@EAAXAEBUErrorStatus@45@@ZPEAV345@AEBU?$_Ph@$00@2@@1@AEBUErrorStatus@v1_0@opentimelineio@@@Z
	??$_Call@P8?$CursorStreamWrapper@U?$GenericStringStream@U?$UTF8@D@OTIO_rapidjson@@@OTIO_rapidjson@@U?$UTF8@D@2@@OTIO_rapidjson@@EBA_KXZAEAPEAV12@$$V@_Invoker_pmf_pointer@std@@SA_KP8?$CursorStreamWrapper@U?$GenericStringStream@U?$UTF8@D@OTIO_rapidjson@@@OTIO_rapidjson@@U?$UTF8@D@2@@OTIO_rapidjson@@EBA_KXZAEAPEAV23@@Z
	??$_Call@P8?$CursorStreamWrapper@VFileReadStream@OTIO_rapidjson@@U?$UTF8@D@2@@OTIO_rapidjson@@EBA_KXZAEAPEAV12@$$V@_Invoker_pmf_pointer@std@@SA_KP8?$CursorStreamWrapper@VFileReadStream@OTIO_rapidjson@@U?$UTF8@D@2@@OTIO_rapidjson@@EBA_KXZAEAPEAV23@@Z
	??$_Call@P8Encoder@v1_0@opentimelineio@@EAAXAEBUErrorStatus@23@@ZAEAPEAVCloningEncoder@23@AEBU423@@_Invoker_pmf_pointer@std@@SAXP8Encoder@v1_0@opentimelineio@@EAAXAEBUErrorStatus@34@@ZAEAPEAVCloningEncoder@34@0@Z
	??$_Call@P8JSONDecoder@v1_0@opentimelineio@@EAAXAEBUErrorStatus@23@@ZAEAPEAV123@AEBU423@@_Invoker_pmf_pointer@std@@SAXP8JSONDecoder@v1_0@opentimelineio@@EAAXAEBUErrorStatus@34@@ZAEAPEAV234@0@Z
	??$_Call_binder@U_Unforced@std@@$0A@$00P8Encoder@v1_0@opentimelineio@@EAAXAEBUErrorStatus@45@@ZV?$tuple@PEAVCloningEncoder@v1_0@opentimelineio@@U?$_Ph@$00@std@@@2@V?$tuple@AEBUErrorStatus@v1_0@opentimelineio@@@2@@std@@YAXU?$_Invoker_ret@U_Unforced@std@@$0A@@0@U?$integer_sequence@_K$0A@$00@0@AEAP8Encoder@v1_0@opentimelineio@@EAAXAEBUErrorStatus@45@@ZAEAV?$tuple@PEAVCloningEncoder@v1_0@opentimelineio@@U?$_Ph@$00@std@@@0@$$QEAV?$tuple@AEBUErrorStatus@v1_0@opentimelineio@@@0@@Z
	??$_Call_binder@U_Unforced@std@@$0A@$00P8JSONDecoder@v1_0@opentimelineio@@EAAXAEBUErrorStatus@45@@ZV?$tuple@PEAVJSONDecoder@v1_0@opentimelineio@@U?$_Ph@$00@std@@@2@V?$tuple@AEBUErrorStatus@v1_0@opentimelineio@@@2@@std@@YAXU?$_Invoker_ret@U_Unforced@std@@$0A@@0@U?$integer_sequence@_K$0A@$00@0@AEAP8JSONDecoder@v1_0@opentimelineio@@EAAXAEBUErrorStatus@45@@ZAEAV?$tuple@PEAVJSONDecoder@v1_0@opentimelineio@@U?$_Ph@$00@std@@@0@$$QEAV?$tuple@AEBUErrorStatus@v1_0@opentimelineio@@@0@@Z
	??$_Call_binder@U_Unforced@std@@$0A@P8?$CursorStreamWrapper@U?$GenericStringStream@U?$UTF8@D@OTIO_rapidjson@@@OTIO_rapidjson@@U?$UTF8@D@2@@OTIO_rapidjson@@EBA_KXZV?$tuple@PEAV?$CursorStreamWrapper@U?$GenericStringStream@U?$UTF8@D@OTIO_rapidjson@@@OTIO_rapidjson@@U?$UTF8@D@2@@OTIO_rapidjson@@@2@V?$tuple@$$V@2@@std@@YA_KU?$_Invoker_ret@U_Unforced@std@@$0A@@0@U?$integer_sequence@_K$0A@@0@AEAP8?$CursorStreamWrapper@U?$GenericStringStream@U?$UTF8@D@OTIO_rapidjson@@@OTIO_rapidjson@@U?$UTF8@D@2@@OTIO_rapidjson@@EBA_KXZAEAV?$tuple@PEAV?$CursorStreamWrapper@U?$GenericStringStream@U?$UTF8@D@OTIO_rapidjson@@@OTIO_rapidjson@@U?$UTF8@D@2@@OTIO_rapidjson@@@0@$$QEAV?$tuple@$$V@0@@Z
	??$_Call_binder@U_Unforced@std@@$0A@P8?$CursorStreamWrapper@VFileReadStream@OTIO_rapidjson@@U?$UTF8@D@2@@OTIO_rapidjson@@EBA_KXZV?$tuple@PEAV?$CursorStreamWrapper@VFileReadStream@OTIO_rapidjson@@U?$UTF8@D@2@@OTIO_rapidjson@@@2@V?$tuple@$$V@2@@std@@YA_KU?$_Invoker_ret@U_Unforced@std@@$0A@@0@U?$integer_sequence@_K$0A@@0@AEAP8?$CursorStreamWrapper@VFileReadStream@OTIO_rapidjson@@U?$UTF8@D@2@@OTIO_rapidjson@@EBA_KXZAEAV?$tuple@PEAV?$CursorStreamWrapper@VFileReadStream@OTIO_rapidjson@@U?$UTF8@D@2@@OTIO_rapidjson@@@0@$$QEAV?$tuple@$$V@0@@Z
	??$_Convert_size@_K@std@@YA_K_K@Z
	??$_Copy@U_Copy_tag@?$_Tree@V?$_Tmap_traits@V?$basic_string@DU?$char_traits@D@std@@V?$allocator@D@2@@std@@Vany@linb@@U?$less@V?$basic_string@DU?$char_traits@D@std@@V?$allocator@D@2@@std@@@2@V?$allocator@U?$pair@$$CBV?$basic_string@DU?$char_traits@D@std@@V?$allocator@D@2@@std@@Vany@linb@@@std@@@2@$0A@@std@@@std@@@?$_Tree@V?$_Tmap_traits@V?$basic_string@DU?$char_traits@D@std@@V?$allocator@D@2@@std@@Vany@linb@@U?$less@V?$basic_string@DU?$char_traits@D@std@@V?$allocator@D@2@@std@@@2@V?$allocator@U?$pair@$$CBV?$basic_string@DU?$char_traits@D@std@@V?$allocator@D@2@@std@@Vany@linb@@@std@@@2@$0A@@std@@@std@@IEAAXAEBV01@U_Copy_tag@01@@Z
	??$_Copy_memmove@PEAPEAVComposable@v1_0@opentimelineio@@PEAPEAV123@@std@@YAPEAPEAVComposable@v1_0@opentimelineio@@PEAPEAV123@00@Z
	??$_Copy_memmove@PEAPEAVComposition@v1_0@opentimelineio@@PEAPEAV123@@std@@YAPEAPEAVComposition@v1_0@opentimelineio@@PEAPEAV123@00@Z
	??$_Copy_memmove@PEAPEAVTrack@v1_0@opentimelineio@@PEAPEAV123@@std@@YAPEAPEAVTrack@v1_0@opentimelineio@@PEAPEAV123@00@Z
	??$_Copy_memmove@PEBQEAVComposition@v1_0@opentimelineio@@PEAPEAV123@@std@@YAPEAPEAVComposition@v1_0@opentimelineio@@PEBQEAV123@0PEAPEAV123@@Z
	??$_Copy_nodes@U_Copy_tag@?$_Tree@V?$_Tmap_traits@V?$basic_string@DU?$char_traits@D@std@@V?$allocator@D@2@@std@@Vany@linb@@U?$less@V?$basic_string@DU?$char_traits@D@std@@V?$allocator@D@2@@std@@@2@V?$allocator@U?$pair@$$CBV?$basic_string@DU?$char_traits@D@std@@V?$allocator@D@2@@std@@Vany@linb@@@std@@@2@$0A@@std@@@std@@@?$_Tree@V?$_Tmap_traits@V?$basic_string@DU?$char_traits@D@std@@V?$allocator@D@2@@std@@Vany@linb@@U?$less@V?$basic_string@DU?$char_traits@D@std@@V?$allocator@D@2@@std@@@2@V?$allocator@U?$pair@$$CBV?$basic_string@DU?$char_traits@D@std@@V?$allocator@D@2@@std@@Vany@linb@@@std@@@2@$0A@@std@@@std@@IEAAPEAU?$_Tree_node@U?$pair@$$CBV?$basic_string@DU?$char_traits@D@std@@V?$allocator@D@2@@std@@Vany@linb@@@std@@PEAX@1@PEAU21@0U_Copy_tag@01@@Z
	??$_Copy_or_move@U?$pair@$$CBV?$basic_string@DU?$char_traits@D@std@@V?$allocator@D@2@@std@@Vany@linb@@@std@@U?$integral_constant@_N$0A@@2@@?$_Tree@V?$_Tmap_traits@V?$basic_string@DU?$char_traits@D@std@@V?$allocator@D@2@@std@@Vany@linb@@U?$less@V?$basic_string@DU?$char_traits@D@std@@V?$allocator@D@2@@std@@@2@V?$allocator@U?$pair@$$CBV?$basic_string@DU?$char_traits@D@std@@V?$allocator@D@2@@std@@Vany@linb@@@std@@@2@$0A@@std@@@std@@IEAAPEAU?$_Tree_node@U?$pair@$$CBV?$basic_string@DU?$char_traits@D@std@@V?$allocator@D@2@@std@@Vany@linb@@@std@@PEAX@1@AEAU?$pair@$$CBV?$basic_string@DU?$char_traits@D@std@@V?$allocator@D@2@@std@@Vany@linb@@@1@U_Copy_tag@01@U?$integral_constant@_N$0A@@1@@Z
	??$_Copy_unchecked1@PEAVany@linb@@PEAV12@@std@@YAPEAVany@linb@@PEAV12@00U_General_ptr_iterator_tag@0@@Z
	??$_Copy_unchecked@PEAVany@linb@@PEAV12@@std@@YAPEAVany@linb@@PEAV12@00@Z
	??$_Deallocate@$07$0A@@std@@YAXPEAX_K@Z
	??$_Deallocate@$0BA@$0A@@std@@YAXPEAX_K@Z
	??$_Destroy_range1@V?$allocator@PEAVComposable@v1_0@opentimelineio@@@std@@@std@@YAXPEAPEAVComposable@v1_0@opentimelineio@@0AEAV?$allocator@PEAVComposable@v1_0@opentimelineio@@@0@U?$integral_constant@_N$00@0@@Z
	??$_Destroy_range1@V?$allocator@PEAVComposition@v1_0@opentimelineio@@@std@@@std@@YAXPEAPEAVComposition@v1_0@opentimelineio@@0AEAV?$allocator@PEAVComposition@v1_0@opentimelineio@@@0@U?$integral_constant@_N$00@0@@Z
	??$_Destroy_range1@V?$allocator@PEAVEffect@v1_0@opentimelineio@@@std@@@std@@YAXPEAPEAVEffect@v1_0@opentimelineio@@0AEAV?$allocator@PEAVEffect@v1_0@opentimelineio@@@0@U?$integral_constant@_N$00@0@@Z
	??$_Destroy_range1@V?$allocator@PEAVMarker@v1_0@opentimelineio@@@std@@@std@@YAXPEAPEAVMarker@v1_0@opentimelineio@@0AEAV?$allocator@PEAVMarker@v1_0@opentimelineio@@@0@U?$integral_constant@_N$00@0@@Z
	??$_Destroy_range1@V?$allocator@PEAVSerializableObject@v1_0@opentimelineio@@@std@@@std@@YAXPEAPEAVSerializableObject@v1_0@opentimelineio@@0AEAV?$allocator@PEAVSerializableObject@v1_0@opentimelineio@@@0@U?$integral_constant@_N$00@0@@Z
	??$_Destroy_range1@V?$allocator@PEAVTrack@v1_0@opentimelineio@@@std@@@std@@YAXPEAPEAVTrack@v1_0@opentimelineio@@0AEAV?$allocator@PEAVTrack@v1_0@opentimelineio@@@0@U?$integral_constant@_N$00@0@@Z
	??$_Destroy_range1@V?$allocator@U?$Retainer@VComposable@v1_0@opentimelineio@@@SerializableObject@v1_0@opentimelineio@@@std@@@std@@YAXPEAU?$Retainer@VComposable@v1_0@opentimelineio@@@SerializableObject@v1_0@opentimelineio@@0AEAV?$allocator@U?$Retainer@VComposable@v1_0@opentimelineio@@@SerializableObject@v1_0@opentimelineio@@@0@U?$integral_constant@_N$0A@@0@@Z
	??$_Destroy_range1@V?$allocator@U?$Retainer@VEffect@v1_0@opentimelineio@@@SerializableObject@v1_0@opentimelineio@@@std@@@std@@YAXPEAU?$Retainer@VEffect@v1_0@opentimelineio@@@SerializableObject@v1_0@opentimelineio@@0AEAV?$allocator@U?$Retainer@VEffect@v1_0@opentimelineio@@@SerializableObject@v1_0@opentimelineio@@@0@U?$integral_constant@_N$0A@@0@@Z
	??$_Destroy_range1@V?$allocator@U?$Retainer@VMarker@v1_0@opentimelineio@@@SerializableObject@v1_0@opentimelineio@@@std@@@std@@YAXPEAU?$Retainer@VMarker@v1_0@opentimelineio@@@SerializableObject@v1_0@opentimelineio@@0AEAV?$allocator@U?$Retainer@VMarker@v1_0@opentimelineio@@@SerializableObject@v1_0@opentimelineio@@@0@U?$integral_constant@_N$0A@@0@@Z
	??$_Destroy_range1@V?$allocator@U?$Retainer@VSerializableObject@v1_0@opentimelineio@@@SerializableObject@v1_0@opentimelineio@@@std@@@std@@YAXPEAU?$Retainer@VSerializableObject@v1_0@opentimelineio@@@SerializableObject@v1_0@opentimelineio@@0AEAV?$allocator@U?$Retainer@VSerializableObject@v1_0@opentimelineio@@@SerializableObject@v1_0@opentimelineio@@@0@U?$integral_constant@_N$0A@@0@@Z
	??$_Destroy_range1@V?$allocator@U_DictOrArray@CloningEncoder@v1_0@opentimelineio@@@std@@@std@@YAXPEAU_DictOrArray@CloningEncoder@v1_0@opentimelineio@@0AEAV?$allocator@U_DictOrArray@CloningEncoder@v1_0@opentimelineio@@@0@U?$integral_constant@_N$0A@@0@@Z
	??$_Destroy_range1@V?$allocator@U_DictOrArray@JSONDecoder@v1_0@opentimelineio@@@std@@@std@@YAXPEAU_DictOrArray@JSONDecoder@v1_0@opentimelineio@@0AEAV?$allocator@U_DictOrArray@JSONDecoder@v1_0@opentimelineio@@@0@U?$integral_constant@_N$0A@@0@@Z
	??$_Destroy_range1@V?$allocator@Vany@linb@@@std@@@std@@YAXPEAVany@linb@@0AEAV?$allocator@Vany@linb@@@0@U?$integral_constant@_N$0A@@0@@Z
	??$_Destroy_range@V?$allocator@PEAVComposable@v1_0@opentimelineio@@@std@@@std@@YAXPEAPEAVComposable@v1_0@opentimelineio@@0AEAV?$allocator@PEAVComposable@v1_0@opentimelineio@@@0@@Z
	??$_Destroy_range@V?$allocator@PEAVComposition@v1_0@opentimelineio@@@std@@@std@@YAXPEAPEAVComposition@v1_0@opentimelineio@@0AEAV?$allocator@PEAVComposition@v1_0@opentimelineio@@@0@@Z
	??$_Destroy_range@V?$allocator@PEAVEffect@v1_0@opentimelineio@@@std@@@std@@YAXPEAPEAVEffect@v1_0@opentimelineio@@0AEAV?$allocator@PEAVEffect@v1_0@opentimelineio@@@0@@Z
	??$_Destroy_range@V?$allocator@PEAVMarker@v1_0@opentimelineio@@@std@@@std@@YAXPEAPEAVMarker@v1_0@opentimelineio@@0AEAV?$allocator@PEAVMarker@v1_0@opentimelineio@@@0@@Z
	??$_Destroy_range@V?$allocator@PEAVSerializableObject@v1_0@opentimelineio@@@std@@@std@@YAXPEAPEAVSerializableObject@v1_0@opentimelineio@@0AEAV?$allocator@PEAVSerializableObject@v1_0@opentimelineio@@@0@@Z
	??$_Destroy_range@V?$allocator@PEAVTrack@v1_0@opentimelineio@@@std@@@std@@YAXPEAPEAVTrack@v1_0@opentimelineio@@0AEAV?$allocator@PEAVTrack@v1_0@opentimelineio@@@0@@Z
	??$_Destroy_range@V?$allocator@U?$Retainer@VComposable@v1_0@opentimelineio@@@SerializableObject@v1_0@opentimelineio@@@std@@@std@@YAXPEAU?$Retainer@VComposable@v1_0@opentimelineio@@@SerializableObject@v1_0@opentimelineio@@0AEAV?$allocator@U?$Retainer@VComposable@v1_0@opentimelineio@@@SerializableObject@v1_0@opentimelineio@@@0@@Z
	??$_Destroy_range@V?$allocator@U?$Retainer@VEffect@v1_0@opentimelineio@@@SerializableObject@v1_0@opentimelineio@@@std@@@std@@YAXPEAU?$Retainer@VEffect@v1_0@opentimelineio@@@SerializableObject@v1_0@opentimelineio@@0AEAV?$allocator@U?$Retainer@VEffect@v1_0@opentimelineio@@@SerializableObject@v1_0@opentimelineio@@@0@@Z
	??$_Destroy_range@V?$allocator@U?$Retainer@VMarker@v1_0@opentimelineio@@@SerializableObject@v1_0@opentimelineio@@@std@@@std@@YAXPEAU?$Retainer@VMarker@v1_0@opentimelineio@@@SerializableObject@v1_0@opentimelineio@@0AEAV?$allocator@U?$Retainer@VMarker@v1_0@opentimelineio@@@SerializableObject@v1_0@opentimelineio@@@0@@Z
	??$_Destroy_range@V?$allocator@U?$Retainer@VSerializableObject@v1_0@opentimelineio@@@SerializableObject@v1_0@opentimelineio@@@std@@@std@@YAXPEAU?$Retainer@VSerializableObject@v1_0@opentimelineio@@@SerializableObject@v1_0@opentimelineio@@0AEAV?$allocator@U?$Retainer@VSerializableObject@v1_0@opentimelineio@@@SerializableObject@v1_0@opentimelineio@@@0@@Z
	??$_Destroy_range@V?$allocator@U_DictOrArray@CloningEncoder@v1_0@opentimelineio@@@std@@@std@@YAXPEAU_DictOrArray@CloningEncoder@v1_0@opentimelineio@@0AEAV?$allocator@U_DictOrArray@CloningEncoder@v1_0@opentimelineio@@@0@@Z
	??$_Destroy_range@V?$allocator@U_DictOrArray@JSONDecoder@v1_0@opentimelineio@@@std@@@std@@YAXPEAU_DictOrArray@JSONDecoder@v1_0@opentimelineio@@0AEAV?$allocator@U_DictOrArray@JSONDecoder@v1_0@opentimelineio@@@0@@Z
	??$_Destroy_range@V?$allocator@Vany@linb@@@std@@@std@@YAXPEAVany@linb@@0AEAV?$allocator@Vany@linb@@@0@@Z
	??$_Distance1@PEAPEAVSerializableObject@v1_0@opentimelineio@@@std@@YA_JPEAPEAVSerializableObject@v1_0@opentimelineio@@0Urandom_access_iterator_tag@0@@Z
	??$_Distance1@PEAVany@linb@@@std@@YA_JPEAVany@linb@@0Urandom_access_iterator_tag@0@@Z
	??$_Distance1@PEBQEAVComposable@v1_0@opentimelineio@@@std@@YA_JPEBQEAVComposable@v1_0@opentimelineio@@0Urandom_access_iterator_tag@0@@Z
	??$_Distance1@PEBQEAVComposition@v1_0@opentimelineio@@@std@@YA_JPEBQEAVComposition@v1_0@opentimelineio@@0Urandom_access_iterator_tag@0@@Z
	??$_Distance1@PEBQEAVEffect@v1_0@opentimelineio@@@std@@YA_JPEBQEAVEffect@v1_0@opentimelineio@@0Urandom_access_iterator_tag@0@@Z
	??$_Distance1@PEBQEAVMarker@v1_0@opentimelineio@@@std@@YA_JPEBQEAVMarker@v1_0@opentimelineio@@0Urandom_access_iterator_tag@0@@Z
	??$_Distance1@PEBQEAVSerializableObject@v1_0@opentimelineio@@@std@@YA_JPEBQEAVSerializableObject@v1_0@opentimelineio@@0Urandom_access_iterator_tag@0@@Z
	??$_Distance1@PEBU?$Retainer@VComposable@v1_0@opentimelineio@@@SerializableObject@v1_0@opentimelineio@@@std@@YA_JPEBU?$Retainer@VComposable@v1_0@opentimelineio@@@SerializableObject@v1_0@opentimelineio@@0Urandom_access_iterator_tag@0@@Z
	??$_Distance1@V?$_Tree_const_iterator@V?$_Tree_val@U?$_Tree_simple_types@PEAVComposable@v1_0@opentimelineio@@@std@@@std@@@std@@@std@@YA_JV?$_Tree_const_iterator@V?$_Tree_val@U?$_Tree_simple_types@PEAVComposable@v1_0@opentimelineio@@@std@@@std@@@0@0Uinput_iterator_tag@0@@Z
	??$_Distance1@V?$_Tree_const_iterator@V?$_Tree_val@U?$_Tree_simple_types@PEBVComposition@v1_0@opentimelineio@@@std@@@std@@@std@@@std@@YA_JV?$_Tree_const_iterator@V?$_Tree_val@U?$_Tree_simple_types@PEBVComposition@v1_0@opentimelineio@@@std@@@std@@@0@0Uinput_iterator_tag@0@@Z
	??$_Distance1@V?$_Tree_iterator@V?$_Tree_val@U?$_Tree_simple_types@U?$pair@$$CBV?$basic_string@DU?$char_traits@D@std@@V?$allocator@D@2@@std@@Vany@linb@@@std@@@std@@@std@@@std@@@std@@YA_JV?$_Tree_iterator@V?$_Tree_val@U?$_Tree_simple_types@U?$pair@$$CBV?$basic_string@DU?$char_traits@D@std@@V?$allocator@D@2@@std@@Vany@linb@@@std@@@std@@@std@@@0@0Uinput_iterator_tag@0@@Z
	??$_Distance1@V?$_Tree_iterator@V?$_Tree_val@U?$_Tree_simple_types@U?$pair@QEAVTrack@v1_0@opentimelineio@@V?$map@PEAVComposable@v1_0@opentimelineio@@VTimeRange@2opentime@@U?$less@PEAVComposable@v1_0@opentimelineio@@@std@@V?$allocator@U?$pair@QEAVComposable@v1_0@opentimelineio@@VTimeRange@2opentime@@@std@@@7@@std@@@std@@@std@@@std@@@std@@@std@@YA_JV?$_Tree_iterator@V?$_Tree_val@U?$_Tree_simple_types@U?$pair@QEAVTrack@v1_0@opentimelineio@@V?$map@PEAVComposable@v1_0@opentimelineio@@VTimeRange@2opentime@@U?$less@PEAVComposable@v1_0@opentimelineio@@@std@@V?$allocator@U?$pair@QEAVComposable@v1_0@opentimelineio@@VTimeRange@2opentime@@@std@@@7@@std@@@std@@@std@@@std@@@0@0Uinput_iterator_tag@0@@Z
	??$_Emplace_back@AEAPEAVSerializableObject@v1_0@opentimelineio@@@?$_Uninitialized_backout_al@PEAU?$Retainer@VSerializableObject@v1_0@opentimelineio@@@SerializableObject@v1_0@opentimelineio@@V?$allocator@U?$Retainer@VSerializableObject@v1_0@opentimelineio@@@SerializableObject@v1_0@opentimelineio@@@std@@@std@@QEAAXAEAPEAVSerializableObject@v1_0@opentimelineio@@@Z
	??$_Emplace_back@AEAU?$Retainer@VComposable@v1_0@opentimelineio@@@SerializableObject@v1_0@opentimelineio@@@?$_Uninitialized_backout_al@PEAU?$Retainer@VComposable@v1_0@opentimelineio@@@SerializableObject@v1_0@opentimelineio@@V?$allocator@U?$Retainer@VComposable@v1_0@opentimelineio@@@SerializableObject@v1_0@opentimelineio@@@std@@@std@@QEAAXAEAU?$Retainer@VComposable@v1_0@opentimelineio@@@SerializableObject@v1_0@opentimelineio@@@Z
	??$_Emplace_back@AEAU?$Retainer@VEffect@v1_0@opentimelineio@@@SerializableObject@v1_0@opentimelineio@@@?$_Uninitialized_backout_al@PEAU?$Retainer@VEffect@v1_0@opentimelineio@@@SerializableObject@v1_0@opentimelineio@@V?$allocator@U?$Retainer@VEffect@v1_0@opentimelineio@@@SerializableObject@v1_0@opentimelineio@@@std@@@std@@QEAAXAEAU?$Retainer@VEffect@v1_0@opentimelineio@@@SerializableObject@v1_0@opentimelineio@@@Z
	??$_Emplace_back@AEAU?$Retainer@VMarker@v1_0@opentimelineio@@@SerializableObject@v1_0@opentimelineio@@@?$_Uninitialized_backout_al@PEAU?$Retainer@VMarker@v1_0@opentimelineio@@@SerializableObject@v1_0@opentimelineio@@V?$allocator@U?$Retainer@VMarker@v1_0@opentimelineio@@@SerializableObject@v1_0@opentimelineio@@@std@@@std@@QEAAXAEAU?$Retainer@VMarker@v1_0@opentimelineio@@@SerializableObject@v1_0@opentimelineio@@@Z
	??$_Emplace_back@AEAU?$Retainer@VSerializableObject@v1_0@opentimelineio@@@SerializableObject@v1_0@opentimelineio@@@?$_Uninitialized_backout_al@PEAU?$Retainer@VSerializableObject@v1_0@opentimelineio@@@SerializableObject@v1_0@opentimelineio@@V?$allocator@U?$Retainer@VSerializableObject@v1_0@opentimelineio@@@SerializableObject@v1_0@opentimelineio@@@std@@@std@@QEAAXAEAU?$Retainer@VSerializableObject@v1_0@opentimelineio@@@SerializableObject@v1_0@opentimelineio@@@Z
	??$_Emplace_back@AEAU_DictOrArray@CloningEncoder@v1_0@opentimelineio@@@?$_Uninitialized_backout_al@PEAU_DictOrArray@CloningEncoder@v1_0@opentimelineio@@V?$allocator@U_DictOrArray@CloningEncoder@v1_0@opentimelineio@@@std@@@std@@QEAAXAEAU_DictOrArray@CloningEncoder@v1_0@opentimelineio@@@Z
	??$_Emplace_back@AEAU_DictOrArray@JSONDecoder@v1_0@opentimelineio@@@?$_Uninitialized_backout_al@PEAU_DictOrArray@JSONDecoder@v1_0@opentimelineio@@V?$allocator@U_DictOrArray@JSONDecoder@v1_0@opentimelineio@@@std@@@std@@QEAAXAEAU_DictOrArray@JSONDecoder@v1_0@opentimelineio@@@Z
	??$_Emplace_back@AEAVany@linb@@@?$_Uninitialized_backout_al@PEAVany@linb@@V?$allocator@Vany@linb@@@std@@@std@@QEAAXAEAVany@linb@@@Z
	??$_Emplace_back@AEBQEAVComposable@v1_0@opentimelineio@@@?$_Uninitialized_backout_al@PEAU?$Retainer@VComposable@v1_0@opentimelineio@@@SerializableObject@v1_0@opentimelineio@@V?$allocator@U?$Retainer@VComposable@v1_0@opentimelineio@@@SerializableObject@v1_0@opentimelineio@@@std@@@std@@QEAAXAEBQEAVComposable@v1_0@opentimelineio@@@Z
	??$_Emplace_back@AEBQEAVEffect@v1_0@opentimelineio@@@?$_Uninitialized_backout_al@PEAU?$Retainer@VEffect@v1_0@opentimelineio@@@SerializableObject@v1_0@opentimelineio@@V?$allocator@U?$Retainer@VEffect@v1_0@opentimelineio@@@SerializableObject@v1_0@opentimelineio@@@std@@@std@@QEAAXAEBQEAVEffect@v1_0@opentimelineio@@@Z
	??$_Emplace_back@AEBQEAVMarker@v1_0@opentimelineio@@@?$_Uninitialized_backout_al@PEAU?$Retainer@VMarker@v1_0@opentimelineio@@@SerializableObject@v1_0@opentimelineio@@V?$allocator@U?$Retainer@VMarker@v1_0@opentimelineio@@@SerializableObject@v1_0@opentimelineio@@@std@@@std@@QEAAXAEBQEAVMarker@v1_0@opentimelineio@@@Z
	??$_Emplace_back@AEBQEAVSerializableObject@v1_0@opentimelineio@@@?$_Uninitialized_backout_al@PEAU?$Retainer@VSerializableObject@v1_0@opentimelineio@@@SerializableObject@v1_0@opentimelineio@@V?$allocator@U?$Retainer@VSerializableObject@v1_0@opentimelineio@@@SerializableObject@v1_0@opentimelineio@@@std@@@std@@QEAAXAEBQEAVSerializableObject@v1_0@opentimelineio@@@Z
	??$_Emplace_back@AEBU?$Retainer@VComposable@v1_0@opentimelineio@@@SerializableObject@v1_0@opentimelineio@@@?$_Uninitialized_backout_al@PEAPEAVComposable@v1_0@opentimelineio@@V?$allocator@PEAVComposable@v1_0@opentimelineio@@@std@@@std@@QEAAXAEBU?$Retainer@VComposable@v1_0@opentimelineio@@@SerializableObject@v1_0@opentimelineio@@@Z
	??$_Emplace_back@U?$Retainer@VComposable@v1_0@opentimelineio@@@SerializableObject@v1_0@opentimelineio@@@?$_Uninitialized_backout_al@PEAU?$Retainer@VComposable@v1_0@opentimelineio@@@SerializableObject@v1_0@opentimelineio@@V?$allocator@U?$Retainer@VComposable@v1_0@opentimelineio@@@SerializableObject@v1_0@opentimelineio@@@std@@@std@@QEAAX$$QEAU?$Retainer@VComposable@v1_0@opentimelineio@@@SerializableObject@v1_0@opentimelineio@@@Z
	??$_Emplace_back@U?$Retainer@VEffect@v1_0@opentimelineio@@@SerializableObject@v1_0@opentimelineio@@@?$_Uninitialized_backout_al@PEAU?$Retainer@VEffect@v1_0@opentimelineio@@@SerializableObject@v1_0@opentimelineio@@V?$allocator@U?$Retainer@VEffect@v1_0@opentimelineio@@@SerializableObject@v1_0@opentimelineio@@@std@@@std@@QEAAX$$QEAU?$Retainer@VEffect@v1_0@opentimelineio@@@SerializableObject@v1_0@opentimelineio@@@Z
	??$_Emplace_back@U?$Retainer@VMarker@v1_0@opentimelineio@@@SerializableObject@v1_0@opentimelineio@@@?$_Uninitialized_backout_al@PEAU?$Retainer@VMarker@v1_0@opentimelineio@@@SerializableObject@v1_0@opentimelineio@@V?$allocator@U?$Retainer@VMarker@v1_0@opentimelineio@@@SerializableObject@v1_0@opentimelineio@@@std@@@std@@QEAAX$$QEAU?$Retainer@VMarker@v1_0@opentimelineio@@@SerializableObject@v1_0@opentimelineio@@@Z
	??$_Emplace_back@U?$Retainer@VSerializableObject@v1_0@opentimelineio@@@SerializableObject@v1_0@opentimelineio@@@?$_Uninitialized_backout_al@PEAU?$Retainer@VSerializableObject@v1_0@opentimelineio@@@SerializableObject@v1_0@opentimelineio@@V?$allocator@U?$Retainer@VSerializableObject@v1_0@opentimelineio@@@SerializableObject@v1_0@opentimelineio@@@std@@@std@@QEAAX$$QEAU?$Retainer@VSerializableObject@v1_0@opentimelineio@@@SerializableObject@v1_0@opentimelineio@@@Z
	??$_Emplace_back@U_DictOrArray@CloningEncoder@v1_0@opentimelineio@@@?$_Uninitialized_backout_al@PEAU_DictOrArray@CloningEncoder@v1_0@opentimelineio@@V?$allocator@U_DictOrArray@CloningEncoder@v1_0@opentimelineio@@@std@@@std@@QEAAX$$QEAU_DictOrArray@CloningEncoder@v1_0@opentimelineio@@@Z
	??$_Emplace_back@U_DictOrArray@JSONDecoder@v1_0@opentimelineio@@@?$_Uninitialized_backout_al@PEAU_DictOrArray@JSONDecoder@v1_0@opentimelineio@@V?$allocator@U_DictOrArray@JSONDecoder@v1_0@opentimelineio@@@std@@@std@@QEAAX$$QEAU_DictOrArray@JSONDecoder@v1_0@opentimelineio@@@Z
	??$_Emplace_back@Vany@linb@@@?$_Uninitialized_backout_al@PEAVany@linb@@V?$allocator@Vany@linb@@@std@@@std@@QEAAX$$QEAVany@linb@@@Z
	??$_Emplace_back_with_unused_capacity@AEAPEAVComposable@v1_0@opentimelineio@@@?$vector@U?$Retainer@VComposable@v1_0@opentimelineio@@@SerializableObject@v1_0@opentimelineio@@V?$allocator@U?$Retainer@VComposable@v1_0@opentimelineio@@@SerializableObject@v1_0@opentimelineio@@@std@@@std@@AEAAXAEAPEAVComposable@v1_0@opentimelineio@@@Z
	??$_Emplace_back_with_unused_capacity@AEAPEAVSerializableObject@v1_0@opentimelineio@@@?$vector@U?$Retainer@VSerializableObject@v1_0@opentimelineio@@@SerializableObject@v1_0@opentimelineio@@V?$allocator@U?$Retainer@VSerializableObject@v1_0@opentimelineio@@@SerializableObject@v1_0@opentimelineio@@@std@@@std@@AEAAXAEAPEAVSerializableObject@v1_0@opentimelineio@@@Z
	??$_Emplace_back_with_unused_capacity@AEAU?$Retainer@VComposable@v1_0@opentimelineio@@@SerializableObject@v1_0@opentimelineio@@@?$vector@U?$Retainer@VComposable@v1_0@opentimelineio@@@SerializableObject@v1_0@opentimelineio@@V?$allocator@U?$Retainer@VComposable@v1_0@opentimelineio@@@SerializableObject@v1_0@opentimelineio@@@std@@@std@@AEAAXAEAU?$Retainer@VComposable@v1_0@opentimelineio@@@SerializableObject@v1_0@opentimelineio@@@Z
	??$_Emplace_back_with_unused_capacity@AEAU?$Retainer@VEffect@v1_0@opentimelineio@@@SerializableObject@v1_0@opentimelineio@@@?$vector@U?$Retainer@VEffect@v1_0@opentimelineio@@@SerializableObject@v1_0@opentimelineio@@V?$allocator@U?$Retainer@VEffect@v1_0@opentimelineio@@@SerializableObject@v1_0@opentimelineio@@@std@@@std@@AEAAXAEAU?$Retainer@VEffect@v1_0@opentimelineio@@@SerializableObject@v1_0@opentimelineio@@@Z
	??$_Emplace_back_with_unused_capacity@AEAU?$Retainer@VMarker@v1_0@opentimelineio@@@SerializableObject@v1_0@opentimelineio@@@?$vector@U?$Retainer@VMarker@v1_0@opentimelineio@@@SerializableObject@v1_0@opentimelineio@@V?$allocator@U?$Retainer@VMarker@v1_0@opentimelineio@@@SerializableObject@v1_0@opentimelineio@@@std@@@std@@AEAAXAEAU?$Retainer@VMarker@v1_0@opentimelineio@@@SerializableObject@v1_0@opentimelineio@@@Z
	??$_Emplace_back_with_unused_capacity@AEAU?$Retainer@VSerializableObject@v1_0@opentimelineio@@@SerializableObject@v1_0@opentimelineio@@@?$vector@U?$Retainer@VSerializableObject@v1_0@opentimelineio@@@SerializableObject@v1_0@opentimelineio@@V?$allocator@U?$Retainer@VSerializableObject@v1_0@opentimelineio@@@SerializableObject@v1_0@opentimelineio@@@std@@@std@@AEAAXAEAU?$Retainer@VSerializableObject@v1_0@opentimelineio@@@SerializableObject@v1_0@opentimelineio@@@Z
	??$_Emplace_back_with_unused_capacity@AEAVany@linb@@@?$vector@Vany@linb@@V?$allocator@Vany@linb@@@std@@@std@@AEAAXAEAVany@linb@@@Z
	??$_Emplace_back_with_unused_capacity@AEBQEAVComposable@v1_0@opentimelineio@@@?$vector@PEAVComposable@v1_0@opentimelineio@@V?$allocator@PEAVComposable@v1_0@opentimelineio@@@std@@@std@@AEAAXAEBQEAVComposable@v1_0@opentimelineio@@@Z
	??$_Emplace_back_with_unused_capacity@AEBQEAVComposition@v1_0@opentimelineio@@@?$vector@PEAVComposition@v1_0@opentimelineio@@V?$allocator@PEAVComposition@v1_0@opentimelineio@@@std@@@std@@AEAAXAEBQEAVComposition@v1_0@opentimelineio@@@Z
	??$_Emplace_back_with_unused_capacity@AEBQEAVTrack@v1_0@opentimelineio@@@?$vector@PEAVTrack@v1_0@opentimelineio@@V?$allocator@PEAVTrack@v1_0@opentimelineio@@@std@@@std@@AEAAXAEBQEAVTrack@v1_0@opentimelineio@@@Z
	??$_Emplace_back_with_unused_capacity@U?$Retainer@VComposable@v1_0@opentimelineio@@@SerializableObject@v1_0@opentimelineio@@@?$vector@U?$Retainer@VComposable@v1_0@opentimelineio@@@SerializableObject@v1_0@opentimelineio@@V?$allocator@U?$Retainer@VComposable@v1_0@opentimelineio@@@SerializableObject@v1_0@opentimelineio@@@std@@@std@@AEAAX$$QEAU?$Retainer@VComposable@v1_0@opentimelineio@@@SerializableObject@v1_0@opentimelineio@@@Z
	??$_Emplace_back_with_unused_capacity@U?$Retainer@VSerializableObject@v1_0@opentimelineio@@@SerializableObject@v1_0@opentimelineio@@@?$vector@U?$Retainer@VSerializableObject@v1_0@opentimelineio@@@SerializableObject@v1_0@opentimelineio@@V?$allocator@U?$Retainer@VSerializableObject@v1_0@opentimelineio@@@SerializableObject@v1_0@opentimelineio@@@std@@@std@@AEAAX$$QEAU?$Retainer@VSerializableObject@v1_0@opentimelineio@@@SerializableObject@v1_0@opentimelineio@@@Z
	??$_Emplace_back_with_unused_capacity@U_DictOrArray@CloningEncoder@v1_0@opentimelineio@@@?$vector@U_DictOrArray@CloningEncoder@v1_0@opentimelineio@@V?$allocator@U_DictOrArray@CloningEncoder@v1_0@opentimelineio@@@std@@@std@@AEAAX$$QEAU_DictOrArray@CloningEncoder@v1_0@opentimelineio@@@Z
	??$_Emplace_back_with_unused_capacity@U_DictOrArray@JSONDecoder@v1_0@opentimelineio@@@?$vector@U_DictOrArray@JSONDecoder@v1_0@opentimelineio@@V?$allocator@U_DictOrArray@JSONDecoder@v1_0@opentimelineio@@@std@@@std@@AEAAX$$QEAU_DictOrArray@JSONDecoder@v1_0@opentimelineio@@@Z
	??$_Emplace_back_with_unused_capacity@Vany@linb@@@?$vector@Vany@linb@@V?$allocator@Vany@linb@@@std@@@std@@AEAAX$$QEAVany@linb@@@Z
	??$_Emplace_reallocate@AEAPEAVComposable@v1_0@opentimelineio@@@?$vector@U?$Retainer@VComposable@v1_0@opentimelineio@@@SerializableObject@v1_0@opentimelineio@@V?$allocator@U?$Retainer@VComposable@v1_0@opentimelineio@@@SerializableObject@v1_0@opentimelineio@@@std@@@std@@QEAAPEAU?$Retainer@VComposable@v1_0@opentimelineio@@@SerializableObject@v1_0@opentimelineio@@QEAU2345@AEAPEAVComposable@45@@Z
	??$_Emplace_reallocate@AEAPEAVSerializableObject@v1_0@opentimelineio@@@?$vector@U?$Retainer@VSerializableObject@v1_0@opentimelineio@@@SerializableObject@v1_0@opentimelineio@@V?$allocator@U?$Retainer@VSerializableObject@v1_0@opentimelineio@@@SerializableObject@v1_0@opentimelineio@@@std@@@std@@QEAAPEAU?$Retainer@VSerializableObject@v1_0@opentimelineio@@@SerializableObject@v1_0@opentimelineio@@QEAU2345@AEAPEAV345@@Z
	??$_Emplace_reallocate@AEAU?$Retainer@VComposable@v1_0@opentimelineio@@@SerializableObject@v1_0@opentimelineio@@@?$vector@U?$Retainer@VComposable@v1_0@opentimelineio@@@SerializableObject@v1_0@opentimelineio@@V?$allocator@U?$Retainer@VComposable@v1_0@opentimelineio@@@SerializableObject@v1_0@opentimelineio@@@std@@@std@@QEAAPEAU?$Retainer@VComposable@v1_0@opentimelineio@@@SerializableObject@v1_0@opentimelineio@@QEAU2345@AEAU2345@@Z
	??$_Emplace_reallocate@AEAU?$Retainer@VEffect@v1_0@opentimelineio@@@SerializableObject@v1_0@opentimelineio@@@?$vector@U?$Retainer@VEffect@v1_0@opentimelineio@@@SerializableObject@v1_0@opentimelineio@@V?$allocator@U?$Retainer@VEffect@v1_0@opentimelineio@@@SerializableObject@v1_0@opentimelineio@@@std@@@std@@QEAAPEAU?$Retainer@VEffect@v1_0@opentimelineio@@@SerializableObject@v1_0@opentimelineio@@QEAU2345@AEAU2345@@Z
	??$_Emplace_reallocate@AEAU?$Retainer@VMarker@v1_0@opentimelineio@@@SerializableObject@v1_0@opentimelineio@@@?$vector@U?$Retainer@VMarker@v1_0@opentimelineio@@@SerializableObject@v1_0@opentimelineio@@V?$allocator@U?$Retainer@VMarker@v1_0@opentimelineio@@@SerializableObject@v1_0@opentimelineio@@@std@@@std@@QEAAPEAU?$Retainer@VMarker@v1_0@opentimelineio@@@SerializableObject@v1_0@opentimelineio@@QEAU2345@AEAU2345@@Z
	??$_Emplace_reallocate@AEAU?$Retainer@VSerializableObject@v1_0@opentimelineio@@@SerializableObject@v1_0@opentimelineio@@@?$vector@U?$Retainer@VSerializableObject@v1_0@opentimelineio@@@SerializableObject@v1_0@opentimelineio@@V?$allocator@U?$Retainer@VSerializableObject@v1_0@opentimelineio@@@SerializableObject@v1_0@opentimelineio@@@std@@@std@@QEAAPEAU?$Retainer@VSerializableObject@v1_0@opentimelineio@@@SerializableObject@v1_0@opentimelineio@@QEAU2345@AEAU2345@@Z
	??$_Emplace_reallocate@AEAVany@linb@@@?$vector@Vany@linb@@V?$allocator@Vany@linb@@@std@@@std@@QEAAPEAVany@linb@@QEAV23@AEAV23@@Z
	??$_Emplace_reallocate@AEBQEAVComposable@v1_0@opentimelineio@@@?$vector@PEAVComposable@v1_0@opentimelineio@@V?$allocator@PEAVComposable@v1_0@opentimelineio@@@std@@@std@@QEAAPEAPEAVComposable@v1_0@opentimelineio@@QEAPEAV234@AEBQEAV234@@Z
	??$_Emplace_reallocate@AEBQEAVComposition@v1_0@opentimelineio@@@?$vector@PEAVComposition@v1_0@opentimelineio@@V?$allocator@PEAVComposition@v1_0@opentimelineio@@@std@@@std@@QEAAPEAPEAVComposition@v1_0@opentimelineio@@QEAPEAV234@AEBQEAV234@@Z
	??$_Emplace_reallocate@AEBQEAVTrack@v1_0@opentimelineio@@@?$vector@PEAVTrack@v1_0@opentimelineio@@V?$allocator@PEAVTrack@v1_0@opentimelineio@@@std@@@std@@QEAAPEAPEAVTrack@v1_0@opentimelineio@@QEAPEAV234@AEBQEAV234@@Z
	??$_Emplace_reallocate@U?$Retainer@VComposable@v1_0@opentimelineio@@@SerializableObject@v1_0@opentimelineio@@@?$vector@U?$Retainer@VComposable@v1_0@opentimelineio@@@SerializableObject@v1_0@opentimelineio@@V?$allocator@U?$Retainer@VComposable@v1_0@opentimelineio@@@SerializableObject@v1_0@opentimelineio@@@std@@@std@@QEAAPEAU?$Retainer@VComposable@v1_0@opentimelineio@@@SerializableObject@v1_0@opentimelineio@@QEAU2345@$$QEAU2345@@Z
	??$_Emplace_reallocate@U?$Retainer@VSerializableObject@v1_0@opentimelineio@@@SerializableObject@v1_0@opentimelineio@@@?$vector@U?$Retainer@VSerializableObject@v1_0@opentimelineio@@@SerializableObject@v1_0@opentimelineio@@V?$allocator@U?$Retainer@VSerializableObject@v1_0@opentimelineio@@@SerializableObject@v1_0@opentimelineio@@@std@@@std@@QEAAPEAU?$Retainer@VSerializableObject@v1_0@opentimelineio@@@SerializableObject@v1_0@opentimelineio@@QEAU2345@$$QEAU2345@@Z
	??$_Emplace_reallocate@U_DictOrArray@CloningEncoder@v1_0@opentimelineio@@@?$vector@U_DictOrArray@CloningEncoder@v1_0@opentimelineio@@V?$allocator@U_DictOrArray@CloningEncoder@v1_0@opentimelineio@@@std@@@std@@QEAAPEAU_DictOrArray@CloningEncoder@v1_0@opentimelineio@@QEAU2345@$$QEAU2345@@Z
	??$_Emplace_reallocate@U_DictOrArray@JSONDecoder@v1_0@opentimelineio@@@?$vector@U_DictOrArray@JSONDecoder@v1_0@opentimelineio@@V?$allocator@U_DictOrArray@JSONDecoder@v1_0@opentimelineio@@@std@@@std@@QEAAPEAU_DictOrArray@JSONDecoder@v1_0@opentimelineio@@QEAU2345@$$QEAU2345@@Z
	??$_Emplace_reallocate@Vany@linb@@@?$vector@Vany@linb@@V?$allocator@Vany@linb@@@std@@@std@@QEAAPEAVany@linb@@QEAV23@$$QEAV23@@Z
	??$_Eqrange@PEAVComposable@v1_0@opentimelineio@@@?$_Tree@V?$_Tset_traits@PEAVComposable@v1_0@opentimelineio@@U?$less@PEAVComposable@v1_0@opentimelineio@@@std@@V?$allocator@PEAVComposable@v1_0@opentimelineio@@@5@$0A@@std@@@std@@IEAA?AU?$pair@V?$_Tree_const_iterator@V?$_Tree_val@U?$_Tree_simple_types@PEAVComposable@v1_0@opentimelineio@@@std@@@std@@@std@@V12@@1@AEBQEAVComposable@v1_0@opentimelineio@@@Z
	??$_Eqrange@PEAVComposable@v1_0@opentimelineio@@@?$_Tree@V?$_Tset_traits@PEAVComposable@v1_0@opentimelineio@@U?$less@PEAVComposable@v1_0@opentimelineio@@@std@@V?$allocator@PEAVComposable@v1_0@opentimelineio@@@5@$0A@@std@@@std@@IEBA?AU?$pair@V?$_Tree_const_iterator@V?$_Tree_val@U?$_Tree_simple_types@PEAVComposable@v1_0@opentimelineio@@@std@@@std@@@std@@V12@@1@AEBQEAVComposable@v1_0@opentimelineio@@@Z
	??$_Eqrange@PEAVTrack@v1_0@opentimelineio@@@?$_Tree@V?$_Tmap_traits@PEAVTrack@v1_0@opentimelineio@@V?$map@PEAVComposable@v1_0@opentimelineio@@VTimeRange@2opentime@@U?$less@PEAVComposable@v1_0@opentimelineio@@@std@@V?$allocator@U?$pair@QEAVComposable@v1_0@opentimelineio@@VTimeRange@2opentime@@@std@@@7@@std@@U?$less@PEAVTrack@v1_0@opentimelineio@@@5@V?$allocator@U?$pair@QEAVTrack@v1_0@opentimelineio@@V?$map@PEAVComposable@v1_0@opentimelineio@@VTimeRange@2opentime@@U?$less@PEAVComposable@v1_0@opentimelineio@@@std@@V?$allocator@U?$pair@QEAVComposable@v1_0@opentimelineio@@VTimeRange@2opentime@@@std@@@7@@std@@@std@@@5@$0A@@std@@@std@@IEAA?AU?$pair@V?$_Tree_iterator@V?$_Tree_val@U?$_Tree_simple_types@U?$pair@QEAVTrack@v1_0@opentimelineio@@V?$map@PEAVComposable@v1_0@opentimelineio@@VTimeRange@2opentime@@U?$less@PEAVComposable@v1_0@opentimelineio@@@std@@V?$allocator@U?$pair@QEAVComposable@v1_0@opentimelineio@@VTimeRange@2opentime@@@std@@@7@@std@@@std@@@std@@@std@@@std@@V12@@1@AEBQEAVTrack@v1_0@opentimelineio@@@Z
	??$_Eqrange@PEAVTrack@v1_0@opentimelineio@@@?$_Tree@V?$_Tmap_traits@PEAVTrack@v1_0@opentimelineio@@V?$map@PEAVComposable@v1_0@opentimelineio@@VTimeRange@2opentime@@U?$less@PEAVComposable@v1_0@opentimelineio@@@std@@V?$allocator@U?$pair@QEAVComposable@v1_0@opentimelineio@@VTimeRange@2opentime@@@std@@@7@@std@@U?$less@PEAVTrack@v1_0@opentimelineio@@@5@V?$allocator@U?$pair@QEAVTrack@v1_0@opentimelineio@@V?$map@PEAVComposable@v1_0@opentimelineio@@VTimeRange@2opentime@@U?$less@PEAVComposable@v1_0@opentimelineio@@@std@@V?$allocator@U?$pair@QEAVComposable@v1_0@opentimelineio@@VTimeRange@2opentime@@@std@@@7@@std@@@std@@@5@$0A@@std@@@std@@IEBA?AU?$pair@V?$_Tree_const_iterator@V?$_Tree_val@U?$_Tree_simple_types@U?$pair@QEAVTrack@v1_0@opentimelineio@@V?$map@PEAVComposable@v1_0@opentimelineio@@VTimeRange@2opentime@@U?$less@PEAVComposable@v1_0@opentimelineio@@@std@@V?$allocator@U?$pair@QEAVComposable@v1_0@opentimelineio@@VTimeRange@2opentime@@@std@@@7@@std@@@std@@@std@@@std@@@std@@V12@@1@AEBQEAVTrack@v1_0@opentimelineio@@@Z
	??$_Eqrange@PEBVComposition@v1_0@opentimelineio@@@?$_Tree@V?$_Tset_traits@PEBVComposition@v1_0@opentimelineio@@U?$less@PEBVComposition@v1_0@opentimelineio@@@std@@V?$allocator@PEBVComposition@v1_0@opentimelineio@@@5@$0A@@std@@@std@@IEBA?AU?$pair@V?$_Tree_const_iterator@V?$_Tree_val@U?$_Tree_simple_types@PEBVComposition@v1_0@opentimelineio@@@std@@@std@@@std@@V12@@1@AEBQEBVComposition@v1_0@opentimelineio@@@Z
	??$_Eqrange@V?$basic_string@DU?$char_traits@D@std@@V?$allocator@D@2@@std@@@?$_Tree@V?$_Tmap_traits@V?$basic_string@DU?$char_traits@D@std@@V?$allocator@D@2@@std@@Vany@linb@@U?$less@V?$basic_string@DU?$char_traits@D@std@@V?$allocator@D@2@@std@@@2@V?$allocator@U?$pair@$$CBV?$basic_string@DU?$char_traits@D@std@@V?$allocator@D@2@@std@@Vany@linb@@@std@@@2@$0A@@std@@@std@@IEAA?AU?$pair@V?$_Tree_iterator@V?$_Tree_val@U?$_Tree_simple_types@U?$pair@$$CBV?$basic_string@DU?$char_traits@D@std@@V?$allocator@D@2@@std@@Vany@linb@@@std@@@std@@@std@@@std@@V12@@1@AEBV?$basic_string@DU?$char_traits@D@std@@V?$allocator@D@2@@1@@Z
	??$_Eqrange@V?$basic_string@DU?$char_traits@D@std@@V?$allocator@D@2@@std@@@?$_Tree@V?$_Tmap_traits@V?$basic_string@DU?$char_traits@D@std@@V?$allocator@D@2@@std@@Vany@linb@@U?$less@V?$basic_string@DU?$char_traits@D@std@@V?$allocator@D@2@@std@@@2@V?$allocator@U?$pair@$$CBV?$basic_string@DU?$char_traits@D@std@@V?$allocator@D@2@@std@@Vany@linb@@@std@@@2@$0A@@std@@@std@@IEBA?AU?$pair@V?$_Tree_const_iterator@V?$_Tree_val@U?$_Tree_simple_types@U?$pair@$$CBV?$basic_string@DU?$char_traits@D@std@@V?$allocator@D@2@@std@@Vany@linb@@@std@@@std@@@std@@@std@@V12@@1@AEBV?$basic_string@DU?$char_traits@D@std@@V?$allocator@D@2@@1@@Z
	??$_Fgetc@D@std@@YA_NAEADPEAU_iobuf@@@Z
	??$_Fix@V?$tuple@$$V@std@@@?$_Select_fixer@PEAV?$CursorStreamWrapper@U?$GenericStringStream@U?$UTF8@D@OTIO_rapidjson@@@OTIO_rapidjson@@U?$UTF8@D@2@@OTIO_rapidjson@@$0A@$0A@$0A@@std@@SAAEAPEAV?$CursorStreamWrapper@U?$GenericStringStream@U?$UTF8@D@OTIO_rapidjson@@@OTIO_rapidjson@@U?$UTF8@D@2@@OTIO_rapidjson@@AEAPEAV23@$$QEAV?$tuple@$$V@1@@Z
	??$_Fix@V?$tuple@$$V@std@@@?$_Select_fixer@PEAV?$CursorStreamWrapper@VFileReadStream@OTIO_rapidjson@@U?$UTF8@D@2@@OTIO_rapidjson@@$0A@$0A@$0A@@std@@SAAEAPEAV?$CursorStreamWrapper@VFileReadStream@OTIO_rapidjson@@U?$UTF8@D@2@@OTIO_rapidjson@@AEAPEAV23@$$QEAV?$tuple@$$V@1@@Z
	??$_Fix@V?$tuple@AEBUErrorStatus@v1_0@opentimelineio@@@std@@@?$_Select_fixer@PEAVCloningEncoder@v1_0@opentimelineio@@$0A@$0A@$0A@@std@@SAAEAPEAVCloningEncoder@v1_0@opentimelineio@@AEAPEAV234@$$QEAV?$tuple@AEBUErrorStatus@v1_0@opentimelineio@@@1@@Z
	??$_Fix@V?$tuple@AEBUErrorStatus@v1_0@opentimelineio@@@std@@@?$_Select_fixer@PEAVJSONDecoder@v1_0@opentimelineio@@$0A@$0A@$0A@@std@@SAAEAPEAVJSONDecoder@v1_0@opentimelineio@@AEAPEAV234@$$QEAV?$tuple@AEBUErrorStatus@v1_0@opentimelineio@@@1@@Z
	??$_Fix@V?$tuple@AEBUErrorStatus@v1_0@opentimelineio@@@std@@@?$_Select_fixer@U?$_Ph@$00@std@@$0A@$0A@$00@std@@SAAEBUErrorStatus@v1_0@opentimelineio@@AEAU?$_Ph@$00@1@$$QEAV?$tuple@AEBUErrorStatus@v1_0@opentimelineio@@@1@@Z
	??$_Fix_arg@PEAV?$CursorStreamWrapper@U?$GenericStringStream@U?$UTF8@D@OTIO_rapidjson@@@OTIO_rapidjson@@U?$UTF8@D@2@@OTIO_rapidjson@@V?$tuple@$$V@std@@@std@@YAAEAPEAV?$CursorStreamWrapper@U?$GenericStringStream@U?$UTF8@D@OTIO_rapidjson@@@OTIO_rapidjson@@U?$UTF8@D@2@@OTIO_rapidjson@@AEAPEAV12@$$QEAV?$tuple@$$V@0@@Z
	??$_Fix_arg@PEAV?$CursorStreamWrapper@VFileReadStream@OTIO_rapidjson@@U?$UTF8@D@2@@OTIO_rapidjson@@V?$tuple@$$V@std@@@std@@YAAEAPEAV?$CursorStreamWrapper@VFileReadStream@OTIO_rapidjson@@U?$UTF8@D@2@@OTIO_rapidjson@@AEAPEAV12@$$QEAV?$tuple@$$V@0@@Z
	??$_Fix_arg@PEAVCloningEncoder@v1_0@opentimelineio@@V?$tuple@AEBUErrorStatus@v1_0@opentimelineio@@@std@@@std@@YAAEAPEAVCloningEncoder@v1_0@opentimelineio@@AEAPEAV123@$$QEAV?$tuple@AEBUErrorStatus@v1_0@opentimelineio@@@0@@Z
	??$_Fix_arg@PEAVJSONDecoder@v1_0@opentimelineio@@V?$tuple@AEBUErrorStatus@v1_0@opentimelineio@@@std@@@std@@YAAEAPEAVJSONDecoder@v1_0@opentimelineio@@AEAPEAV123@$$QEAV?$tuple@AEBUErrorStatus@v1_0@opentimelineio@@@0@@Z
	??$_Fix_arg@U?$_Ph@$00@std@@V?$tuple@AEBUErrorStatus@v1_0@opentimelineio@@@2@@std@@YAAEBUErrorStatus@v1_0@opentimelineio@@AEAU?$_Ph@$00@0@$$QEAV?$tuple@AEBUErrorStatus@v1_0@opentimelineio@@@0@@Z
	??$_Fputc@D@std@@YA_NDPEAU_iobuf@@@Z
	??$_Freenode0@V?$allocator@U?$_Tree_node@PEAVComposable@v1_0@opentimelineio@@PEAX@std@@@std@@@?$_Tree_node@PEAVComposable@v1_0@opentimelineio@@PEAX@std@@SAXAEAV?$allocator@U?$_Tree_node@PEAVComposable@v1_0@opentimelineio@@PEAX@std@@@1@PEAU01@@Z
	??$_Freenode0@V?$allocator@U?$_Tree_node@PEBVComposition@v1_0@opentimelineio@@PEAX@std@@@std@@@?$_Tree_node@PEBVComposition@v1_0@opentimelineio@@PEAX@std@@SAXAEAV?$allocator@U?$_Tree_node@PEBVComposition@v1_0@opentimelineio@@PEAX@std@@@1@PEAU01@@Z
	??$_Freenode0@V?$allocator@U?$_Tree_node@U?$pair@$$CBHV?$function@$$A6AXPEAVAnyDictionary@v1_0@opentimelineio@@@Z@std@@@std@@PEAX@std@@@std@@@?$_Tree_node@U?$pair@$$CBHV?$function@$$A6AXPEAVAnyDictionary@v1_0@opentimelineio@@@Z@std@@@std@@PEAX@std@@SAXAEAV?$allocator@U?$_Tree_node@U?$pair@$$CBHV?$function@$$A6AXPEAVAnyDictionary@v1_0@opentimelineio@@@Z@std@@@std@@PEAX@std@@@1@PEAU01@@Z
	??$_Freenode0@V?$allocator@U?$_Tree_node@U?$pair@$$CBV?$basic_string@DU?$char_traits@D@std@@V?$allocator@D@2@@std@@H@std@@PEAX@std@@@std@@@?$_Tree_node@U?$pair@$$CBV?$basic_string@DU?$char_traits@D@std@@V?$allocator@D@2@@std@@H@std@@PEAX@std@@SAXAEAV?$allocator@U?$_Tree_node@U?$pair@$$CBV?$basic_string@DU?$char_traits@D@std@@V?$allocator@D@2@@std@@H@std@@PEAX@std@@@1@PEAU01@@Z
	??$_Freenode0@V?$allocator@U?$_Tree_node@U?$pair@$$CBV?$basic_string@DU?$char_traits@D@std@@V?$allocator@D@2@@std@@PEAVSerializableObject@v1_0@opentimelineio@@@std@@PEAX@std@@@std@@@?$_Tree_node@U?$pair@$$CBV?$basic_string@DU?$char_traits@D@std@@V?$allocator@D@2@@std@@PEAVSerializableObject@v1_0@opentimelineio@@@std@@PEAX@std@@SAXAEAV?$allocator@U?$_Tree_node@U?$pair@$$CBV?$basic_string@DU?$char_traits@D@std@@V?$allocator@D@2@@std@@PEAVSerializableObject@v1_0@opentimelineio@@@std@@PEAX@std@@@1@PEAU01@@Z
	??$_Freenode0@V?$allocator@U?$_Tree_node@U?$pair@$$CBV?$basic_string@DU?$char_traits@D@std@@V?$allocator@D@2@@std@@PEAV_TypeRecord@TypeRegistry@v1_0@opentimelineio@@@std@@PEAX@std@@@std@@@?$_Tree_node@U?$pair@$$CBV?$basic_string@DU?$char_traits@D@std@@V?$allocator@D@2@@std@@PEAV_TypeRecord@TypeRegistry@v1_0@opentimelineio@@@std@@PEAX@std@@SAXAEAV?$allocator@U?$_Tree_node@U?$pair@$$CBV?$basic_string@DU?$char_traits@D@std@@V?$allocator@D@2@@std@@PEAV_TypeRecord@TypeRegistry@v1_0@opentimelineio@@@std@@PEAX@std@@@1@PEAU01@@Z
	??$_Freenode0@V?$allocator@U?$_Tree_node@U?$pair@$$CBV?$basic_string@DU?$char_traits@D@std@@V?$allocator@D@2@@std@@V?$function@$$A6AXAEBVany@linb@@@Z@2@@std@@PEAX@std@@@std@@@?$_Tree_node@U?$pair@$$CBV?$basic_string@DU?$char_traits@D@std@@V?$allocator@D@2@@std@@V?$function@$$A6AXAEBVany@linb@@@Z@2@@std@@PEAX@std@@SAXAEAV?$allocator@U?$_Tree_node@U?$pair@$$CBV?$basic_string@DU?$char_traits@D@std@@V?$allocator@D@2@@std@@V?$function@$$A6AXAEBVany@linb@@@Z@2@@std@@PEAX@std@@@1@PEAU01@@Z
	??$_Freenode0@V?$allocator@U?$_Tree_node@U?$pair@$$CBV?$basic_string@DU?$char_traits@D@std@@V?$allocator@D@2@@std@@Vany@linb@@@std@@PEAX@std@@@std@@@?$_Tree_node@U?$pair@$$CBV?$basic_string@DU?$char_traits@D@std@@V?$allocator@D@2@@std@@Vany@linb@@@std@@PEAX@std@@SAXAEAV?$allocator@U?$_Tree_node@U?$pair@$$CBV?$basic_string@DU?$char_traits@D@std@@V?$allocator@D@2@@std@@Vany@linb@@@std@@PEAX@std@@@1@PEAU01@@Z
	??$_Freenode0@V?$allocator@U?$_Tree_node@U?$pair@QEAVComposable@v1_0@opentimelineio@@VTimeRange@2opentime@@@std@@PEAX@std@@@std@@@?$_Tree_node@U?$pair@QEAVComposable@v1_0@opentimelineio@@VTimeRange@2opentime@@@std@@PEAX@std@@SAXAEAV?$allocator@U?$_Tree_node@U?$pair@QEAVComposable@v1_0@opentimelineio@@VTimeRange@2opentime@@@std@@PEAX@std@@@1@PEAU01@@Z
	??$_Freenode0@V?$allocator@U?$_Tree_node@U?$pair@QEAVSerializableObject@v1_0@opentimelineio@@H@std@@PEAX@std@@@std@@@?$_Tree_node@U?$pair@QEAVSerializableObject@v1_0@opentimelineio@@H@std@@PEAX@std@@SAXAEAV?$allocator@U?$_Tree_node@U?$pair@QEAVSerializableObject@v1_0@opentimelineio@@H@std@@PEAX@std@@@1@PEAU01@@Z
	??$_Freenode0@V?$allocator@U?$_Tree_node@U?$pair@QEAVSerializableObject@v1_0@opentimelineio@@VAnyDictionary@23@@std@@PEAX@std@@@std@@@?$_Tree_node@U?$pair@QEAVSerializableObject@v1_0@opentimelineio@@VAnyDictionary@23@@std@@PEAX@std@@SAXAEAV?$allocator@U?$_Tree_node@U?$pair@QEAVSerializableObject@v1_0@opentimelineio@@VAnyDictionary@23@@std@@PEAX@std@@@1@PEAU01@@Z
	??$_Freenode0@V?$allocator@U?$_Tree_node@U?$pair@QEAVTrack@v1_0@opentimelineio@@V?$map@PEAVComposable@v1_0@opentimelineio@@VTimeRange@2opentime@@U?$less@PEAVComposable@v1_0@opentimelineio@@@std@@V?$allocator@U?$pair@QEAVComposable@v1_0@opentimelineio@@VTimeRange@2opentime@@@std@@@7@@std@@@std@@PEAX@std@@@std@@@?$_Tree_node@U?$pair@QEAVTrack@v1_0@opentimelineio@@V?$map@PEAVComposable@v1_0@opentimelineio@@VTimeRange@2opentime@@U?$less@PEAVComposable@v1_0@opentimelineio@@@std@@V?$allocator@U?$pair@QEAVComposable@v1_0@opentimelineio@@VTimeRange@2opentime@@@std@@@7@@std@@@std@@PEAX@std@@SAXAEAV?$allocator@U?$_Tree_node@U?$pair@QEAVTrack@v1_0@opentimelineio@@V?$map@PEAVComposable@v1_0@opentimelineio@@VTimeRange@2opentime@@U?$less@PEAVComposable@v1_0@opentimelineio@@@std@@V?$allocator@U?$pair@QEAVComposable@v1_0@opentimelineio@@VTimeRange@2opentime@@@std@@@7@@std@@@std@@PEAX@std@@@1@PEAU01@@Z
	??$_Freenode0@V?$allocator@U?$_Tree_node@U?$pair@QEBVSerializableObject@v1_0@opentimelineio@@V?$basic_string@DU?$char_traits@D@std@@V?$allocator@D@2@@std@@@std@@PEAX@std@@@std@@@?$_Tree_node@U?$pair@QEBVSerializableObject@v1_0@opentimelineio@@V?$basic_string@DU?$char_traits@D@std@@V?$allocator@D@2@@std@@@std@@PEAX@std@@SAXAEAV?$allocator@U?$_Tree_node@U?$pair@QEBVSerializableObject@v1_0@opentimelineio@@V?$basic_string@DU?$char_traits@D@std@@V?$allocator@D@2@@std@@@std@@PEAX@std@@@1@PEAU01@@Z
	??$_Freenode0@V?$allocator@U?$_Tree_node@U?$pair@QEBVtype_info@@V?$function@$$A6AXAEBVany@linb@@@Z@std@@@std@@PEAX@std@@@std@@@?$_Tree_node@U?$pair@QEBVtype_info@@V?$function@$$A6AXAEBVany@linb@@@Z@std@@@std@@PEAX@std@@SAXAEAV?$allocator@U?$_Tree_node@U?$pair@QEBVtype_info@@V?$function@$$A6AXAEBVany@linb@@@Z@std@@@std@@PEAX@std@@@1@PEAU01@@Z
	??$_Freenode0@V?$allocator@U?$_Tree_node@U?$pair@QEBVtype_info@@V?$function@$$A6A_NAEBVany@linb@@0@Z@std@@@std@@PEAX@std@@@std@@@?$_Tree_node@U?$pair@QEBVtype_info@@V?$function@$$A6A_NAEBVany@linb@@0@Z@std@@@std@@PEAX@std@@SAXAEAV?$allocator@U?$_Tree_node@U?$pair@QEBVtype_info@@V?$function@$$A6A_NAEBVany@linb@@0@Z@std@@@std@@PEAX@std@@@1@PEAU01@@Z
	??$_Get_size_of_n@$00@std@@YA_K_K@Z
	??$_Get_size_of_n@$07@std@@YA_K_K@Z
	??$_Get_size_of_n@$0BI@@std@@YA_K_K@Z
	??$_Get_size_of_n@$0CI@@std@@YA_K_K@Z
	??$_Get_size_of_n@$0DA@@std@@YA_K_K@Z
	??$_Get_size_of_n@$0DI@@std@@YA_K_K@Z
	??$_Get_size_of_n@$0EA@@std@@YA_K_K@Z
	??$_Get_size_of_n@$0EI@@std@@YA_K_K@Z
	??$_Get_size_of_n@$0FI@@std@@YA_K_K@Z
	??$_Get_size_of_n@$0GA@@std@@YA_K_K@Z
	??$_Get_size_of_n@$0GI@@std@@YA_K_K@Z
	??$_Get_size_of_n@$0IA@@std@@YA_K_K@Z
	??$_Get_unwrapped@$$CBU?$Retainer@VComposable@v1_0@opentimelineio@@@SerializableObject@v1_0@opentimelineio@@@std@@YAPEBU?$Retainer@VComposable@v1_0@opentimelineio@@@SerializableObject@v1_0@opentimelineio@@QEBU1234@@Z
	??$_Get_unwrapped@D@std@@YAPEADQEAD@Z
	??$_Get_unwrapped@PEAVComposable@v1_0@opentimelineio@@@std@@YAPEAPEAVComposable@v1_0@opentimelineio@@QEAPEAV123@@Z
	??$_Get_unwrapped@PEAVComposition@v1_0@opentimelineio@@@std@@YAPEAPEAVComposition@v1_0@opentimelineio@@QEAPEAV123@@Z
	??$_Get_unwrapped@PEAVSerializableObject@v1_0@opentimelineio@@@std@@YAPEAPEAVSerializableObject@v1_0@opentimelineio@@QEAPEAV123@@Z
	??$_Get_unwrapped@PEAVTrack@v1_0@opentimelineio@@@std@@YAPEAPEAVTrack@v1_0@opentimelineio@@QEAPEAV123@@Z
	??$_Get_unwrapped@QEAVComposable@v1_0@opentimelineio@@@std@@YAPEBQEAVComposable@v1_0@opentimelineio@@QEBQEAV123@@Z
	??$_Get_unwrapped@QEAVComposition@v1_0@opentimelineio@@@std@@YAPEBQEAVComposition@v1_0@opentimelineio@@QEBQEAV123@@Z
	??$_Get_unwrapped@QEAVEffect@v1_0@opentimelineio@@@std@@YAPEBQEAVEffect@v1_0@opentimelineio@@QEBQEAV123@@Z
	??$_Get_unwrapped@QEAVMarker@v1_0@opentimelineio@@@std@@YAPEBQEAVMarker@v1_0@opentimelineio@@QEBQEAV123@@Z
	??$_Get_unwrapped@QEAVSerializableObject@v1_0@opentimelineio@@@std@@YAPEBQEAVSerializableObject@v1_0@opentimelineio@@QEBQEAV123@@Z
	??$_Get_unwrapped@U?$Retainer@VComposable@v1_0@opentimelineio@@@SerializableObject@v1_0@opentimelineio@@@std@@YAPEAU?$Retainer@VComposable@v1_0@opentimelineio@@@SerializableObject@v1_0@opentimelineio@@QEAU1234@@Z
	??$_Get_unwrapped@U?$Retainer@VEffect@v1_0@opentimelineio@@@SerializableObject@v1_0@opentimelineio@@@std@@YAPEAU?$Retainer@VEffect@v1_0@opentimelineio@@@SerializableObject@v1_0@opentimelineio@@QEAU1234@@Z
	??$_Get_unwrapped@U?$Retainer@VMarker@v1_0@opentimelineio@@@SerializableObject@v1_0@opentimelineio@@@std@@YAPEAU?$Retainer@VMarker@v1_0@opentimelineio@@@SerializableObject@v1_0@opentimelineio@@QEAU1234@@Z
	??$_Get_unwrapped@U?$Retainer@VSerializableObject@v1_0@opentimelineio@@@SerializableObject@v1_0@opentimelineio@@@std@@YAPEAU?$Retainer@VSerializableObject@v1_0@opentimelineio@@@SerializableObject@v1_0@opentimelineio@@QEAU1234@@Z
	??$_Get_unwrapped@U_DictOrArray@CloningEncoder@v1_0@opentimelineio@@@std@@YAPEAU_DictOrArray@CloningEncoder@v1_0@opentimelineio@@QEAU1234@@Z
	??$_Get_unwrapped@U_DictOrArray@JSONDecoder@v1_0@opentimelineio@@@std@@YAPEAU_DictOrArray@JSONDecoder@v1_0@opentimelineio@@QEAU1234@@Z
	??$_Get_unwrapped@V?$_Vector_const_iterator@V?$_Vector_val@U?$_Simple_types@PEAVComposable@v1_0@opentimelineio@@@std@@@std@@@std@@$0A@@std@@YAPEBQEAVComposable@v1_0@opentimelineio@@AEBV?$_Vector_const_iterator@V?$_Vector_val@U?$_Simple_types@PEAVComposable@v1_0@opentimelineio@@@std@@@std@@@0@@Z
	??$_Get_unwrapped@V?$_Vector_const_iterator@V?$_Vector_val@U?$_Simple_types@PEAVEffect@v1_0@opentimelineio@@@std@@@std@@@std@@$0A@@std@@YAPEBQEAVEffect@v1_0@opentimelineio@@AEBV?$_Vector_const_iterator@V?$_Vector_val@U?$_Simple_types@PEAVEffect@v1_0@opentimelineio@@@std@@@std@@@0@@Z
	??$_Get_unwrapped@V?$_Vector_const_iterator@V?$_Vector_val@U?$_Simple_types@PEAVMarker@v1_0@opentimelineio@@@std@@@std@@@std@@$0A@@std@@YAPEBQEAVMarker@v1_0@opentimelineio@@AEBV?$_Vector_const_iterator@V?$_Vector_val@U?$_Simple_types@PEAVMarker@v1_0@opentimelineio@@@std@@@std@@@0@@Z
	??$_Get_unwrapped@V?$_Vector_const_iterator@V?$_Vector_val@U?$_Simple_types@PEAVSerializableObject@v1_0@opentimelineio@@@std@@@std@@@std@@$0A@@std@@YAPEBQEAVSerializableObject@v1_0@opentimelineio@@AEBV?$_Vector_const_iterator@V?$_Vector_val@U?$_Simple_types@PEAVSerializableObject@v1_0@opentimelineio@@@std@@@std@@@0@@Z
	??$_Get_unwrapped@V?$_Vector_const_iterator@V?$_Vector_val@U?$_Simple_types@U?$Retainer@VComposable@v1_0@opentimelineio@@@SerializableObject@v1_0@opentimelineio@@@std@@@std@@@std@@$0A@@std@@YAPEBU?$Retainer@VComposable@v1_0@opentimelineio@@@SerializableObject@v1_0@opentimelineio@@AEBV?$_Vector_const_iterator@V?$_Vector_val@U?$_Simple_types@U?$Retainer@VComposable@v1_0@opentimelineio@@@SerializableObject@v1_0@opentimelineio@@@std@@@std@@@0@@Z
	??$_Get_unwrapped@V?$_Vector_iterator@V?$_Vector_val@U?$_Simple_types@PEAVSerializableObject@v1_0@opentimelineio@@@std@@@std@@@std@@$0A@@std@@YAPEAPEAVSerializableObject@v1_0@opentimelineio@@AEBV?$_Vector_iterator@V?$_Vector_val@U?$_Simple_types@PEAVSerializableObject@v1_0@opentimelineio@@@std@@@std@@@0@@Z
	??$_Get_unwrapped@Vany@linb@@@std@@YAPEAVany@linb@@QEAV12@@Z
	??$_Get_unwrapped_n@PEAVComposable@v1_0@opentimelineio@@_J$0A@@std@@YAPEAPEAVComposable@v1_0@opentimelineio@@QEAPEAV123@_J@Z
	??$_Get_unwrapped_n@PEAVComposition@v1_0@opentimelineio@@_J$0A@@std@@YAPEAPEAVComposition@v1_0@opentimelineio@@QEAPEAV123@_J@Z
	??$_Get_unwrapped_n@PEAVTrack@v1_0@opentimelineio@@_J$0A@@std@@YAPEAPEAVTrack@v1_0@opentimelineio@@QEAPEAV123@_J@Z
	??$_Get_unwrapped_n@U?$Retainer@VComposable@v1_0@opentimelineio@@@SerializableObject@v1_0@opentimelineio@@_J$0A@@std@@YAPEAU?$Retainer@VComposable@v1_0@opentimelineio@@@SerializableObject@v1_0@opentimelineio@@QEAU1234@_J@Z
	??$_Get_unwrapped_n@U?$Retainer@VEffect@v1_0@opentimelineio@@@SerializableObject@v1_0@opentimelineio@@_J$0A@@std@@YAPEAU?$Retainer@VEffect@v1_0@opentimelineio@@@SerializableObject@v1_0@opentimelineio@@QEAU1234@_J@Z
	??$_Get_unwrapped_n@U?$Retainer@VMarker@v1_0@opentimelineio@@@SerializableObject@v1_0@opentimelineio@@_J$0A@@std@@YAPEAU?$Retainer@VMarker@v1_0@opentimelineio@@@SerializableObject@v1_0@opentimelineio@@QEAU1234@_J@Z
	??$_Get_unwrapped_n@U?$Retainer@VSerializableObject@v1_0@opentimelineio@@@SerializableObject@v1_0@opentimelineio@@_J$0A@@std@@YAPEAU?$Retainer@VSerializableObject@v1_0@opentimelineio@@@SerializableObject@v1_0@opentimelineio@@QEAU1234@_J@Z
	??$_Get_unwrapped_n@U_DictOrArray@CloningEncoder@v1_0@opentimelineio@@_J$0A@@std@@YAPEAU_DictOrArray@CloningEncoder@v1_0@opentimelineio@@QEAU1234@_J@Z
	??$_Get_unwrapped_n@U_DictOrArray@JSONDecoder@v1_0@opentimelineio@@_J$0A@@std@@YAPEAU_DictOrArray@JSONDecoder@v1_0@opentimelineio@@QEAU1234@_J@Z
	??$_Get_unwrapped_n@Vany@linb@@_J$0A@@std@@YAPEAVany@linb@@QEAV12@_J@Z
	??$_Idl_distance1@PEAPEAVComposable@v1_0@opentimelineio@@PEAPEAV123@@std@@YA_JAEBQEAPEAVComposable@v1_0@opentimelineio@@0Urandom_access_iterator_tag@0@@Z
	??$_Idl_distance1@PEAPEAVComposition@v1_0@opentimelineio@@PEAPEAV123@@std@@YA_JAEBQEAPEAVComposition@v1_0@opentimelineio@@0Urandom_access_iterator_tag@0@@Z
	??$_Idl_distance1@PEAPEAVSerializableObject@v1_0@opentimelineio@@PEAPEAV123@@std@@YA_JAEBQEAPEAVSerializableObject@v1_0@opentimelineio@@0Urandom_access_iterator_tag@0@@Z
	??$_Idl_distance1@PEAPEAVTrack@v1_0@opentimelineio@@PEAPEAV123@@std@@YA_JAEBQEAPEAVTrack@v1_0@opentimelineio@@0Urandom_access_iterator_tag@0@@Z
	??$_Idl_distance1@PEAU?$Retainer@VComposable@v1_0@opentimelineio@@@SerializableObject@v1_0@opentimelineio@@PEAU1234@@std@@YA_JAEBQEAU?$Retainer@VComposable@v1_0@opentimelineio@@@SerializableObject@v1_0@opentimelineio@@0Urandom_access_iterator_tag@0@@Z
	??$_Idl_distance1@PEAU?$Retainer@VEffect@v1_0@opentimelineio@@@SerializableObject@v1_0@opentimelineio@@PEAU1234@@std@@YA_JAEBQEAU?$Retainer@VEffect@v1_0@opentimelineio@@@SerializableObject@v1_0@opentimelineio@@0Urandom_access_iterator_tag@0@@Z
	??$_Idl_distance1@PEAU?$Retainer@VMarker@v1_0@opentimelineio@@@SerializableObject@v1_0@opentimelineio@@PEAU1234@@std@@YA_JAEBQEAU?$Retainer@VMarker@v1_0@opentimelineio@@@SerializableObject@v1_0@opentimelineio@@0Urandom_access_iterator_tag@0@@Z
	??$_Idl_distance1@PEAU?$Retainer@VSerializableObject@v1_0@opentimelineio@@@SerializableObject@v1_0@opentimelineio@@PEAU1234@@std@@YA_JAEBQEAU?$Retainer@VSerializableObject@v1_0@opentimelineio@@@SerializableObject@v1_0@opentimelineio@@0Urandom_access_iterator_tag@0@@Z
	??$_Idl_distance1@PEAU_DictOrArray@CloningEncoder@v1_0@opentimelineio@@PEAU1234@@std@@YA_JAEBQEAU_DictOrArray@CloningEncoder@v1_0@opentimelineio@@0Urandom_access_iterator_tag@0@@Z
	??$_Idl_distance1@PEAU_DictOrArray@JSONDecoder@v1_0@opentimelineio@@PEAU1234@@std@@YA_JAEBQEAU_DictOrArray@JSONDecoder@v1_0@opentimelineio@@0Urandom_access_iterator_tag@0@@Z
	??$_Idl_distance1@PEAVany@linb@@PEAV12@@std@@YA_JAEBQEAVany@linb@@0Urandom_access_iterator_tag@0@@Z
	??$_Idl_distance1@PEBQEAVComposable@v1_0@opentimelineio@@PEBQEAV123@@std@@YA_JAEBQEBQEAVComposable@v1_0@opentimelineio@@0Urandom_access_iterator_tag@0@@Z
	??$_Idl_distance1@PEBQEAVComposition@v1_0@opentimelineio@@PEBQEAV123@@std@@YA_JAEBQEBQEAVComposition@v1_0@opentimelineio@@0Urandom_access_iterator_tag@0@@Z
	??$_Idl_distance1@PEBQEAVEffect@v1_0@opentimelineio@@PEBQEAV123@@std@@YA_JAEBQEBQEAVEffect@v1_0@opentimelineio@@0Urandom_access_iterator_tag@0@@Z
	??$_Idl_distance1@PEBQEAVMarker@v1_0@opentimelineio@@PEBQEAV123@@std@@YA_JAEBQEBQEAVMarker@v1_0@opentimelineio@@0Urandom_access_iterator_tag@0@@Z
	??$_Idl_distance1@PEBQEAVSerializableObject@v1_0@opentimelineio@@PEBQEAV123@@std@@YA_JAEBQEBQEAVSerializableObject@v1_0@opentimelineio@@0Urandom_access_iterator_tag@0@@Z
	??$_Idl_distance1@PEBU?$Retainer@VComposable@v1_0@opentimelineio@@@SerializableObject@v1_0@opentimelineio@@PEBU1234@@std@@YA_JAEBQEBU?$Retainer@VComposable@v1_0@opentimelineio@@@SerializableObject@v1_0@opentimelineio@@0Urandom_access_iterator_tag@0@@Z
	??$_Idl_distance@PEAPEAVComposable@v1_0@opentimelineio@@PEAPEAV123@@std@@YA_JAEBQEAPEAVComposable@v1_0@opentimelineio@@0@Z
	??$_Idl_distance@PEAPEAVComposition@v1_0@opentimelineio@@PEAPEAV123@@std@@YA_JAEBQEAPEAVComposition@v1_0@opentimelineio@@0@Z
	??$_Idl_distance@PEAPEAVSerializableObject@v1_0@opentimelineio@@PEAPEAV123@@std@@YA_JAEBQEAPEAVSerializableObject@v1_0@opentimelineio@@0@Z
	??$_Idl_distance@PEAPEAVTrack@v1_0@opentimelineio@@PEAPEAV123@@std@@YA_JAEBQEAPEAVTrack@v1_0@opentimelineio@@0@Z
	??$_Idl_distance@PEAU?$Retainer@VComposable@v1_0@opentimelineio@@@SerializableObject@v1_0@opentimelineio@@PEAU1234@@std@@YA_JAEBQEAU?$Retainer@VComposable@v1_0@opentimelineio@@@SerializableObject@v1_0@opentimelineio@@0@Z
	??$_Idl_distance@PEAU?$Retainer@VEffect@v1_0@opentimelineio@@@SerializableObject@v1_0@opentimelineio@@PEAU1234@@std@@YA_JAEBQEAU?$Retainer@VEffect@v1_0@opentimelineio@@@SerializableObject@v1_0@opentimelineio@@0@Z
	??$_Idl_distance@PEAU?$Retainer@VMarker@v1_0@opentimelineio@@@SerializableObject@v1_0@opentimelineio@@PEAU1234@@std@@YA_JAEBQEAU?$Retainer@VMarker@v1_0@opentimelineio@@@SerializableObject@v1_0@opentimelineio@@0@Z
	??$_Idl_distance@PEAU?$Retainer@VSerializableObject@v1_0@opentimelineio@@@SerializableObject@v1_0@opentimelineio@@PEAU1234@@std@@YA_JAEBQEAU?$Retainer@VSerializableObject@v1_0@opentimelineio@@@SerializableObject@v1_0@opentimelineio@@0@Z
	??$_Idl_distance@PEAU_DictOrArray@CloningEncoder@v1_0@opentimelineio@@PEAU1234@@std@@YA_JAEBQEAU_DictOrArray@CloningEncoder@v1_0@opentimelineio@@0@Z
	??$_Idl_distance@PEAU_DictOrArray@JSONDecoder@v1_0@opentimelineio@@PEAU1234@@std@@YA_JAEBQEAU_DictOrArray@JSONDecoder@v1_0@opentimelineio@@0@Z
	??$_Idl_distance@PEAVany@linb@@PEAV12@@std@@YA_JAEBQEAVany@linb@@0@Z
	??$_Idl_distance@PEBQEAVComposable@v1_0@opentimelineio@@PEBQEAV123@@std@@YA_JAEBQEBQEAVComposable@v1_0@opentimelineio@@0@Z
	??$_Idl_distance@PEBQEAVComposition@v1_0@opentimelineio@@PEBQEAV123@@std@@YA_JAEBQEBQEAVComposition@v1_0@opentimelineio@@0@Z
	??$_Idl_distance@PEBQEAVEffect@v1_0@opentimelineio@@PEBQEAV123@@std@@YA_JAEBQEBQEAVEffect@v1_0@opentimelineio@@0@Z
	??$_Idl_distance@PEBQEAVMarker@v1_0@opentimelineio@@PEBQEAV123@@std@@YA_JAEBQEBQEAVMarker@v1_0@opentimelineio@@0@Z
	??$_Idl_distance@PEBQEAVSerializableObject@v1_0@opentimelineio@@PEBQEAV123@@std@@YA_JAEBQEBQEAVSerializableObject@v1_0@opentimelineio@@0@Z
	??$_Idl_distance@PEBU?$Retainer@VComposable@v1_0@opentimelineio@@@SerializableObject@v1_0@opentimelineio@@PEBU1234@@std@@YA_JAEBQEBU?$Retainer@VComposable@v1_0@opentimelineio@@@SerializableObject@v1_0@opentimelineio@@0@Z
	??$_Insert_at@AEAPEAVComposable@v1_0@opentimelineio@@PEAU?$_Tree_node@PEAVComposable@v1_0@opentimelineio@@PEAX@std@@@?$_Tree@V?$_Tset_traits@PEAVComposable@v1_0@opentimelineio@@U?$less@PEAVComposable@v1_0@opentimelineio@@@std@@V?$allocator@PEAVComposable@v1_0@opentimelineio@@@5@$0A@@std@@@std@@IEAA?AV?$_Tree_const_iterator@V?$_Tree_val@U?$_Tree_simple_types@PEAVComposable@v1_0@opentimelineio@@@std@@@std@@@1@_NPEAU?$_Tree_node@PEAVComposable@v1_0@opentimelineio@@PEAX@1@AEAPEAVComposable@v1_0@opentimelineio@@1@Z
	??$_Insert_at@AEAU?$pair@$$CBHV?$function@$$A6AXPEAVAnyDictionary@v1_0@opentimelineio@@@Z@std@@@std@@PEAU?$_Tree_node@U?$pair@$$CBHV?$function@$$A6AXPEAVAnyDictionary@v1_0@opentimelineio@@@Z@std@@@std@@PEAX@2@@?$_Tree@V?$_Tmap_traits@HV?$function@$$A6AXPEAVAnyDictionary@v1_0@opentimelineio@@@Z@std@@U?$less@H@2@V?$allocator@U?$pair@$$CBHV?$function@$$A6AXPEAVAnyDictionary@v1_0@opentimelineio@@@Z@std@@@std@@@2@$0A@@std@@@std@@IEAA?AV?$_Tree_iterator@V?$_Tree_val@U?$_Tree_simple_types@U?$pair@$$CBHV?$function@$$A6AXPEAVAnyDictionary@v1_0@opentimelineio@@@Z@std@@@std@@@std@@@std@@@1@_NPEAU?$_Tree_node@U?$pair@$$CBHV?$function@$$A6AXPEAVAnyDictionary@v1_0@opentimelineio@@@Z@std@@@std@@PEAX@1@AEAU?$pair@$$CBHV?$function@$$A6AXPEAVAnyDictionary@v1_0@opentimelineio@@@Z@std@@@1@1@Z
	??$_Insert_at@AEAU?$pair@$$CBV?$basic_string@DU?$char_traits@D@std@@V?$allocator@D@2@@std@@H@std@@PEAU?$_Tree_node@U?$pair@$$CBV?$basic_string@DU?$char_traits@D@std@@V?$allocator@D@2@@std@@H@std@@PEAX@2@@?$_Tree@V?$_Tmap_traits@V?$basic_string@DU?$char_traits@D@std@@V?$allocator@D@2@@std@@HU?$less@V?$basic_string@DU?$char_traits@D@std@@V?$allocator@D@2@@std@@@2@V?$allocator@U?$pair@$$CBV?$basic_string@DU?$char_traits@D@std@@V?$allocator@D@2@@std@@H@std@@@2@$0A@@std@@@std@@IEAA?AV?$_Tree_iterator@V?$_Tree_val@U?$_Tree_simple_types@U?$pair@$$CBV?$basic_string@DU?$char_traits@D@std@@V?$allocator@D@2@@std@@H@std@@@std@@@std@@@1@_NPEAU?$_Tree_node@U?$pair@$$CBV?$basic_string@DU?$char_traits@D@std@@V?$allocator@D@2@@std@@H@std@@PEAX@1@AEAU?$pair@$$CBV?$basic_string@DU?$char_traits@D@std@@V?$allocator@D@2@@std@@H@1@1@Z
	??$_Insert_at@AEAU?$pair@$$CBV?$basic_string@DU?$char_traits@D@std@@V?$allocator@D@2@@std@@PEAVSerializableObject@v1_0@opentimelineio@@@std@@PEAU?$_Tree_node@U?$pair@$$CBV?$basic_string@DU?$char_traits@D@std@@V?$allocator@D@2@@std@@PEAVSerializableObject@v1_0@opentimelineio@@@std@@PEAX@2@@?$_Tree@V?$_Tmap_traits@V?$basic_string@DU?$char_traits@D@std@@V?$allocator@D@2@@std@@PEAVSerializableObject@v1_0@opentimelineio@@U?$less@V?$basic_string@DU?$char_traits@D@std@@V?$allocator@D@2@@std@@@2@V?$allocator@U?$pair@$$CBV?$basic_string@DU?$char_traits@D@std@@V?$allocator@D@2@@std@@PEAVSerializableObject@v1_0@opentimelineio@@@std@@@2@$0A@@std@@@std@@IEAA?AV?$_Tree_iterator@V?$_Tree_val@U?$_Tree_simple_types@U?$pair@$$CBV?$basic_string@DU?$char_traits@D@std@@V?$allocator@D@2@@std@@PEAVSerializableObject@v1_0@opentimelineio@@@std@@@std@@@std@@@1@_NPEAU?$_Tree_node@U?$pair@$$CBV?$basic_string@DU?$char_traits@D@std@@V?$allocator@D@2@@std@@PEAVSerializableObject@v1_0@opentimelineio@@@std@@PEAX@1@AEAU?$pair@$$CBV?$basic_string@DU?$char_traits@D@std@@V?$allocator@D@2@@std@@PEAVSerializableObject@v1_0@opentimelineio@@@1@1@Z
	??$_Insert_at@AEAU?$pair@$$CBV?$basic_string@DU?$char_traits@D@std@@V?$allocator@D@2@@std@@PEAV_TypeRecord@TypeRegistry@v1_0@opentimelineio@@@std@@PEAU?$_Tree_node@U?$pair@$$CBV?$basic_string@DU?$char_traits@D@std@@V?$allocator@D@2@@std@@PEAV_TypeRecord@TypeRegistry@v1_0@opentimelineio@@@std@@PEAX@2@@?$_Tree@V?$_Tmap_traits@V?$basic_string@DU?$char_traits@D@std@@V?$allocator@D@2@@std@@PEAV_TypeRecord@TypeRegistry@v1_0@opentimelineio@@U?$less@V?$basic_string@DU?$char_traits@D@std@@V?$allocator@D@2@@std@@@2@V?$allocator@U?$pair@$$CBV?$basic_string@DU?$char_traits@D@std@@V?$allocator@D@2@@std@@PEAV_TypeRecord@TypeRegistry@v1_0@opentimelineio@@@std@@@2@$0A@@std@@@std@@IEAA?AV?$_Tree_iterator@V?$_Tree_val@U?$_Tree_simple_types@U?$pair@$$CBV?$basic_string@DU?$char_traits@D@std@@V?$allocator@D@2@@std@@PEAV_TypeRecord@TypeRegistry@v1_0@opentimelineio@@@std@@@std@@@std@@@1@_NPEAU?$_Tree_node@U?$pair@$$CBV?$basic_string@DU?$char_traits@D@std@@V?$allocator@D@2@@std@@PEAV_TypeRecord@TypeRegistry@v1_0@opentimelineio@@@std@@PEAX@1@AEAU?$pair@$$CBV?$basic_string@DU?$char_traits@D@std@@V?$allocator@D@2@@std@@PEAV_TypeRecord@TypeRegistry@v1_0@opentimelineio@@@1@1@Z
	??$_Insert_at@AEAU?$pair@$$CBV?$basic_string@DU?$char_traits@D@std@@V?$allocator@D@2@@std@@V?$function@$$A6AXAEBVany@linb@@@Z@2@@std@@PEAU?$_Tree_node@U?$pair@$$CBV?$basic_string@DU?$char_traits@D@std@@V?$allocator@D@2@@std@@V?$function@$$A6AXAEBVany@linb@@@Z@2@@std@@PEAX@2@@?$_Tree@V?$_Tmap_traits@V?$basic_string@DU?$char_traits@D@std@@V?$allocator@D@2@@std@@V?$function@$$A6AXAEBVany@linb@@@Z@2@U?$less@V?$basic_string@DU?$char_traits@D@std@@V?$allocator@D@2@@std@@@2@V?$allocator@U?$pair@$$CBV?$basic_string@DU?$char_traits@D@std@@V?$allocator@D@2@@std@@V?$function@$$A6AXAEBVany@linb@@@Z@2@@std@@@2@$0A@@std@@@std@@IEAA?AV?$_Tree_iterator@V?$_Tree_val@U?$_Tree_simple_types@U?$pair@$$CBV?$basic_string@DU?$char_traits@D@std@@V?$allocator@D@2@@std@@V?$function@$$A6AXAEBVany@linb@@@Z@2@@std@@@std@@@std@@@1@_NPEAU?$_Tree_node@U?$pair@$$CBV?$basic_string@DU?$char_traits@D@std@@V?$allocator@D@2@@std@@V?$function@$$A6AXAEBVany@linb@@@Z@2@@std@@PEAX@1@AEAU?$pair@$$CBV?$basic_string@DU?$char_traits@D@std@@V?$allocator@D@2@@std@@V?$function@$$A6AXAEBVany@linb@@@Z@2@@1@1@Z
	??$_Insert_at@AEAU?$pair@$$CBV?$basic_string@DU?$char_traits@D@std@@V?$allocator@D@2@@std@@Vany@linb@@@std@@PEAU?$_Tree_node@U?$pair@$$CBV?$basic_string@DU?$char_traits@D@std@@V?$allocator@D@2@@std@@Vany@linb@@@std@@PEAX@2@@?$_Tree@V?$_Tmap_traits@V?$basic_string@DU?$char_traits@D@std@@V?$allocator@D@2@@std@@Vany@linb@@U?$less@V?$basic_string@DU?$char_traits@D@std@@V?$allocator@D@2@@std@@@2@V?$allocator@U?$pair@$$CBV?$basic_string@DU?$char_traits@D@std@@V?$allocator@D@2@@std@@Vany@linb@@@std@@@2@$0A@@std@@@std@@IEAA?AV?$_Tree_iterator@V?$_Tree_val@U?$_Tree_simple_types@U?$pair@$$CBV?$basic_string@DU?$char_traits@D@std@@V?$allocator@D@2@@std@@Vany@linb@@@std@@@std@@@std@@@1@_NPEAU?$_Tree_node@U?$pair@$$CBV?$basic_string@DU?$char_traits@D@std@@V?$allocator@D@2@@std@@Vany@linb@@@std@@PEAX@1@AEAU?$pair@$$CBV?$basic_string@DU?$char_traits@D@std@@V?$allocator@D@2@@std@@Vany@linb@@@1@1@Z
	??$_Insert_at@AEAU?$pair@QEAVComposable@v1_0@opentimelineio@@VTimeRange@2opentime@@@std@@PEAU?$_Tree_node@U?$pair@QEAVComposable@v1_0@opentimelineio@@VTimeRange@2opentime@@@std@@PEAX@2@@?$_Tree@V?$_Tmap_traits@PEAVComposable@v1_0@opentimelineio@@VTimeRange@2opentime@@U?$less@PEAVComposable@v1_0@opentimelineio@@@std@@V?$allocator@U?$pair@QEAVComposable@v1_0@opentimelineio@@VTimeRange@2opentime@@@std@@@7@$0A@@std@@@std@@IEAA?AV?$_Tree_iterator@V?$_Tree_val@U?$_Tree_simple_types@U?$pair@QEAVComposable@v1_0@opentimelineio@@VTimeRange@2opentime@@@std@@@std@@@std@@@1@_NPEAU?$_Tree_node@U?$pair@QEAVComposable@v1_0@opentimelineio@@VTimeRange@2opentime@@@std@@PEAX@1@AEAU?$pair@QEAVComposable@v1_0@opentimelineio@@VTimeRange@2opentime@@@1@1@Z
	??$_Insert_at@AEAU?$pair@QEAVSerializableObject@v1_0@opentimelineio@@H@std@@PEAU?$_Tree_node@U?$pair@QEAVSerializableObject@v1_0@opentimelineio@@H@std@@PEAX@2@@?$_Tree@V?$_Tmap_traits@PEAVSerializableObject@v1_0@opentimelineio@@HU?$less@PEAVSerializableObject@v1_0@opentimelineio@@@std@@V?$allocator@U?$pair@QEAVSerializableObject@v1_0@opentimelineio@@H@std@@@5@$0A@@std@@@std@@IEAA?AV?$_Tree_iterator@V?$_Tree_val@U?$_Tree_simple_types@U?$pair@QEAVSerializableObject@v1_0@opentimelineio@@H@std@@@std@@@std@@@1@_NPEAU?$_Tree_node@U?$pair@QEAVSerializableObject@v1_0@opentimelineio@@H@std@@PEAX@1@AEAU?$pair@QEAVSerializableObject@v1_0@opentimelineio@@H@1@1@Z
	??$_Insert_at@AEAU?$pair@QEAVSerializableObject@v1_0@opentimelineio@@VAnyDictionary@23@@std@@PEAU?$_Tree_node@U?$pair@QEAVSerializableObject@v1_0@opentimelineio@@VAnyDictionary@23@@std@@PEAX@2@@?$_Tree@V?$_Tmap_traits@PEAVSerializableObject@v1_0@opentimelineio@@VAnyDictionary@23@U?$less@PEAVSerializableObject@v1_0@opentimelineio@@@std@@V?$allocator@U?$pair@QEAVSerializableObject@v1_0@opentimelineio@@VAnyDictionary@23@@std@@@6@$0A@@std@@@std@@IEAA?AV?$_Tree_iterator@V?$_Tree_val@U?$_Tree_simple_types@U?$pair@QEAVSerializableObject@v1_0@opentimelineio@@VAnyDictionary@23@@std@@@std@@@std@@@1@_NPEAU?$_Tree_node@U?$pair@QEAVSerializableObject@v1_0@opentimelineio@@VAnyDictionary@23@@std@@PEAX@1@AEAU?$pair@QEAVSerializableObject@v1_0@opentimelineio@@VAnyDictionary@23@@1@1@Z
	??$_Insert_at@AEAU?$pair@QEAVTrack@v1_0@opentimelineio@@V?$map@PEAVComposable@v1_0@opentimelineio@@VTimeRange@2opentime@@U?$less@PEAVComposable@v1_0@opentimelineio@@@std@@V?$allocator@U?$pair@QEAVComposable@v1_0@opentimelineio@@VTimeRange@2opentime@@@std@@@7@@std@@@std@@PEAU?$_Tree_node@U?$pair@QEAVTrack@v1_0@opentimelineio@@V?$map@PEAVComposable@v1_0@opentimelineio@@VTimeRange@2opentime@@U?$less@PEAVComposable@v1_0@opentimelineio@@@std@@V?$allocator@U?$pair@QEAVComposable@v1_0@opentimelineio@@VTimeRange@2opentime@@@std@@@7@@std@@@std@@PEAX@2@@?$_Tree@V?$_Tmap_traits@PEAVTrack@v1_0@opentimelineio@@V?$map@PEAVComposable@v1_0@opentimelineio@@VTimeRange@2opentime@@U?$less@PEAVComposable@v1_0@opentimelineio@@@std@@V?$allocator@U?$pair@QEAVComposable@v1_0@opentimelineio@@VTimeRange@2opentime@@@std@@@7@@std@@U?$less@PEAVTrack@v1_0@opentimelineio@@@5@V?$allocator@U?$pair@QEAVTrack@v1_0@opentimelineio@@V?$map@PEAVComposable@v1_0@opentimelineio@@VTimeRange@2opentime@@U?$less@PEAVComposable@v1_0@opentimelineio@@@std@@V?$allocator@U?$pair@QEAVComposable@v1_0@opentimelineio@@VTimeRange@2opentime@@@std@@@7@@std@@@std@@@5@$0A@@std@@@std@@IEAA?AV?$_Tree_iterator@V?$_Tree_val@U?$_Tree_simple_types@U?$pair@QEAVTrack@v1_0@opentimelineio@@V?$map@PEAVComposable@v1_0@opentimelineio@@VTimeRange@2opentime@@U?$less@PEAVComposable@v1_0@opentimelineio@@@std@@V?$allocator@U?$pair@QEAVComposable@v1_0@opentimelineio@@VTimeRange@2opentime@@@std@@@7@@std@@@std@@@std@@@std@@@1@_NPEAU?$_Tree_node@U?$pair@QEAVTrack@v1_0@opentimelineio@@V?$map@PEAVComposable@v1_0@opentimelineio@@VTimeRange@2opentime@@U?$less@PEAVComposable@v1_0@opentimelineio@@@std@@V?$allocator@U?$pair@QEAVComposable@v1_0@opentimelineio@@VTimeRange@2opentime@@@std@@@7@@std@@@std@@PEAX@1@AEAU?$pair@QEAVTrack@v1_0@opentimelineio@@V?$map@PEAVComposable@v1_0@opentimelineio@@VTimeRange@2opentime@@U?$less@PEAVComposable@v1_0@opentimelineio@@@std@@V?$allocator@U?$pair@QEAVComposable@v1_0@opentimelineio@@VTimeRange@2opentime@@@std@@@7@@std@@@1@1@Z
	??$_Insert_at@AEAU?$pair@QEBVSerializableObject@v1_0@opentimelineio@@V?$basic_string@DU?$char_traits@D@std@@V?$allocator@D@2@@std@@@std@@PEAU?$_Tree_node@U?$pair@QEBVSerializableObject@v1_0@opentimelineio@@V?$basic_string@DU?$char_traits@D@std@@V?$allocator@D@2@@std@@@std@@PEAX@2@@?$_Tree@V?$_Tmap_traits@PEBVSerializableObject@v1_0@opentimelineio@@V?$basic_string@DU?$char_traits@D@std@@V?$allocator@D@2@@std@@U?$less@PEBVSerializableObject@v1_0@opentimelineio@@@5@V?$allocator@U?$pair@QEBVSerializableObject@v1_0@opentimelineio@@V?$basic_string@DU?$char_traits@D@std@@V?$allocator@D@2@@std@@@std@@@5@$0A@@std@@@std@@IEAA?AV?$_Tree_iterator@V?$_Tree_val@U?$_Tree_simple_types@U?$pair@QEBVSerializableObject@v1_0@opentimelineio@@V?$basic_string@DU?$char_traits@D@std@@V?$allocator@D@2@@std@@@std@@@std@@@std@@@1@_NPEAU?$_Tree_node@U?$pair@QEBVSerializableObject@v1_0@opentimelineio@@V?$basic_string@DU?$char_traits@D@std@@V?$allocator@D@2@@std@@@std@@PEAX@1@AEAU?$pair@QEBVSerializableObject@v1_0@opentimelineio@@V?$basic_string@DU?$char_traits@D@std@@V?$allocator@D@2@@std@@@1@1@Z
	??$_Insert_at@AEAU?$pair@QEBVtype_info@@V?$function@$$A6AXAEBVany@linb@@@Z@std@@@std@@PEAU?$_Tree_node@U?$pair@QEBVtype_info@@V?$function@$$A6AXAEBVany@linb@@@Z@std@@@std@@PEAX@2@@?$_Tree@V?$_Tmap_traits@PEBVtype_info@@V?$function@$$A6AXAEBVany@linb@@@Z@std@@U?$less@PEBVtype_info@@@3@V?$allocator@U?$pair@QEBVtype_info@@V?$function@$$A6AXAEBVany@linb@@@Z@std@@@std@@@3@$0A@@std@@@std@@IEAA?AV?$_Tree_iterator@V?$_Tree_val@U?$_Tree_simple_types@U?$pair@QEBVtype_info@@V?$function@$$A6AXAEBVany@linb@@@Z@std@@@std@@@std@@@std@@@1@_NPEAU?$_Tree_node@U?$pair@QEBVtype_info@@V?$function@$$A6AXAEBVany@linb@@@Z@std@@@std@@PEAX@1@AEAU?$pair@QEBVtype_info@@V?$function@$$A6AXAEBVany@linb@@@Z@std@@@1@1@Z
	??$_Insert_at@AEAU?$pair@QEBVtype_info@@V?$function@$$A6A_NAEBVany@linb@@0@Z@std@@@std@@PEAU?$_Tree_node@U?$pair@QEBVtype_info@@V?$function@$$A6A_NAEBVany@linb@@0@Z@std@@@std@@PEAX@2@@?$_Tree@V?$_Tmap_traits@PEBVtype_info@@V?$function@$$A6A_NAEBVany@linb@@0@Z@std@@U?$less@PEBVtype_info@@@3@V?$allocator@U?$pair@QEBVtype_info@@V?$function@$$A6A_NAEBVany@linb@@0@Z@std@@@std@@@3@$0A@@std@@@std@@IEAA?AV?$_Tree_iterator@V?$_Tree_val@U?$_Tree_simple_types@U?$pair@QEBVtype_info@@V?$function@$$A6A_NAEBVany@linb@@0@Z@std@@@std@@@std@@@std@@@1@_NPEAU?$_Tree_node@U?$pair@QEBVtype_info@@V?$function@$$A6A_NAEBVany@linb@@0@Z@std@@@std@@PEAX@1@AEAU?$pair@QEBVtype_info@@V?$function@$$A6A_NAEBVany@linb@@0@Z@std@@@1@1@Z
	??$_Insert_at@AEBQEAVComposable@v1_0@opentimelineio@@U_Not_a_node_tag@std@@@?$_Tree@V?$_Tset_traits@PEAVComposable@v1_0@opentimelineio@@U?$less@PEAVComposable@v1_0@opentimelineio@@@std@@V?$allocator@PEAVComposable@v1_0@opentimelineio@@@5@$0A@@std@@@std@@IEAA?AV?$_Tree_const_iterator@V?$_Tree_val@U?$_Tree_simple_types@PEAVComposable@v1_0@opentimelineio@@@std@@@std@@@1@_NPEAU?$_Tree_node@PEAVComposable@v1_0@opentimelineio@@PEAX@1@AEBQEAVComposable@v1_0@opentimelineio@@U_Not_a_node_tag@1@@Z
	??$_Insert_at@AEBQEBVComposition@v1_0@opentimelineio@@U_Not_a_node_tag@std@@@?$_Tree@V?$_Tset_traits@PEBVComposition@v1_0@opentimelineio@@U?$less@PEBVComposition@v1_0@opentimelineio@@@std@@V?$allocator@PEBVComposition@v1_0@opentimelineio@@@5@$0A@@std@@@std@@IEAA?AV?$_Tree_const_iterator@V?$_Tree_val@U?$_Tree_simple_types@PEBVComposition@v1_0@opentimelineio@@@std@@@std@@@1@_NPEAU?$_Tree_node@PEBVComposition@v1_0@opentimelineio@@PEAX@1@AEBQEBVComposition@v1_0@opentimelineio@@U_Not_a_node_tag@1@@Z
	??$_Insert_hint@AEAPEAVComposable@v1_0@opentimelineio@@PEAU?$_Tree_node@PEAVComposable@v1_0@opentimelineio@@PEAX@std@@@?$_Tree@V?$_Tset_traits@PEAVComposable@v1_0@opentimelineio@@U?$less@PEAVComposable@v1_0@opentimelineio@@@std@@V?$allocator@PEAVComposable@v1_0@opentimelineio@@@5@$0A@@std@@@std@@IEAA?AV?$_Tree_const_iterator@V?$_Tree_val@U?$_Tree_simple_types@PEAVComposable@v1_0@opentimelineio@@@std@@@std@@@1@V21@AEAPEAVComposable@v1_0@opentimelineio@@PEAU?$_Tree_node@PEAVComposable@v1_0@opentimelineio@@PEAX@1@@Z
	??$_Insert_hint@AEAU?$pair@$$CBHV?$function@$$A6AXPEAVAnyDictionary@v1_0@opentimelineio@@@Z@std@@@std@@PEAU?$_Tree_node@U?$pair@$$CBHV?$function@$$A6AXPEAVAnyDictionary@v1_0@opentimelineio@@@Z@std@@@std@@PEAX@2@@?$_Tree@V?$_Tmap_traits@HV?$function@$$A6AXPEAVAnyDictionary@v1_0@opentimelineio@@@Z@std@@U?$less@H@2@V?$allocator@U?$pair@$$CBHV?$function@$$A6AXPEAVAnyDictionary@v1_0@opentimelineio@@@Z@std@@@std@@@2@$0A@@std@@@std@@IEAA?AV?$_Tree_iterator@V?$_Tree_val@U?$_Tree_simple_types@U?$pair@$$CBHV?$function@$$A6AXPEAVAnyDictionary@v1_0@opentimelineio@@@Z@std@@@std@@@std@@@std@@@1@V?$_Tree_const_iterator@V?$_Tree_val@U?$_Tree_simple_types@U?$pair@$$CBHV?$function@$$A6AXPEAVAnyDictionary@v1_0@opentimelineio@@@Z@std@@@std@@@std@@@std@@@1@AEAU?$pair@$$CBHV?$function@$$A6AXPEAVAnyDictionary@v1_0@opentimelineio@@@Z@std@@@1@PEAU?$_Tree_node@U?$pair@$$CBHV?$function@$$A6AXPEAVAnyDictionary@v1_0@opentimelineio@@@Z@std@@@std@@PEAX@1@@Z
	??$_Insert_hint@AEAU?$pair@$$CBV?$basic_string@DU?$char_traits@D@std@@V?$allocator@D@2@@std@@H@std@@PEAU?$_Tree_node@U?$pair@$$CBV?$basic_string@DU?$char_traits@D@std@@V?$allocator@D@2@@std@@H@std@@PEAX@2@@?$_Tree@V?$_Tmap_traits@V?$basic_string@DU?$char_traits@D@std@@V?$allocator@D@2@@std@@HU?$less@V?$basic_string@DU?$char_traits@D@std@@V?$allocator@D@2@@std@@@2@V?$allocator@U?$pair@$$CBV?$basic_string@DU?$char_traits@D@std@@V?$allocator@D@2@@std@@H@std@@@2@$0A@@std@@@std@@IEAA?AV?$_Tree_iterator@V?$_Tree_val@U?$_Tree_simple_types@U?$pair@$$CBV?$basic_string@DU?$char_traits@D@std@@V?$allocator@D@2@@std@@H@std@@@std@@@std@@@1@V?$_Tree_const_iterator@V?$_Tree_val@U?$_Tree_simple_types@U?$pair@$$CBV?$basic_string@DU?$char_traits@D@std@@V?$allocator@D@2@@std@@H@std@@@std@@@std@@@1@AEAU?$pair@$$CBV?$basic_string@DU?$char_traits@D@std@@V?$allocator@D@2@@std@@H@1@PEAU?$_Tree_node@U?$pair@$$CBV?$basic_string@DU?$char_traits@D@std@@V?$allocator@D@2@@std@@H@std@@PEAX@1@@Z
	??$_Insert_hint@AEAU?$pair@$$CBV?$basic_string@DU?$char_traits@D@std@@V?$allocator@D@2@@std@@PEAVSerializableObject@v1_0@opentimelineio@@@std@@PEAU?$_Tree_node@U?$pair@$$CBV?$basic_string@DU?$char_traits@D@std@@V?$allocator@D@2@@std@@PEAVSerializableObject@v1_0@opentimelineio@@@std@@PEAX@2@@?$_Tree@V?$_Tmap_traits@V?$basic_string@DU?$char_traits@D@std@@V?$allocator@D@2@@std@@PEAVSerializableObject@v1_0@opentimelineio@@U?$less@V?$basic_string@DU?$char_traits@D@std@@V?$allocator@D@2@@std@@@2@V?$allocator@U?$pair@$$CBV?$basic_string@DU?$char_traits@D@std@@V?$allocator@D@2@@std@@PEAVSerializableObject@v1_0@opentimelineio@@@std@@@2@$0A@@std@@@std@@IEAA?AV?$_Tree_iterator@V?$_Tree_val@U?$_Tree_simple_types@U?$pair@$$CBV?$basic_string@DU?$char_traits@D@std@@V?$allocator@D@2@@std@@PEAVSerializableObject@v1_0@opentimelineio@@@std@@@std@@@std@@@1@V?$_Tree_const_iterator@V?$_Tree_val@U?$_Tree_simple_types@U?$pair@$$CBV?$basic_string@DU?$char_traits@D@std@@V?$allocator@D@2@@std@@PEAVSerializableObject@v1_0@opentimelineio@@@std@@@std@@@std@@@1@AEAU?$pair@$$CBV?$basic_string@DU?$char_traits@D@std@@V?$allocator@D@2@@std@@PEAVSerializableObject@v1_0@opentimelineio@@@1@PEAU?$_Tree_node@U?$pair@$$CBV?$basic_string@DU?$char_traits@D@std@@V?$allocator@D@2@@std@@PEAVSerializableObject@v1_0@opentimelineio@@@std@@PEAX@1@@Z
	??$_Insert_hint@AEAU?$pair@$$CBV?$basic_string@DU?$char_traits@D@std@@V?$allocator@D@2@@std@@PEAV_TypeRecord@TypeRegistry@v1_0@opentimelineio@@@std@@PEAU?$_Tree_node@U?$pair@$$CBV?$basic_string@DU?$char_traits@D@std@@V?$allocator@D@2@@std@@PEAV_TypeRecord@TypeRegistry@v1_0@opentimelineio@@@std@@PEAX@2@@?$_Tree@V?$_Tmap_traits@V?$basic_string@DU?$char_traits@D@std@@V?$allocator@D@2@@std@@PEAV_TypeRecord@TypeRegistry@v1_0@opentimelineio@@U?$less@V?$basic_string@DU?$char_traits@D@std@@V?$allocator@D@2@@std@@@2@V?$allocator@U?$pair@$$CBV?$basic_string@DU?$char_traits@D@std@@V?$allocator@D@2@@std@@PEAV_TypeRecord@TypeRegistry@v1_0@opentimelineio@@@std@@@2@$0A@@std@@@std@@IEAA?AV?$_Tree_iterator@V?$_Tree_val@U?$_Tree_simple_types@U?$pair@$$CBV?$basic_string@DU?$char_traits@D@std@@V?$allocator@D@2@@std@@PEAV_TypeRecord@TypeRegistry@v1_0@opentimelineio@@@std@@@std@@@std@@@1@V?$_Tree_const_iterator@V?$_Tree_val@U?$_Tree_simple_types@U?$pair@$$CBV?$basic_string@DU?$char_traits@D@std@@V?$allocator@D@2@@std@@PEAV_TypeRecord@TypeRegistry@v1_0@opentimelineio@@@std@@@std@@@std@@@1@AEAU?$pair@$$CBV?$basic_string@DU?$char_traits@D@std@@V?$allocator@D@2@@std@@PEAV_TypeRecord@TypeRegistry@v1_0@opentimelineio@@@1@PEAU?$_Tree_node@U?$pair@$$CBV?$basic_string@DU?$char_traits@D@std@@V?$allocator@D@2@@std@@PEAV_TypeRecord@TypeRegistry@v1_0@opentimelineio@@@std@@PEAX@1@@Z
	??$_Insert_hint@AEAU?$pair@$$CBV?$basic_string@DU?$char_traits@D@std@@V?$allocator@D@2@@std@@V?$function@$$A6AXAEBVany@linb@@@Z@2@@std@@PEAU?$_Tree_node@U?$pair@$$CBV?$basic_string@DU?$char_traits@D@std@@V?$allocator@D@2@@std@@V?$function@$$A6AXAEBVany@linb@@@Z@2@@std@@PEAX@2@@?$_Tree@V?$_Tmap_traits@V?$basic_string@DU?$char_traits@D@std@@V?$allocator@D@2@@std@@V?$function@$$A6AXAEBVany@linb@@@Z@2@U?$less@V?$basic_string@DU?$char_traits@D@std@@V?$allocator@D@2@@std@@@2@V?$allocator@U?$pair@$$CBV?$basic_string@DU?$char_traits@D@std@@V?$allocator@D@2@@std@@V?$function@$$A6AXAEBVany@linb@@@Z@2@@std@@@2@$0A@@std@@@std@@IEAA?AV?$_Tree_iterator@V?$_Tree_val@U?$_Tree_simple_types@U?$pair@$$CBV?$basic_string@DU?$char_traits@D@std@@V?$allocator@D@2@@std@@V?$function@$$A6AXAEBVany@linb@@@Z@2@@std@@@std@@@std@@@1@V?$_Tree_const_iterator@V?$_Tree_val@U?$_Tree_simple_types@U?$pair@$$CBV?$basic_string@DU?$char_traits@D@std@@V?$allocator@D@2@@std@@V?$function@$$A6AXAEBVany@linb@@@Z@2@@std@@@std@@@std@@@1@AEAU?$pair@$$CBV?$basic_string@DU?$char_traits@D@std@@V?$allocator@D@2@@std@@V?$function@$$A6AXAEBVany@linb@@@Z@2@@1@PEAU?$_Tree_node@U?$pair@$$CBV?$basic_string@DU?$char_traits@D@std@@V?$allocator@D@2@@std@@V?$function@$$A6AXAEBVany@linb@@@Z@2@@std@@PEAX@1@@Z
	??$_Insert_hint@AEAU?$pair@$$CBV?$basic_string@DU?$char_traits@D@std@@V?$allocator@D@2@@std@@Vany@linb@@@std@@PEAU?$_Tree_node@U?$pair@$$CBV?$basic_string@DU?$char_traits@D@std@@V?$allocator@D@2@@std@@Vany@linb@@@std@@PEAX@2@@?$_Tree@V?$_Tmap_traits@V?$basic_string@DU?$char_traits@D@std@@V?$allocator@D@2@@std@@Vany@linb@@U?$less@V?$basic_string@DU?$char_traits@D@std@@V?$allocator@D@2@@std@@@2@V?$allocator@U?$pair@$$CBV?$basic_string@DU?$char_traits@D@std@@V?$allocator@D@2@@std@@Vany@linb@@@std@@@2@$0A@@std@@@std@@IEAA?AV?$_Tree_iterator@V?$_Tree_val@U?$_Tree_simple_types@U?$pair@$$CBV?$basic_string@DU?$char_traits@D@std@@V?$allocator@D@2@@std@@Vany@linb@@@std@@@std@@@std@@@1@V?$_Tree_const_iterator@V?$_Tree_val@U?$_Tree_simple_types@U?$pair@$$CBV?$basic_string@DU?$char_traits@D@std@@V?$allocator@D@2@@std@@Vany@linb@@@std@@@std@@@std@@@1@AEAU?$pair@$$CBV?$basic_string@DU?$char_traits@D@std@@V?$allocator@D@2@@std@@Vany@linb@@@1@PEAU?$_Tree_node@U?$pair@$$CBV?$basic_string@DU?$char_traits@D@std@@V?$allocator@D@2@@std@@Vany@linb@@@std@@PEAX@1@@Z
	??$_Insert_hint@AEAU?$pair@QEAVComposable@v1_0@opentimelineio@@VTimeRange@2opentime@@@std@@PEAU?$_Tree_node@U?$pair@QEAVComposable@v1_0@opentimelineio@@VTimeRange@2opentime@@@std@@PEAX@2@@?$_Tree@V?$_Tmap_traits@PEAVComposable@v1_0@opentimelineio@@VTimeRange@2opentime@@U?$less@PEAVComposable@v1_0@opentimelineio@@@std@@V?$allocator@U?$pair@QEAVComposable@v1_0@opentimelineio@@VTimeRange@2opentime@@@std@@@7@$0A@@std@@@std@@IEAA?AV?$_Tree_iterator@V?$_Tree_val@U?$_Tree_simple_types@U?$pair@QEAVComposable@v1_0@opentimelineio@@VTimeRange@2opentime@@@std@@@std@@@std@@@1@V?$_Tree_const_iterator@V?$_Tree_val@U?$_Tree_simple_types@U?$pair@QEAVComposable@v1_0@opentimelineio@@VTimeRange@2opentime@@@std@@@std@@@std@@@1@AEAU?$pair@QEAVComposable@v1_0@opentimelineio@@VTimeRange@2opentime@@@1@PEAU?$_Tree_node@U?$pair@QEAVComposable@v1_0@opentimelineio@@VTimeRange@2opentime@@@std@@PEAX@1@@Z
	??$_Insert_hint@AEAU?$pair@QEAVSerializableObject@v1_0@opentimelineio@@H@std@@PEAU?$_Tree_node@U?$pair@QEAVSerializableObject@v1_0@opentimelineio@@H@std@@PEAX@2@@?$_Tree@V?$_Tmap_traits@PEAVSerializableObject@v1_0@opentimelineio@@HU?$less@PEAVSerializableObject@v1_0@opentimelineio@@@std@@V?$allocator@U?$pair@QEAVSerializableObject@v1_0@opentimelineio@@H@std@@@5@$0A@@std@@@std@@IEAA?AV?$_Tree_iterator@V?$_Tree_val@U?$_Tree_simple_types@U?$pair@QEAVSerializableObject@v1_0@opentimelineio@@H@std@@@std@@@std@@@1@V?$_Tree_const_iterator@V?$_Tree_val@U?$_Tree_simple_types@U?$pair@QEAVSerializableObject@v1_0@opentimelineio@@H@std@@@std@@@std@@@1@AEAU?$pair@QEAVSerializableObject@v1_0@opentimelineio@@H@1@PEAU?$_Tree_node@U?$pair@QEAVSerializableObject@v1_0@opentimelineio@@H@std@@PEAX@1@@Z
	??$_Insert_hint@AEAU?$pair@QEBVSerializableObject@v1_0@opentimelineio@@V?$basic_string@DU?$char_traits@D@std@@V?$allocator@D@2@@std@@@std@@PEAU?$_Tree_node@U?$pair@QEBVSerializableObject@v1_0@opentimelineio@@V?$basic_string@DU?$char_traits@D@std@@V?$allocator@D@2@@std@@@std@@PEAX@2@@?$_Tree@V?$_Tmap_traits@PEBVSerializableObject@v1_0@opentimelineio@@V?$basic_string@DU?$char_traits@D@std@@V?$allocator@D@2@@std@@U?$less@PEBVSerializableObject@v1_0@opentimelineio@@@5@V?$allocator@U?$pair@QEBVSerializableObject@v1_0@opentimelineio@@V?$basic_string@DU?$char_traits@D@std@@V?$allocator@D@2@@std@@@std@@@5@$0A@@std@@@std@@IEAA?AV?$_Tree_iterator@V?$_Tree_val@U?$_Tree_simple_types@U?$pair@QEBVSerializableObject@v1_0@opentimelineio@@V?$basic_string@DU?$char_traits@D@std@@V?$allocator@D@2@@std@@@std@@@std@@@std@@@1@V?$_Tree_const_iterator@V?$_Tree_val@U?$_Tree_simple_types@U?$pair@QEBVSerializableObject@v1_0@opentimelineio@@V?$basic_string@DU?$char_traits@D@std@@V?$allocator@D@2@@std@@@std@@@std@@@std@@@1@AEAU?$pair@QEBVSerializableObject@v1_0@opentimelineio@@V?$basic_string@DU?$char_traits@D@std@@V?$allocator@D@2@@std@@@1@PEAU?$_Tree_node@U?$pair@QEBVSerializableObject@v1_0@opentimelineio@@V?$basic_string@DU?$char_traits@D@std@@V?$allocator@D@2@@std@@@std@@PEAX@1@@Z
	??$_Insert_hint@AEAU?$pair@QEBVtype_info@@V?$function@$$A6AXAEBVany@linb@@@Z@std@@@std@@PEAU?$_Tree_node@U?$pair@QEBVtype_info@@V?$function@$$A6AXAEBVany@linb@@@Z@std@@@std@@PEAX@2@@?$_Tree@V?$_Tmap_traits@PEBVtype_info@@V?$function@$$A6AXAEBVany@linb@@@Z@std@@U?$less@PEBVtype_info@@@3@V?$allocator@U?$pair@QEBVtype_info@@V?$function@$$A6AXAEBVany@linb@@@Z@std@@@std@@@3@$0A@@std@@@std@@IEAA?AV?$_Tree_iterator@V?$_Tree_val@U?$_Tree_simple_types@U?$pair@QEBVtype_info@@V?$function@$$A6AXAEBVany@linb@@@Z@std@@@std@@@std@@@std@@@1@V?$_Tree_const_iterator@V?$_Tree_val@U?$_Tree_simple_types@U?$pair@QEBVtype_info@@V?$function@$$A6AXAEBVany@linb@@@Z@std@@@std@@@std@@@std@@@1@AEAU?$pair@QEBVtype_info@@V?$function@$$A6AXAEBVany@linb@@@Z@std@@@1@PEAU?$_Tree_node@U?$pair@QEBVtype_info@@V?$function@$$A6AXAEBVany@linb@@@Z@std@@@std@@PEAX@1@@Z
	??$_Insert_hint@AEAU?$pair@QEBVtype_info@@V?$function@$$A6A_NAEBVany@linb@@0@Z@std@@@std@@PEAU?$_Tree_node@U?$pair@QEBVtype_info@@V?$function@$$A6A_NAEBVany@linb@@0@Z@std@@@std@@PEAX@2@@?$_Tree@V?$_Tmap_traits@PEBVtype_info@@V?$function@$$A6A_NAEBVany@linb@@0@Z@std@@U?$less@PEBVtype_info@@@3@V?$allocator@U?$pair@QEBVtype_info@@V?$function@$$A6A_NAEBVany@linb@@0@Z@std@@@std@@@3@$0A@@std@@@std@@IEAA?AV?$_Tree_iterator@V?$_Tree_val@U?$_Tree_simple_types@U?$pair@QEBVtype_info@@V?$function@$$A6A_NAEBVany@linb@@0@Z@std@@@std@@@std@@@std@@@1@V?$_Tree_const_iterator@V?$_Tree_val@U?$_Tree_simple_types@U?$pair@QEBVtype_info@@V?$function@$$A6A_NAEBVany@linb@@0@Z@std@@@std@@@std@@@std@@@1@AEAU?$pair@QEBVtype_info@@V?$function@$$A6A_NAEBVany@linb@@0@Z@std@@@1@PEAU?$_Tree_node@U?$pair@QEBVtype_info@@V?$function@$$A6A_NAEBVany@linb@@0@Z@std@@@std@@PEAX@1@@Z
	??$_Insert_nohint@AEAPEAVComposable@v1_0@opentimelineio@@PEAU?$_Tree_node@PEAVComposable@v1_0@opentimelineio@@PEAX@std@@@?$_Tree@V?$_Tset_traits@PEAVComposable@v1_0@opentimelineio@@U?$less@PEAVComposable@v1_0@opentimelineio@@@std@@V?$allocator@PEAVComposable@v1_0@opentimelineio@@@5@$0A@@std@@@std@@IEAA?AU?$pair@V?$_Tree_const_iterator@V?$_Tree_val@U?$_Tree_simple_types@PEAVComposable@v1_0@opentimelineio@@@std@@@std@@@std@@_N@1@_NAEAPEAVComposable@v1_0@opentimelineio@@PEAU?$_Tree_node@PEAVComposable@v1_0@opentimelineio@@PEAX@1@@Z
	??$_Insert_nohint@AEAU?$pair@$$CBHV?$function@$$A6AXPEAVAnyDictionary@v1_0@opentimelineio@@@Z@std@@@std@@PEAU?$_Tree_node@U?$pair@$$CBHV?$function@$$A6AXPEAVAnyDictionary@v1_0@opentimelineio@@@Z@std@@@std@@PEAX@2@@?$_Tree@V?$_Tmap_traits@HV?$function@$$A6AXPEAVAnyDictionary@v1_0@opentimelineio@@@Z@std@@U?$less@H@2@V?$allocator@U?$pair@$$CBHV?$function@$$A6AXPEAVAnyDictionary@v1_0@opentimelineio@@@Z@std@@@std@@@2@$0A@@std@@@std@@IEAA?AU?$pair@V?$_Tree_iterator@V?$_Tree_val@U?$_Tree_simple_types@U?$pair@$$CBHV?$function@$$A6AXPEAVAnyDictionary@v1_0@opentimelineio@@@Z@std@@@std@@@std@@@std@@@std@@_N@1@_NAEAU?$pair@$$CBHV?$function@$$A6AXPEAVAnyDictionary@v1_0@opentimelineio@@@Z@std@@@1@PEAU?$_Tree_node@U?$pair@$$CBHV?$function@$$A6AXPEAVAnyDictionary@v1_0@opentimelineio@@@Z@std@@@std@@PEAX@1@@Z
	??$_Insert_nohint@AEAU?$pair@$$CBV?$basic_string@DU?$char_traits@D@std@@V?$allocator@D@2@@std@@H@std@@PEAU?$_Tree_node@U?$pair@$$CBV?$basic_string@DU?$char_traits@D@std@@V?$allocator@D@2@@std@@H@std@@PEAX@2@@?$_Tree@V?$_Tmap_traits@V?$basic_string@DU?$char_traits@D@std@@V?$allocator@D@2@@std@@HU?$less@V?$basic_string@DU?$char_traits@D@std@@V?$allocator@D@2@@std@@@2@V?$allocator@U?$pair@$$CBV?$basic_string@DU?$char_traits@D@std@@V?$allocator@D@2@@std@@H@std@@@2@$0A@@std@@@std@@IEAA?AU?$pair@V?$_Tree_iterator@V?$_Tree_val@U?$_Tree_simple_types@U?$pair@$$CBV?$basic_string@DU?$char_traits@D@std@@V?$allocator@D@2@@std@@H@std@@@std@@@std@@@std@@_N@1@_NAEAU?$pair@$$CBV?$basic_string@DU?$char_traits@D@std@@V?$allocator@D@2@@std@@H@1@PEAU?$_Tree_node@U?$pair@$$CBV?$basic_string@DU?$char_traits@D@std@@V?$allocator@D@2@@std@@H@std@@PEAX@1@@Z
	??$_Insert_nohint@AEAU?$pair@$$CBV?$basic_string@DU?$char_traits@D@std@@V?$allocator@D@2@@std@@PEAVSerializableObject@v1_0@opentimelineio@@@std@@PEAU?$_Tree_node@U?$pair@$$CBV?$basic_string@DU?$char_traits@D@std@@V?$allocator@D@2@@std@@PEAVSerializableObject@v1_0@opentimelineio@@@std@@PEAX@2@@?$_Tree@V?$_Tmap_traits@V?$basic_string@DU?$char_traits@D@std@@V?$allocator@D@2@@std@@PEAVSerializableObject@v1_0@opentimelineio@@U?$less@V?$basic_string@DU?$char_traits@D@std@@V?$allocator@D@2@@std@@@2@V?$allocator@U?$pair@$$CBV?$basic_string@DU?$char_traits@D@std@@V?$allocator@D@2@@std@@PEAVSerializableObject@v1_0@opentimelineio@@@std@@@2@$0A@@std@@@std@@IEAA?AU?$pair@V?$_Tree_iterator@V?$_Tree_val@U?$_Tree_simple_types@U?$pair@$$CBV?$basic_string@DU?$char_traits@D@std@@V?$allocator@D@2@@std@@PEAVSerializableObject@v1_0@opentimelineio@@@std@@@std@@@std@@@std@@_N@1@_NAEAU?$pair@$$CBV?$basic_string@DU?$char_traits@D@std@@V?$allocator@D@2@@std@@PEAVSerializableObject@v1_0@opentimelineio@@@1@PEAU?$_Tree_node@U?$pair@$$CBV?$basic_string@DU?$char_traits@D@std@@V?$allocator@D@2@@std@@PEAVSerializableObject@v1_0@opentimelineio@@@std@@PEAX@1@@Z
	??$_Insert_nohint@AEAU?$pair@$$CBV?$basic_string@DU?$char_traits@D@std@@V?$allocator@D@2@@std@@PEAV_TypeRecord@TypeRegistry@v1_0@opentimelineio@@@std@@PEAU?$_Tree_node@U?$pair@$$CBV?$basic_string@DU?$char_traits@D@std@@V?$allocator@D@2@@std@@PEAV_TypeRecord@TypeRegistry@v1_0@opentimelineio@@@std@@PEAX@2@@?$_Tree@V?$_Tmap_traits@V?$basic_string@DU?$char_traits@D@std@@V?$allocator@D@2@@std@@PEAV_TypeRecord@TypeRegistry@v1_0@opentimelineio@@U?$less@V?$basic_string@DU?$char_traits@D@std@@V?$allocator@D@2@@std@@@2@V?$allocator@U?$pair@$$CBV?$basic_string@DU?$char_traits@D@std@@V?$allocator@D@2@@std@@PEAV_TypeRecord@TypeRegistry@v1_0@opentimelineio@@@std@@@2@$0A@@std@@@std@@IEAA?AU?$pair@V?$_Tree_iterator@V?$_Tree_val@U?$_Tree_simple_types@U?$pair@$$CBV?$basic_string@DU?$char_traits@D@std@@V?$allocator@D@2@@std@@PEAV_TypeRecord@TypeRegistry@v1_0@opentimelineio@@@std@@@std@@@std@@@std@@_N@1@_NAEAU?$pair@$$CBV?$basic_string@DU?$char_traits@D@std@@V?$allocator@D@2@@std@@PEAV_TypeRecord@TypeRegistry@v1_0@opentimelineio@@@1@PEAU?$_Tree_node@U?$pair@$$CBV?$basic_string@DU?$char_traits@D@std@@V?$allocator@D@2@@std@@PEAV_TypeRecord@TypeRegistry@v1_0@opentimelineio@@@std@@PEAX@1@@Z
	??$_Insert_nohint@AEAU?$pair@$$CBV?$basic_string@DU?$char_traits@D@std@@V?$allocator@D@2@@std@@V?$function@$$A6AXAEBVany@linb@@@Z@2@@std@@PEAU?$_Tree_node@U?$pair@$$CBV?$basic_string@DU?$char_traits@D@std@@V?$allocator@D@2@@std@@V?$function@$$A6AXAEBVany@linb@@@Z@2@@std@@PEAX@2@@?$_Tree@V?$_Tmap_traits@V?$basic_string@DU?$char_traits@D@std@@V?$allocator@D@2@@std@@V?$function@$$A6AXAEBVany@linb@@@Z@2@U?$less@V?$basic_string@DU?$char_traits@D@std@@V?$allocator@D@2@@std@@@2@V?$allocator@U?$pair@$$CBV?$basic_string@DU?$char_traits@D@std@@V?$allocator@D@2@@std@@V?$function@$$A6AXAEBVany@linb@@@Z@2@@std@@@2@$0A@@std@@@std@@IEAA?AU?$pair@V?$_Tree_iterator@V?$_Tree_val@U?$_Tree_simple_types@U?$pair@$$CBV?$basic_string@DU?$char_traits@D@std@@V?$allocator@D@2@@std@@V?$function@$$A6AXAEBVany@linb@@@Z@2@@std@@@std@@@std@@@std@@_N@1@_NAEAU?$pair@$$CBV?$basic_string@DU?$char_traits@D@std@@V?$allocator@D@2@@std@@V?$function@$$A6AXAEBVany@linb@@@Z@2@@1@PEAU?$_Tree_node@U?$pair@$$CBV?$basic_string@DU?$char_traits@D@std@@V?$allocator@D@2@@std@@V?$function@$$A6AXAEBVany@linb@@@Z@2@@std@@PEAX@1@@Z
	??$_Insert_nohint@AEAU?$pair@$$CBV?$basic_string@DU?$char_traits@D@std@@V?$allocator@D@2@@std@@Vany@linb@@@std@@PEAU?$_Tree_node@U?$pair@$$CBV?$basic_string@DU?$char_traits@D@std@@V?$allocator@D@2@@std@@Vany@linb@@@std@@PEAX@2@@?$_Tree@V?$_Tmap_traits@V?$basic_string@DU?$char_traits@D@std@@V?$allocator@D@2@@std@@Vany@linb@@U?$less@V?$basic_string@DU?$char_traits@D@std@@V?$allocator@D@2@@std@@@2@V?$allocator@U?$pair@$$CBV?$basic_string@DU?$char_traits@D@std@@V?$allocator@D@2@@std@@Vany@linb@@@std@@@2@$0A@@std@@@std@@IEAA?AU?$pair@V?$_Tree_iterator@V?$_Tree_val@U?$_Tree_simple_types@U?$pair@$$CBV?$basic_string@DU?$char_traits@D@std@@V?$allocator@D@2@@std@@Vany@linb@@@std@@@std@@@std@@@std@@_N@1@_NAEAU?$pair@$$CBV?$basic_string@DU?$char_traits@D@std@@V?$allocator@D@2@@std@@Vany@linb@@@1@PEAU?$_Tree_node@U?$pair@$$CBV?$basic_string@DU?$char_traits@D@std@@V?$allocator@D@2@@std@@Vany@linb@@@std@@PEAX@1@@Z
	??$_Insert_nohint@AEAU?$pair@QEAVComposable@v1_0@opentimelineio@@VTimeRange@2opentime@@@std@@PEAU?$_Tree_node@U?$pair@QEAVComposable@v1_0@opentimelineio@@VTimeRange@2opentime@@@std@@PEAX@2@@?$_Tree@V?$_Tmap_traits@PEAVComposable@v1_0@opentimelineio@@VTimeRange@2opentime@@U?$less@PEAVComposable@v1_0@opentimelineio@@@std@@V?$allocator@U?$pair@QEAVComposable@v1_0@opentimelineio@@VTimeRange@2opentime@@@std@@@7@$0A@@std@@@std@@IEAA?AU?$pair@V?$_Tree_iterator@V?$_Tree_val@U?$_Tree_simple_types@U?$pair@QEAVComposable@v1_0@opentimelineio@@VTimeRange@2opentime@@@std@@@std@@@std@@@std@@_N@1@_NAEAU?$pair@QEAVComposable@v1_0@opentimelineio@@VTimeRange@2opentime@@@1@PEAU?$_Tree_node@U?$pair@QEAVComposable@v1_0@opentimelineio@@VTimeRange@2opentime@@@std@@PEAX@1@@Z
	??$_Insert_nohint@AEAU?$pair@QEAVSerializableObject@v1_0@opentimelineio@@H@std@@PEAU?$_Tree_node@U?$pair@QEAVSerializableObject@v1_0@opentimelineio@@H@std@@PEAX@2@@?$_Tree@V?$_Tmap_traits@PEAVSerializableObject@v1_0@opentimelineio@@HU?$less@PEAVSerializableObject@v1_0@opentimelineio@@@std@@V?$allocator@U?$pair@QEAVSerializableObject@v1_0@opentimelineio@@H@std@@@5@$0A@@std@@@std@@IEAA?AU?$pair@V?$_Tree_iterator@V?$_Tree_val@U?$_Tree_simple_types@U?$pair@QEAVSerializableObject@v1_0@opentimelineio@@H@std@@@std@@@std@@@std@@_N@1@_NAEAU?$pair@QEAVSerializableObject@v1_0@opentimelineio@@H@1@PEAU?$_Tree_node@U?$pair@QEAVSerializableObject@v1_0@opentimelineio@@H@std@@PEAX@1@@Z
	??$_Insert_nohint@AEAU?$pair@QEAVSerializableObject@v1_0@opentimelineio@@VAnyDictionary@23@@std@@PEAU?$_Tree_node@U?$pair@QEAVSerializableObject@v1_0@opentimelineio@@VAnyDictionary@23@@std@@PEAX@2@@?$_Tree@V?$_Tmap_traits@PEAVSerializableObject@v1_0@opentimelineio@@VAnyDictionary@23@U?$less@PEAVSerializableObject@v1_0@opentimelineio@@@std@@V?$allocator@U?$pair@QEAVSerializableObject@v1_0@opentimelineio@@VAnyDictionary@23@@std@@@6@$0A@@std@@@std@@IEAA?AU?$pair@V?$_Tree_iterator@V?$_Tree_val@U?$_Tree_simple_types@U?$pair@QEAVSerializableObject@v1_0@opentimelineio@@VAnyDictionary@23@@std@@@std@@@std@@@std@@_N@1@_NAEAU?$pair@QEAVSerializableObject@v1_0@opentimelineio@@VAnyDictionary@23@@1@PEAU?$_Tree_node@U?$pair@QEAVSerializableObject@v1_0@opentimelineio@@VAnyDictionary@23@@std@@PEAX@1@@Z
	??$_Insert_nohint@AEAU?$pair@QEAVTrack@v1_0@opentimelineio@@V?$map@PEAVComposable@v1_0@opentimelineio@@VTimeRange@2opentime@@U?$less@PEAVComposable@v1_0@opentimelineio@@@std@@V?$allocator@U?$pair@QEAVComposable@v1_0@opentimelineio@@VTimeRange@2opentime@@@std@@@7@@std@@@std@@PEAU?$_Tree_node@U?$pair@QEAVTrack@v1_0@opentimelineio@@V?$map@PEAVComposable@v1_0@opentimelineio@@VTimeRange@2opentime@@U?$less@PEAVComposable@v1_0@opentimelineio@@@std@@V?$allocator@U?$pair@QEAVComposable@v1_0@opentimelineio@@VTimeRange@2opentime@@@std@@@7@@std@@@std@@PEAX@2@@?$_Tree@V?$_Tmap_traits@PEAVTrack@v1_0@opentimelineio@@V?$map@PEAVComposable@v1_0@opentimelineio@@VTimeRange@2opentime@@U?$less@PEAVComposable@v1_0@opentimelineio@@@std@@V?$allocator@U?$pair@QEAVComposable@v1_0@opentimelineio@@VTimeRange@2opentime@@@std@@@7@@std@@U?$less@PEAVTrack@v1_0@opentimelineio@@@5@V?$allocator@U?$pair@QEAVTrack@v1_0@opentimelineio@@V?$map@PEAVComposable@v1_0@opentimelineio@@VTimeRange@2opentime@@U?$less@PEAVComposable@v1_0@opentimelineio@@@std@@V?$allocator@U?$pair@QEAVComposable@v1_0@opentimelineio@@VTimeRange@2opentime@@@std@@@7@@std@@@std@@@5@$0A@@std@@@std@@IEAA?AU?$pair@V?$_Tree_iterator@V?$_Tree_val@U?$_Tree_simple_types@U?$pair@QEAVTrack@v1_0@opentimelineio@@V?$map@PEAVComposable@v1_0@opentimelineio@@VTimeRange@2opentime@@U?$less@PEAVComposable@v1_0@opentimelineio@@@std@@V?$allocator@U?$pair@QEAVComposable@v1_0@opentimelineio@@VTimeRange@2opentime@@@std@@@7@@std@@@std@@@std@@@std@@@std@@_N@1@_NAEAU?$pair@QEAVTrack@v1_0@opentimelineio@@V?$map@PEAVComposable@v1_0@opentimelineio@@VTimeRange@2opentime@@U?$less@PEAVComposable@v1_0@opentimelineio@@@std@@V?$allocator@U?$pair@QEAVComposable@v1_0@opentimelineio@@VTimeRange@2opentime@@@std@@@7@@std@@@1@PEAU?$_Tree_node@U?$pair@QEAVTrack@v1_0@opentimelineio@@V?$map@PEAVComposable@v1_0@opentimelineio@@VTimeRange@2opentime@@U?$less@PEAVComposable@v1_0@opentimelineio@@@std@@V?$allocator@U?$pair@QEAVComposable@v1_0@opentimelineio@@VTimeRange@2opentime@@@std@@@7@@std@@@std@@PEAX@1@@Z
	??$_Insert_nohint@AEAU?$pair@QEBVSerializableObject@v1_0@opentimelineio@@V?$basic_string@DU?$char_traits@D@std@@V?$allocator@D@2@@std@@@std@@PEAU?$_Tree_node@U?$pair@QEBVSerializableObject@v1_0@opentimelineio@@V?$basic_string@DU?$char_traits@D@std@@V?$allocator@D@2@@std@@@std@@PEAX@2@@?$_Tree@V?$_Tmap_traits@PEBVSerializableObject@v1_0@opentimelineio@@V?$basic_string@DU?$char_traits@D@std@@V?$allocator@D@2@@std@@U?$less@PEBVSerializableObject@v1_0@opentimelineio@@@5@V?$allocator@U?$pair@QEBVSerializableObject@v1_0@opentimelineio@@V?$basic_string@DU?$char_traits@D@std@@V?$allocator@D@2@@std@@@std@@@5@$0A@@std@@@std@@IEAA?AU?$pair@V?$_Tree_iterator@V?$_Tree_val@U?$_Tree_simple_types@U?$pair@QEBVSerializableObject@v1_0@opentimelineio@@V?$basic_string@DU?$char_traits@D@std@@V?$allocator@D@2@@std@@@std@@@std@@@std@@@std@@_N@1@_NAEAU?$pair@QEBVSerializableObject@v1_0@opentimelineio@@V?$basic_string@DU?$char_traits@D@std@@V?$allocator@D@2@@std@@@1@PEAU?$_Tree_node@U?$pair@QEBVSerializableObject@v1_0@opentimelineio@@V?$basic_string@DU?$char_traits@D@std@@V?$allocator@D@2@@std@@@std@@PEAX@1@@Z
	??$_Insert_nohint@AEAU?$pair@QEBVtype_info@@V?$function@$$A6AXAEBVany@linb@@@Z@std@@@std@@PEAU?$_Tree_node@U?$pair@QEBVtype_info@@V?$function@$$A6AXAEBVany@linb@@@Z@std@@@std@@PEAX@2@@?$_Tree@V?$_Tmap_traits@PEBVtype_info@@V?$function@$$A6AXAEBVany@linb@@@Z@std@@U?$less@PEBVtype_info@@@3@V?$allocator@U?$pair@QEBVtype_info@@V?$function@$$A6AXAEBVany@linb@@@Z@std@@@std@@@3@$0A@@std@@@std@@IEAA?AU?$pair@V?$_Tree_iterator@V?$_Tree_val@U?$_Tree_simple_types@U?$pair@QEBVtype_info@@V?$function@$$A6AXAEBVany@linb@@@Z@std@@@std@@@std@@@std@@@std@@_N@1@_NAEAU?$pair@QEBVtype_info@@V?$function@$$A6AXAEBVany@linb@@@Z@std@@@1@PEAU?$_Tree_node@U?$pair@QEBVtype_info@@V?$function@$$A6AXAEBVany@linb@@@Z@std@@@std@@PEAX@1@@Z
	??$_Insert_nohint@AEAU?$pair@QEBVtype_info@@V?$function@$$A6A_NAEBVany@linb@@0@Z@std@@@std@@PEAU?$_Tree_node@U?$pair@QEBVtype_info@@V?$function@$$A6A_NAEBVany@linb@@0@Z@std@@@std@@PEAX@2@@?$_Tree@V?$_Tmap_traits@PEBVtype_info@@V?$function@$$A6A_NAEBVany@linb@@0@Z@std@@U?$less@PEBVtype_info@@@3@V?$allocator@U?$pair@QEBVtype_info@@V?$function@$$A6A_NAEBVany@linb@@0@Z@std@@@std@@@3@$0A@@std@@@std@@IEAA?AU?$pair@V?$_Tree_iterator@V?$_Tree_val@U?$_Tree_simple_types@U?$pair@QEBVtype_info@@V?$function@$$A6A_NAEBVany@linb@@0@Z@std@@@std@@@std@@@std@@@std@@_N@1@_NAEAU?$pair@QEBVtype_info@@V?$function@$$A6A_NAEBVany@linb@@0@Z@std@@@1@PEAU?$_Tree_node@U?$pair@QEBVtype_info@@V?$function@$$A6A_NAEBVany@linb@@0@Z@std@@@std@@PEAX@1@@Z
	??$_Insert_nohint@AEBQEAVComposable@v1_0@opentimelineio@@U_Not_a_node_tag@std@@@?$_Tree@V?$_Tset_traits@PEAVComposable@v1_0@opentimelineio@@U?$less@PEAVComposable@v1_0@opentimelineio@@@std@@V?$allocator@PEAVComposable@v1_0@opentimelineio@@@5@$0A@@std@@@std@@IEAA?AU?$pair@V?$_Tree_const_iterator@V?$_Tree_val@U?$_Tree_simple_types@PEAVComposable@v1_0@opentimelineio@@@std@@@std@@@std@@_N@1@_NAEBQEAVComposable@v1_0@opentimelineio@@U_Not_a_node_tag@1@@Z
	??$_Insert_nohint@AEBQEBVComposition@v1_0@opentimelineio@@U_Not_a_node_tag@std@@@?$_Tree@V?$_Tset_traits@PEBVComposition@v1_0@opentimelineio@@U?$less@PEBVComposition@v1_0@opentimelineio@@@std@@V?$allocator@PEBVComposition@v1_0@opentimelineio@@@5@$0A@@std@@@std@@IEAA?AU?$pair@V?$_Tree_const_iterator@V?$_Tree_val@U?$_Tree_simple_types@PEBVComposition@v1_0@opentimelineio@@@std@@@std@@@std@@_N@1@_NAEBQEBVComposition@v1_0@opentimelineio@@U_Not_a_node_tag@1@@Z
	??$_Integral_to_string@DH@std@@YA?AV?$basic_string@DU?$char_traits@D@std@@V?$allocator@D@2@@0@H@Z
	??$_Kfn@$$CBHV?$function@$$A6AXPEAVAnyDictionary@v1_0@opentimelineio@@@Z@std@@@?$_Tmap_traits@HV?$function@$$A6AXPEAVAnyDictionary@v1_0@opentimelineio@@@Z@std@@U?$less@H@2@V?$allocator@U?$pair@$$CBHV?$function@$$A6AXPEAVAnyDictionary@v1_0@opentimelineio@@@Z@std@@@std@@@2@$0A@@std@@SAAEBHAEBU?$pair@$$CBHV?$function@$$A6AXPEAVAnyDictionary@v1_0@opentimelineio@@@Z@std@@@1@@Z
	??$_Kfn@$$CBV?$basic_string@DU?$char_traits@D@std@@V?$allocator@D@2@@std@@H@?$_Tmap_traits@V?$basic_string@DU?$char_traits@D@std@@V?$allocator@D@2@@std@@HU?$less@V?$basic_string@DU?$char_traits@D@std@@V?$allocator@D@2@@std@@@2@V?$allocator@U?$pair@$$CBV?$basic_string@DU?$char_traits@D@std@@V?$allocator@D@2@@std@@H@std@@@2@$0A@@std@@SAAEBV?$basic_string@DU?$char_traits@D@std@@V?$allocator@D@2@@1@AEBU?$pair@$$CBV?$basic_string@DU?$char_traits@D@std@@V?$allocator@D@2@@std@@H@1@@Z
	??$_Kfn@$$CBV?$basic_string@DU?$char_traits@D@std@@V?$allocator@D@2@@std@@PEAVSerializableObject@v1_0@opentimelineio@@@?$_Tmap_traits@V?$basic_string@DU?$char_traits@D@std@@V?$allocator@D@2@@std@@PEAVSerializableObject@v1_0@opentimelineio@@U?$less@V?$basic_string@DU?$char_traits@D@std@@V?$allocator@D@2@@std@@@2@V?$allocator@U?$pair@$$CBV?$basic_string@DU?$char_traits@D@std@@V?$allocator@D@2@@std@@PEAVSerializableObject@v1_0@opentimelineio@@@std@@@2@$0A@@std@@SAAEBV?$basic_string@DU?$char_traits@D@std@@V?$allocator@D@2@@1@AEBU?$pair@$$CBV?$basic_string@DU?$char_traits@D@std@@V?$allocator@D@2@@std@@PEAVSerializableObject@v1_0@opentimelineio@@@1@@Z
	??$_Kfn@$$CBV?$basic_string@DU?$char_traits@D@std@@V?$allocator@D@2@@std@@PEAV_TypeRecord@TypeRegistry@v1_0@opentimelineio@@@?$_Tmap_traits@V?$basic_string@DU?$char_traits@D@std@@V?$allocator@D@2@@std@@PEAV_TypeRecord@TypeRegistry@v1_0@opentimelineio@@U?$less@V?$basic_string@DU?$char_traits@D@std@@V?$allocator@D@2@@std@@@2@V?$allocator@U?$pair@$$CBV?$basic_string@DU?$char_traits@D@std@@V?$allocator@D@2@@std@@PEAV_TypeRecord@TypeRegistry@v1_0@opentimelineio@@@std@@@2@$0A@@std@@SAAEBV?$basic_string@DU?$char_traits@D@std@@V?$allocator@D@2@@1@AEBU?$pair@$$CBV?$basic_string@DU?$char_traits@D@std@@V?$allocator@D@2@@std@@PEAV_TypeRecord@TypeRegistry@v1_0@opentimelineio@@@1@@Z
	??$_Kfn@$$CBV?$basic_string@DU?$char_traits@D@std@@V?$allocator@D@2@@std@@V?$function@$$A6AXAEBVany@linb@@@Z@2@@?$_Tmap_traits@V?$basic_string@DU?$char_traits@D@std@@V?$allocator@D@2@@std@@V?$function@$$A6AXAEBVany@linb@@@Z@2@U?$less@V?$basic_string@DU?$char_traits@D@std@@V?$allocator@D@2@@std@@@2@V?$allocator@U?$pair@$$CBV?$basic_string@DU?$char_traits@D@std@@V?$allocator@D@2@@std@@V?$function@$$A6AXAEBVany@linb@@@Z@2@@std@@@2@$0A@@std@@SAAEBV?$basic_string@DU?$char_traits@D@std@@V?$allocator@D@2@@1@AEBU?$pair@$$CBV?$basic_string@DU?$char_traits@D@std@@V?$allocator@D@2@@std@@V?$function@$$A6AXAEBVany@linb@@@Z@2@@1@@Z
	??$_Kfn@$$CBV?$basic_string@DU?$char_traits@D@std@@V?$allocator@D@2@@std@@Vany@linb@@@?$_Tmap_traits@V?$basic_string@DU?$char_traits@D@std@@V?$allocator@D@2@@std@@Vany@linb@@U?$less@V?$basic_string@DU?$char_traits@D@std@@V?$allocator@D@2@@std@@@2@V?$allocator@U?$pair@$$CBV?$basic_string@DU?$char_traits@D@std@@V?$allocator@D@2@@std@@Vany@linb@@@std@@@2@$0A@@std@@SAAEBV?$basic_string@DU?$char_traits@D@std@@V?$allocator@D@2@@1@AEBU?$pair@$$CBV?$basic_string@DU?$char_traits@D@std@@V?$allocator@D@2@@std@@Vany@linb@@@1@@Z
	??$_Kfn@QEAVComposable@v1_0@opentimelineio@@VTimeRange@2opentime@@@?$_Tmap_traits@PEAVComposable@v1_0@opentimelineio@@VTimeRange@2opentime@@U?$less@PEAVComposable@v1_0@opentimelineio@@@std@@V?$allocator@U?$pair@QEAVComposable@v1_0@opentimelineio@@VTimeRange@2opentime@@@std@@@7@$0A@@std@@SAAEBQEAVComposable@v1_0@opentimelineio@@AEBU?$pair@QEAVComposable@v1_0@opentimelineio@@VTimeRange@2opentime@@@1@@Z
	??$_Kfn@QEAVSerializableObject@v1_0@opentimelineio@@H@?$_Tmap_traits@PEAVSerializableObject@v1_0@opentimelineio@@HU?$less@PEAVSerializableObject@v1_0@opentimelineio@@@std@@V?$allocator@U?$pair@QEAVSerializableObject@v1_0@opentimelineio@@H@std@@@5@$0A@@std@@SAAEBQEAVSerializableObject@v1_0@opentimelineio@@AEBU?$pair@QEAVSerializableObject@v1_0@opentimelineio@@H@1@@Z
	??$_Kfn@QEAVSerializableObject@v1_0@opentimelineio@@VAnyDictionary@23@@?$_Tmap_traits@PEAVSerializableObject@v1_0@opentimelineio@@VAnyDictionary@23@U?$less@PEAVSerializableObject@v1_0@opentimelineio@@@std@@V?$allocator@U?$pair@QEAVSerializableObject@v1_0@opentimelineio@@VAnyDictionary@23@@std@@@6@$0A@@std@@SAAEBQEAVSerializableObject@v1_0@opentimelineio@@AEBU?$pair@QEAVSerializableObject@v1_0@opentimelineio@@VAnyDictionary@23@@1@@Z
	??$_Kfn@QEAVTrack@v1_0@opentimelineio@@V?$map@PEAVComposable@v1_0@opentimelineio@@VTimeRange@2opentime@@U?$less@PEAVComposable@v1_0@opentimelineio@@@std@@V?$allocator@U?$pair@QEAVComposable@v1_0@opentimelineio@@VTimeRange@2opentime@@@std@@@7@@std@@@?$_Tmap_traits@PEAVTrack@v1_0@opentimelineio@@V?$map@PEAVComposable@v1_0@opentimelineio@@VTimeRange@2opentime@@U?$less@PEAVComposable@v1_0@opentimelineio@@@std@@V?$allocator@U?$pair@QEAVComposable@v1_0@opentimelineio@@VTimeRange@2opentime@@@std@@@7@@std@@U?$less@PEAVTrack@v1_0@opentimelineio@@@5@V?$allocator@U?$pair@QEAVTrack@v1_0@opentimelineio@@V?$map@PEAVComposable@v1_0@opentimelineio@@VTimeRange@2opentime@@U?$less@PEAVComposable@v1_0@opentimelineio@@@std@@V?$allocator@U?$pair@QEAVComposable@v1_0@opentimelineio@@VTimeRange@2opentime@@@std@@@7@@std@@@std@@@5@$0A@@std@@SAAEBQEAVTrack@v1_0@opentimelineio@@AEBU?$pair@QEAVTrack@v1_0@opentimelineio@@V?$map@PEAVComposable@v1_0@opentimelineio@@VTimeRange@2opentime@@U?$less@PEAVComposable@v1_0@opentimelineio@@@std@@V?$allocator@U?$pair@QEAVComposable@v1_0@opentimelineio@@VTimeRange@2opentime@@@std@@@7@@std@@@1@@Z
	??$_Kfn@QEBVSerializableObject@v1_0@opentimelineio@@V?$basic_string@DU?$char_traits@D@std@@V?$allocator@D@2@@std@@@?$_Tmap_traits@PEBVSerializableObject@v1_0@opentimelineio@@V?$basic_string@DU?$char_traits@D@std@@V?$allocator@D@2@@std@@U?$less@PEBVSerializableObject@v1_0@opentimelineio@@@5@V?$allocator@U?$pair@QEBVSerializableObject@v1_0@opentimelineio@@V?$basic_string@DU?$char_traits@D@std@@V?$allocator@D@2@@std@@@std@@@5@$0A@@std@@SAAEBQEBVSerializableObject@v1_0@opentimelineio@@AEBU?$pair@QEBVSerializableObject@v1_0@opentimelineio@@V?$basic_string@DU?$char_traits@D@std@@V?$allocator@D@2@@std@@@1@@Z
	??$_Kfn@QEBVtype_info@@V?$function@$$A6AXAEBVany@linb@@@Z@std@@@?$_Tmap_traits@PEBVtype_info@@V?$function@$$A6AXAEBVany@linb@@@Z@std@@U?$less@PEBVtype_info@@@3@V?$allocator@U?$pair@QEBVtype_info@@V?$function@$$A6AXAEBVany@linb@@@Z@std@@@std@@@3@$0A@@std@@SAAEBQEBVtype_info@@AEBU?$pair@QEBVtype_info@@V?$function@$$A6AXAEBVany@linb@@@Z@std@@@1@@Z
	??$_Kfn@QEBVtype_info@@V?$function@$$A6A_NAEBVany@linb@@0@Z@std@@@?$_Tmap_traits@PEBVtype_info@@V?$function@$$A6A_NAEBVany@linb@@0@Z@std@@U?$less@PEBVtype_info@@@3@V?$allocator@U?$pair@QEBVtype_info@@V?$function@$$A6A_NAEBVany@linb@@0@Z@std@@@std@@@3@$0A@@std@@SAAEBQEBVtype_info@@AEBU?$pair@QEBVtype_info@@V?$function@$$A6A_NAEBVany@linb@@0@Z@std@@@1@@Z
	??$_Lbound@H@?$_Tree@V?$_Tmap_traits@HV?$function@$$A6AXPEAVAnyDictionary@v1_0@opentimelineio@@@Z@std@@U?$less@H@2@V?$allocator@U?$pair@$$CBHV?$function@$$A6AXPEAVAnyDictionary@v1_0@opentimelineio@@@Z@std@@@std@@@2@$0A@@std@@@std@@IEBAPEAU?$_Tree_node@U?$pair@$$CBHV?$function@$$A6AXPEAVAnyDictionary@v1_0@opentimelineio@@@Z@std@@@std@@PEAX@1@AEBH@Z
	??$_Lbound@PEAVComposable@v1_0@opentimelineio@@@?$_Tree@V?$_Tmap_traits@PEAVComposable@v1_0@opentimelineio@@VTimeRange@2opentime@@U?$less@PEAVComposable@v1_0@opentimelineio@@@std@@V?$allocator@U?$pair@QEAVComposable@v1_0@opentimelineio@@VTimeRange@2opentime@@@std@@@7@$0A@@std@@@std@@IEBAPEAU?$_Tree_node@U?$pair@QEAVComposable@v1_0@opentimelineio@@VTimeRange@2opentime@@@std@@PEAX@1@AEBQEAVComposable@v1_0@opentimelineio@@@Z
	??$_Lbound@PEAVComposable@v1_0@opentimelineio@@@?$_Tree@V?$_Tset_traits@PEAVComposable@v1_0@opentimelineio@@U?$less@PEAVComposable@v1_0@opentimelineio@@@std@@V?$allocator@PEAVComposable@v1_0@opentimelineio@@@5@$0A@@std@@@std@@IEBAPEAU?$_Tree_node@PEAVComposable@v1_0@opentimelineio@@PEAX@1@AEBQEAVComposable@v1_0@opentimelineio@@@Z
	??$_Lbound@PEAVSerializableObject@v1_0@opentimelineio@@@?$_Tree@V?$_Tmap_traits@PEAVSerializableObject@v1_0@opentimelineio@@HU?$less@PEAVSerializableObject@v1_0@opentimelineio@@@std@@V?$allocator@U?$pair@QEAVSerializableObject@v1_0@opentimelineio@@H@std@@@5@$0A@@std@@@std@@IEBAPEAU?$_Tree_node@U?$pair@QEAVSerializableObject@v1_0@opentimelineio@@H@std@@PEAX@1@AEBQEAVSerializableObject@v1_0@opentimelineio@@@Z
	??$_Lbound@PEAVTrack@v1_0@opentimelineio@@@?$_Tree@V?$_Tmap_traits@PEAVTrack@v1_0@opentimelineio@@V?$map@PEAVComposable@v1_0@opentimelineio@@VTimeRange@2opentime@@U?$less@PEAVComposable@v1_0@opentimelineio@@@std@@V?$allocator@U?$pair@QEAVComposable@v1_0@opentimelineio@@VTimeRange@2opentime@@@std@@@7@@std@@U?$less@PEAVTrack@v1_0@opentimelineio@@@5@V?$allocator@U?$pair@QEAVTrack@v1_0@opentimelineio@@V?$map@PEAVComposable@v1_0@opentimelineio@@VTimeRange@2opentime@@U?$less@PEAVComposable@v1_0@opentimelineio@@@std@@V?$allocator@U?$pair@QEAVComposable@v1_0@opentimelineio@@VTimeRange@2opentime@@@std@@@7@@std@@@std@@@5@$0A@@std@@@std@@IEBAPEAU?$_Tree_node@U?$pair@QEAVTrack@v1_0@opentimelineio@@V?$map@PEAVComposable@v1_0@opentimelineio@@VTimeRange@2opentime@@U?$less@PEAVComposable@v1_0@opentimelineio@@@std@@V?$allocator@U?$pair@QEAVComposable@v1_0@opentimelineio@@VTimeRange@2opentime@@@std@@@7@@std@@@std@@PEAX@1@AEBQEAVTrack@v1_0@opentimelineio@@@Z
	??$_Lbound@PEBVSerializableObject@v1_0@opentimelineio@@@?$_Tree@V?$_Tmap_traits@PEBVSerializableObject@v1_0@opentimelineio@@V?$basic_string@DU?$char_traits@D@std@@V?$allocator@D@2@@std@@U?$less@PEBVSerializableObject@v1_0@opentimelineio@@@5@V?$allocator@U?$pair@QEBVSerializableObject@v1_0@opentimelineio@@V?$basic_string@DU?$char_traits@D@std@@V?$allocator@D@2@@std@@@std@@@5@$0A@@std@@@std@@IEBAPEAU?$_Tree_node@U?$pair@QEBVSerializableObject@v1_0@opentimelineio@@V?$basic_string@DU?$char_traits@D@std@@V?$allocator@D@2@@std@@@std@@PEAX@1@AEBQEBVSerializableObject@v1_0@opentimelineio@@@Z
	??$_Lbound@PEBVtype_info@@@?$_Tree@V?$_Tmap_traits@PEBVtype_info@@V?$function@$$A6AXAEBVany@linb@@@Z@std@@U?$less@PEBVtype_info@@@3@V?$allocator@U?$pair@QEBVtype_info@@V?$function@$$A6AXAEBVany@linb@@@Z@std@@@std@@@3@$0A@@std@@@std@@IEBAPEAU?$_Tree_node@U?$pair@QEBVtype_info@@V?$function@$$A6AXAEBVany@linb@@@Z@std@@@std@@PEAX@1@AEBQEBVtype_info@@@Z
	??$_Lbound@PEBVtype_info@@@?$_Tree@V?$_Tmap_traits@PEBVtype_info@@V?$function@$$A6A_NAEBVany@linb@@0@Z@std@@U?$less@PEBVtype_info@@@3@V?$allocator@U?$pair@QEBVtype_info@@V?$function@$$A6A_NAEBVany@linb@@0@Z@std@@@std@@@3@$0A@@std@@@std@@IEBAPEAU?$_Tree_node@U?$pair@QEBVtype_info@@V?$function@$$A6A_NAEBVany@linb@@0@Z@std@@@std@@PEAX@1@AEBQEBVtype_info@@@Z
	??$_Lbound@V?$basic_string@DU?$char_traits@D@std@@V?$allocator@D@2@@std@@@?$_Tree@V?$_Tmap_traits@V?$basic_string@DU?$char_traits@D@std@@V?$allocator@D@2@@std@@HU?$less@V?$basic_string@DU?$char_traits@D@std@@V?$allocator@D@2@@std@@@2@V?$allocator@U?$pair@$$CBV?$basic_string@DU?$char_traits@D@std@@V?$allocator@D@2@@std@@H@std@@@2@$0A@@std@@@std@@IEBAPEAU?$_Tree_node@U?$pair@$$CBV?$basic_string@DU?$char_traits@D@std@@V?$allocator@D@2@@std@@H@std@@PEAX@1@AEBV?$basic_string@DU?$char_traits@D@std@@V?$allocator@D@2@@1@@Z
	??$_Lbound@V?$basic_string@DU?$char_traits@D@std@@V?$allocator@D@2@@std@@@?$_Tree@V?$_Tmap_traits@V?$basic_string@DU?$char_traits@D@std@@V?$allocator@D@2@@std@@PEAVSerializableObject@v1_0@opentimelineio@@U?$less@V?$basic_string@DU?$char_traits@D@std@@V?$allocator@D@2@@std@@@2@V?$allocator@U?$pair@$$CBV?$basic_string@DU?$char_traits@D@std@@V?$allocator@D@2@@std@@PEAVSerializableObject@v1_0@opentimelineio@@@std@@@2@$0A@@std@@@std@@IEBAPEAU?$_Tree_node@U?$pair@$$CBV?$basic_string@DU?$char_traits@D@std@@V?$allocator@D@2@@std@@PEAVSerializableObject@v1_0@opentimelineio@@@std@@PEAX@1@AEBV?$basic_string@DU?$char_traits@D@std@@V?$allocator@D@2@@1@@Z
	??$_Lbound@V?$basic_string@DU?$char_traits@D@std@@V?$allocator@D@2@@std@@@?$_Tree@V?$_Tmap_traits@V?$basic_string@DU?$char_traits@D@std@@V?$allocator@D@2@@std@@PEAV_TypeRecord@TypeRegistry@v1_0@opentimelineio@@U?$less@V?$basic_string@DU?$char_traits@D@std@@V?$allocator@D@2@@std@@@2@V?$allocator@U?$pair@$$CBV?$basic_string@DU?$char_traits@D@std@@V?$allocator@D@2@@std@@PEAV_TypeRecord@TypeRegistry@v1_0@opentimelineio@@@std@@@2@$0A@@std@@@std@@IEBAPEAU?$_Tree_node@U?$pair@$$CBV?$basic_string@DU?$char_traits@D@std@@V?$allocator@D@2@@std@@PEAV_TypeRecord@TypeRegistry@v1_0@opentimelineio@@@std@@PEAX@1@AEBV?$basic_string@DU?$char_traits@D@std@@V?$allocator@D@2@@1@@Z
	??$_Lbound@V?$basic_string@DU?$char_traits@D@std@@V?$allocator@D@2@@std@@@?$_Tree@V?$_Tmap_traits@V?$basic_string@DU?$char_traits@D@std@@V?$allocator@D@2@@std@@V?$function@$$A6AXAEBVany@linb@@@Z@2@U?$less@V?$basic_string@DU?$char_traits@D@std@@V?$allocator@D@2@@std@@@2@V?$allocator@U?$pair@$$CBV?$basic_string@DU?$char_traits@D@std@@V?$allocator@D@2@@std@@V?$function@$$A6AXAEBVany@linb@@@Z@2@@std@@@2@$0A@@std@@@std@@IEBAPEAU?$_Tree_node@U?$pair@$$CBV?$basic_string@DU?$char_traits@D@std@@V?$allocator@D@2@@std@@V?$function@$$A6AXAEBVany@linb@@@Z@2@@std@@PEAX@1@AEBV?$basic_string@DU?$char_traits@D@std@@V?$allocator@D@2@@1@@Z
	??$_Lbound@V?$basic_string@DU?$char_traits@D@std@@V?$allocator@D@2@@std@@@?$_Tree@V?$_Tmap_traits@V?$basic_string@DU?$char_traits@D@std@@V?$allocator@D@2@@std@@Vany@linb@@U?$less@V?$basic_string@DU?$char_traits@D@std@@V?$allocator@D@2@@std@@@2@V?$allocator@U?$pair@$$CBV?$basic_string@DU?$char_traits@D@std@@V?$allocator@D@2@@std@@Vany@linb@@@std@@@2@$0A@@std@@@std@@IEBAPEAU?$_Tree_node@U?$pair@$$CBV?$basic_string@DU?$char_traits@D@std@@V?$allocator@D@2@@std@@Vany@linb@@@std@@PEAX@1@AEBV?$basic_string@DU?$char_traits@D@std@@V?$allocator@D@2@@1@@Z
	??$_Max_value@_K@std@@YAAEB_KAEB_K0@Z
	??$_Min_value@_K@std@@YAAEB_KAEB_K0@Z
	??$_Move_backward_unchecked1@PEAU?$Retainer@VComposable@v1_0@opentimelineio@@@SerializableObject@v1_0@opentimelineio@@PEAU1234@@std@@YAPEAU?$Retainer@VComposable@v1_0@opentimelineio@@@SerializableObject@v1_0@opentimelineio@@PEAU1234@00U_General_ptr_iterator_tag@0@@Z
	??$_Move_backward_unchecked1@PEAU?$Retainer@VSerializableObject@v1_0@opentimelineio@@@SerializableObject@v1_0@opentimelineio@@PEAU1234@@std@@YAPEAU?$Retainer@VSerializableObject@v1_0@opentimelineio@@@SerializableObject@v1_0@opentimelineio@@PEAU1234@00U_General_ptr_iterator_tag@0@@Z
	??$_Move_backward_unchecked@PEAU?$Retainer@VComposable@v1_0@opentimelineio@@@SerializableObject@v1_0@opentimelineio@@PEAU1234@@std@@YAPEAU?$Retainer@VComposable@v1_0@opentimelineio@@@SerializableObject@v1_0@opentimelineio@@PEAU1234@00@Z
	??$_Move_backward_unchecked@PEAU?$Retainer@VSerializableObject@v1_0@opentimelineio@@@SerializableObject@v1_0@opentimelineio@@PEAU1234@@std@@YAPEAU?$Retainer@VSerializableObject@v1_0@opentimelineio@@@SerializableObject@v1_0@opentimelineio@@PEAU1234@00@Z
	??$_Move_unchecked1@PEAU?$Retainer@VComposable@v1_0@opentimelineio@@@SerializableObject@v1_0@opentimelineio@@PEAU1234@@std@@YAPEAU?$Retainer@VComposable@v1_0@opentimelineio@@@SerializableObject@v1_0@opentimelineio@@PEAU1234@00U_General_ptr_iterator_tag@0@@Z
	??$_Move_unchecked1@PEAU?$Retainer@VSerializableObject@v1_0@opentimelineio@@@SerializableObject@v1_0@opentimelineio@@PEAU1234@@std@@YAPEAU?$Retainer@VSerializableObject@v1_0@opentimelineio@@@SerializableObject@v1_0@opentimelineio@@PEAU1234@00U_General_ptr_iterator_tag@0@@Z
	??$_Move_unchecked@PEAU?$Retainer@VComposable@v1_0@opentimelineio@@@SerializableObject@v1_0@opentimelineio@@PEAU1234@@std@@YAPEAU?$Retainer@VComposable@v1_0@opentimelineio@@@SerializableObject@v1_0@opentimelineio@@PEAU1234@00@Z
	??$_Move_unchecked@PEAU?$Retainer@VSerializableObject@v1_0@opentimelineio@@@SerializableObject@v1_0@opentimelineio@@PEAU1234@@std@@YAPEAU?$Retainer@VSerializableObject@v1_0@opentimelineio@@@SerializableObject@v1_0@opentimelineio@@PEAU1234@00@Z
	??$_Pocca@V?$allocator@D@std@@@std@@YAXAEAV?$allocator@D@0@AEBV10@@Z
	??$_Pocca@V?$allocator@D@std@@@std@@YAXAEAV?$allocator@D@0@AEBV10@U?$integral_constant@_N$0A@@0@@Z
	??$_Pocca@V?$allocator@U?$_Tree_node@U?$pair@$$CBV?$basic_string@DU?$char_traits@D@std@@V?$allocator@D@2@@std@@Vany@linb@@@std@@PEAX@std@@@std@@@std@@YAXAEAV?$allocator@U?$_Tree_node@U?$pair@$$CBV?$basic_string@DU?$char_traits@D@std@@V?$allocator@D@2@@std@@Vany@linb@@@std@@PEAX@std@@@0@AEBV10@@Z
	??$_Pocca@V?$allocator@U?$_Tree_node@U?$pair@$$CBV?$basic_string@DU?$char_traits@D@std@@V?$allocator@D@2@@std@@Vany@linb@@@std@@PEAX@std@@@std@@@std@@YAXAEAV?$allocator@U?$_Tree_node@U?$pair@$$CBV?$basic_string@DU?$char_traits@D@std@@V?$allocator@D@2@@std@@Vany@linb@@@std@@PEAX@std@@@0@AEBV10@U?$integral_constant@_N$0A@@0@@Z
	??$_Pocca@V?$allocator@Vany@linb@@@std@@@std@@YAXAEAV?$allocator@Vany@linb@@@0@AEBV10@@Z
	??$_Pocca@V?$allocator@Vany@linb@@@std@@@std@@YAXAEAV?$allocator@Vany@linb@@@0@AEBV10@U?$integral_constant@_N$0A@@0@@Z
	??$_Pocma@V?$allocator@D@std@@@std@@YAXAEAV?$allocator@D@0@0@Z
	??$_Pocma@V?$allocator@D@std@@@std@@YAXAEAV?$allocator@D@0@0U?$integral_constant@_N$00@0@@Z
	??$_Pocma@V?$allocator@U?$Retainer@VComposable@v1_0@opentimelineio@@@SerializableObject@v1_0@opentimelineio@@@std@@@std@@YAXAEAV?$allocator@U?$Retainer@VComposable@v1_0@opentimelineio@@@SerializableObject@v1_0@opentimelineio@@@0@0@Z
	??$_Pocma@V?$allocator@U?$Retainer@VComposable@v1_0@opentimelineio@@@SerializableObject@v1_0@opentimelineio@@@std@@@std@@YAXAEAV?$allocator@U?$Retainer@VComposable@v1_0@opentimelineio@@@SerializableObject@v1_0@opentimelineio@@@0@0U?$integral_constant@_N$00@0@@Z
	??$_Pocma@V?$allocator@U?$Retainer@VSerializableObject@v1_0@opentimelineio@@@SerializableObject@v1_0@opentimelineio@@@std@@@std@@YAXAEAV?$allocator@U?$Retainer@VSerializableObject@v1_0@opentimelineio@@@SerializableObject@v1_0@opentimelineio@@@0@0@Z
	??$_Pocma@V?$allocator@U?$Retainer@VSerializableObject@v1_0@opentimelineio@@@SerializableObject@v1_0@opentimelineio@@@std@@@std@@YAXAEAV?$allocator@U?$Retainer@VSerializableObject@v1_0@opentimelineio@@@SerializableObject@v1_0@opentimelineio@@@0@0U?$integral_constant@_N$00@0@@Z
	??$_Pocma@V?$allocator@U?$_Tree_node@PEAVComposable@v1_0@opentimelineio@@PEAX@std@@@std@@@std@@YAXAEAV?$allocator@U?$_Tree_node@PEAVComposable@v1_0@opentimelineio@@PEAX@std@@@0@0@Z
	??$_Pocma@V?$allocator@U?$_Tree_node@PEAVComposable@v1_0@opentimelineio@@PEAX@std@@@std@@@std@@YAXAEAV?$allocator@U?$_Tree_node@PEAVComposable@v1_0@opentimelineio@@PEAX@std@@@0@0U?$integral_constant@_N$00@0@@Z
	??$_Pocs@V?$allocator@D@std@@@std@@YAXAEAV?$allocator@D@0@0@Z
	??$_Pocs@V?$allocator@D@std@@@std@@YAXAEAV?$allocator@D@0@0U?$integral_constant@_N$0A@@0@@Z
	??$_Pocs@V?$allocator@U?$Retainer@VComposable@v1_0@opentimelineio@@@SerializableObject@v1_0@opentimelineio@@@std@@@std@@YAXAEAV?$allocator@U?$Retainer@VComposable@v1_0@opentimelineio@@@SerializableObject@v1_0@opentimelineio@@@0@0@Z
	??$_Pocs@V?$allocator@U?$Retainer@VComposable@v1_0@opentimelineio@@@SerializableObject@v1_0@opentimelineio@@@std@@@std@@YAXAEAV?$allocator@U?$Retainer@VComposable@v1_0@opentimelineio@@@SerializableObject@v1_0@opentimelineio@@@0@0U?$integral_constant@_N$0A@@0@@Z
	??$_Pocs@V?$allocator@U?$Retainer@VEffect@v1_0@opentimelineio@@@SerializableObject@v1_0@opentimelineio@@@std@@@std@@YAXAEAV?$allocator@U?$Retainer@VEffect@v1_0@opentimelineio@@@SerializableObject@v1_0@opentimelineio@@@0@0@Z
	??$_Pocs@V?$allocator@U?$Retainer@VEffect@v1_0@opentimelineio@@@SerializableObject@v1_0@opentimelineio@@@std@@@std@@YAXAEAV?$allocator@U?$Retainer@VEffect@v1_0@opentimelineio@@@SerializableObject@v1_0@opentimelineio@@@0@0U?$integral_constant@_N$0A@@0@@Z
	??$_Pocs@V?$allocator@U?$Retainer@VMarker@v1_0@opentimelineio@@@SerializableObject@v1_0@opentimelineio@@@std@@@std@@YAXAEAV?$allocator@U?$Retainer@VMarker@v1_0@opentimelineio@@@SerializableObject@v1_0@opentimelineio@@@0@0@Z
	??$_Pocs@V?$allocator@U?$Retainer@VMarker@v1_0@opentimelineio@@@SerializableObject@v1_0@opentimelineio@@@std@@@std@@YAXAEAV?$allocator@U?$Retainer@VMarker@v1_0@opentimelineio@@@SerializableObject@v1_0@opentimelineio@@@0@0U?$integral_constant@_N$0A@@0@@Z
	??$_Pocs@V?$allocator@U?$Retainer@VSerializableObject@v1_0@opentimelineio@@@SerializableObject@v1_0@opentimelineio@@@std@@@std@@YAXAEAV?$allocator@U?$Retainer@VSerializableObject@v1_0@opentimelineio@@@SerializableObject@v1_0@opentimelineio@@@0@0@Z
	??$_Pocs@V?$allocator@U?$Retainer@VSerializableObject@v1_0@opentimelineio@@@SerializableObject@v1_0@opentimelineio@@@std@@@std@@YAXAEAV?$allocator@U?$Retainer@VSerializableObject@v1_0@opentimelineio@@@SerializableObject@v1_0@opentimelineio@@@0@0U?$integral_constant@_N$0A@@0@@Z
	??$_Pocs@V?$allocator@U?$_Tree_node@U?$pair@$$CBV?$basic_string@DU?$char_traits@D@std@@V?$allocator@D@2@@std@@Vany@linb@@@std@@PEAX@std@@@std@@@std@@YAXAEAV?$allocator@U?$_Tree_node@U?$pair@$$CBV?$basic_string@DU?$char_traits@D@std@@V?$allocator@D@2@@std@@Vany@linb@@@std@@PEAX@std@@@0@0@Z
	??$_Pocs@V?$allocator@U?$_Tree_node@U?$pair@$$CBV?$basic_string@DU?$char_traits@D@std@@V?$allocator@D@2@@std@@Vany@linb@@@std@@PEAX@std@@@std@@@std@@YAXAEAV?$allocator@U?$_Tree_node@U?$pair@$$CBV?$basic_string@DU?$char_traits@D@std@@V?$allocator@D@2@@std@@Vany@linb@@@std@@PEAX@std@@@0@0U?$integral_constant@_N$0A@@0@@Z
	??$_Pocs@V?$allocator@Vany@linb@@@std@@@std@@YAXAEAV?$allocator@Vany@linb@@@0@0@Z
	??$_Pocs@V?$allocator@Vany@linb@@@std@@@std@@YAXAEAV?$allocator@Vany@linb@@@0@0U?$integral_constant@_N$0A@@0@@Z
	??$_Ptr_copy_cat@$$CBU?$Retainer@VComposable@v1_0@opentimelineio@@@SerializableObject@v1_0@opentimelineio@@PEAVComposable@34@@std@@YA?AU_General_ptr_iterator_tag@0@AEBQEBU?$Retainer@VComposable@v1_0@opentimelineio@@@SerializableObject@v1_0@opentimelineio@@AEBQEAPEAVComposable@45@@Z
	??$_Ptr_copy_cat@PEAVSerializableObject@v1_0@opentimelineio@@U?$Retainer@VSerializableObject@v1_0@opentimelineio@@@123@@std@@YA?AU_General_ptr_iterator_tag@0@AEBQEAPEAVSerializableObject@v1_0@opentimelineio@@AEBQEAU?$Retainer@VSerializableObject@v1_0@opentimelineio@@@234@@Z
	??$_Ptr_copy_cat@QEAVComposable@v1_0@opentimelineio@@U?$Retainer@VComposable@v1_0@opentimelineio@@@SerializableObject@23@@std@@YA?AU_General_ptr_iterator_tag@0@AEBQEBQEAVComposable@v1_0@opentimelineio@@AEBQEAU?$Retainer@VComposable@v1_0@opentimelineio@@@SerializableObject@34@@Z
	??$_Ptr_copy_cat@QEAVComposition@v1_0@opentimelineio@@PEAV123@@std@@YA?AU_Really_trivial_ptr_iterator_tag@0@AEBQEBQEAVComposition@v1_0@opentimelineio@@AEBQEAPEAV234@@Z
	??$_Ptr_copy_cat@QEAVEffect@v1_0@opentimelineio@@U?$Retainer@VEffect@v1_0@opentimelineio@@@SerializableObject@23@@std@@YA?AU_General_ptr_iterator_tag@0@AEBQEBQEAVEffect@v1_0@opentimelineio@@AEBQEAU?$Retainer@VEffect@v1_0@opentimelineio@@@SerializableObject@34@@Z
	??$_Ptr_copy_cat@QEAVMarker@v1_0@opentimelineio@@U?$Retainer@VMarker@v1_0@opentimelineio@@@SerializableObject@23@@std@@YA?AU_General_ptr_iterator_tag@0@AEBQEBQEAVMarker@v1_0@opentimelineio@@AEBQEAU?$Retainer@VMarker@v1_0@opentimelineio@@@SerializableObject@34@@Z
	??$_Ptr_copy_cat@QEAVSerializableObject@v1_0@opentimelineio@@U?$Retainer@VSerializableObject@v1_0@opentimelineio@@@123@@std@@YA?AU_General_ptr_iterator_tag@0@AEBQEBQEAVSerializableObject@v1_0@opentimelineio@@AEBQEAU?$Retainer@VSerializableObject@v1_0@opentimelineio@@@234@@Z
	??$_Ptr_copy_cat@U?$Retainer@VComposable@v1_0@opentimelineio@@@SerializableObject@v1_0@opentimelineio@@U1234@@std@@YA?AU_General_ptr_iterator_tag@0@AEBQEAU?$Retainer@VComposable@v1_0@opentimelineio@@@SerializableObject@v1_0@opentimelineio@@0@Z
	??$_Ptr_copy_cat@U?$Retainer@VEffect@v1_0@opentimelineio@@@SerializableObject@v1_0@opentimelineio@@U1234@@std@@YA?AU_General_ptr_iterator_tag@0@AEBQEAU?$Retainer@VEffect@v1_0@opentimelineio@@@SerializableObject@v1_0@opentimelineio@@0@Z
	??$_Ptr_copy_cat@U?$Retainer@VMarker@v1_0@opentimelineio@@@SerializableObject@v1_0@opentimelineio@@U1234@@std@@YA?AU_General_ptr_iterator_tag@0@AEBQEAU?$Retainer@VMarker@v1_0@opentimelineio@@@SerializableObject@v1_0@opentimelineio@@0@Z
	??$_Ptr_copy_cat@U?$Retainer@VSerializableObject@v1_0@opentimelineio@@@SerializableObject@v1_0@opentimelineio@@U1234@@std@@YA?AU_General_ptr_iterator_tag@0@AEBQEAU?$Retainer@VSerializableObject@v1_0@opentimelineio@@@SerializableObject@v1_0@opentimelineio@@0@Z
	??$_Ptr_copy_cat@U_DictOrArray@CloningEncoder@v1_0@opentimelineio@@U1234@@std@@YA?AU_General_ptr_iterator_tag@0@AEBQEAU_DictOrArray@CloningEncoder@v1_0@opentimelineio@@0@Z
	??$_Ptr_copy_cat@U_DictOrArray@JSONDecoder@v1_0@opentimelineio@@U1234@@std@@YA?AU_General_ptr_iterator_tag@0@AEBQEAU_DictOrArray@JSONDecoder@v1_0@opentimelineio@@0@Z
	??$_Ptr_copy_cat@Vany@linb@@V12@@std@@YA?AU_General_ptr_iterator_tag@0@AEBQEAVany@linb@@0@Z
	??$_Ptr_move_cat@PEAVComposable@v1_0@opentimelineio@@PEAV123@@std@@YA?AU_Really_trivial_ptr_iterator_tag@0@AEBQEAPEAVComposable@v1_0@opentimelineio@@0@Z
	??$_Ptr_move_cat@PEAVComposition@v1_0@opentimelineio@@PEAV123@@std@@YA?AU_Really_trivial_ptr_iterator_tag@0@AEBQEAPEAVComposition@v1_0@opentimelineio@@0@Z
	??$_Ptr_move_cat@PEAVTrack@v1_0@opentimelineio@@PEAV123@@std@@YA?AU_Really_trivial_ptr_iterator_tag@0@AEBQEAPEAVTrack@v1_0@opentimelineio@@0@Z
	??$_Ptr_move_cat@U?$Retainer@VComposable@v1_0@opentimelineio@@@SerializableObject@v1_0@opentimelineio@@U1234@@std@@YA?AU_General_ptr_iterator_tag@0@AEBQEAU?$Retainer@VComposable@v1_0@opentimelineio@@@SerializableObject@v1_0@opentimelineio@@0@Z
	??$_Ptr_move_cat@U?$Retainer@VEffect@v1_0@opentimelineio@@@SerializableObject@v1_0@opentimelineio@@U1234@@std@@YA?AU_General_ptr_iterator_tag@0@AEBQEAU?$Retainer@VEffect@v1_0@opentimelineio@@@SerializableObject@v1_0@opentimelineio@@0@Z
	??$_Ptr_move_cat@U?$Retainer@VMarker@v1_0@opentimelineio@@@SerializableObject@v1_0@opentimelineio@@U1234@@std@@YA?AU_General_ptr_iterator_tag@0@AEBQEAU?$Retainer@VMarker@v1_0@opentimelineio@@@SerializableObject@v1_0@opentimelineio@@0@Z
	??$_Ptr_move_cat@U?$Retainer@VSerializableObject@v1_0@opentimelineio@@@SerializableObject@v1_0@opentimelineio@@U1234@@std@@YA?AU_General_ptr_iterator_tag@0@AEBQEAU?$Retainer@VSerializableObject@v1_0@opentimelineio@@@SerializableObject@v1_0@opentimelineio@@0@Z
	??$_Ptr_move_cat@U_DictOrArray@CloningEncoder@v1_0@opentimelineio@@U1234@@std@@YA?AU_General_ptr_iterator_tag@0@AEBQEAU_DictOrArray@CloningEncoder@v1_0@opentimelineio@@0@Z
	??$_Ptr_move_cat@U_DictOrArray@JSONDecoder@v1_0@opentimelineio@@U1234@@std@@YA?AU_General_ptr_iterator_tag@0@AEBQEAU_DictOrArray@JSONDecoder@v1_0@opentimelineio@@0@Z
	??$_Ptr_move_cat@Vany@linb@@V12@@std@@YA?AU_General_ptr_iterator_tag@0@AEBQEAVany@linb@@0@Z
	??$_Range_construct_or_tidy@PEAPEAVSerializableObject@v1_0@opentimelineio@@@?$vector@U?$Retainer@VSerializableObject@v1_0@opentimelineio@@@SerializableObject@v1_0@opentimelineio@@V?$allocator@U?$Retainer@VSerializableObject@v1_0@opentimelineio@@@SerializableObject@v1_0@opentimelineio@@@std@@@std@@AEAAXPEAPEAVSerializableObject@v1_0@opentimelineio@@0Uforward_iterator_tag@1@@Z
	??$_Range_construct_or_tidy@PEBQEAVComposable@v1_0@opentimelineio@@@?$vector@U?$Retainer@VComposable@v1_0@opentimelineio@@@SerializableObject@v1_0@opentimelineio@@V?$allocator@U?$Retainer@VComposable@v1_0@opentimelineio@@@SerializableObject@v1_0@opentimelineio@@@std@@@std@@AEAAXPEBQEAVComposable@v1_0@opentimelineio@@0Uforward_iterator_tag@1@@Z
	??$_Range_construct_or_tidy@PEBQEAVComposition@v1_0@opentimelineio@@@?$vector@PEAVComposition@v1_0@opentimelineio@@V?$allocator@PEAVComposition@v1_0@opentimelineio@@@std@@@std@@AEAAXPEBQEAVComposition@v1_0@opentimelineio@@0Uforward_iterator_tag@1@@Z
	??$_Range_construct_or_tidy@PEBQEAVEffect@v1_0@opentimelineio@@@?$vector@U?$Retainer@VEffect@v1_0@opentimelineio@@@SerializableObject@v1_0@opentimelineio@@V?$allocator@U?$Retainer@VEffect@v1_0@opentimelineio@@@SerializableObject@v1_0@opentimelineio@@@std@@@std@@AEAAXPEBQEAVEffect@v1_0@opentimelineio@@0Uforward_iterator_tag@1@@Z
	??$_Range_construct_or_tidy@PEBQEAVMarker@v1_0@opentimelineio@@@?$vector@U?$Retainer@VMarker@v1_0@opentimelineio@@@SerializableObject@v1_0@opentimelineio@@V?$allocator@U?$Retainer@VMarker@v1_0@opentimelineio@@@SerializableObject@v1_0@opentimelineio@@@std@@@std@@AEAAXPEBQEAVMarker@v1_0@opentimelineio@@0Uforward_iterator_tag@1@@Z
	??$_Range_construct_or_tidy@PEBQEAVSerializableObject@v1_0@opentimelineio@@@?$vector@U?$Retainer@VSerializableObject@v1_0@opentimelineio@@@SerializableObject@v1_0@opentimelineio@@V?$allocator@U?$Retainer@VSerializableObject@v1_0@opentimelineio@@@SerializableObject@v1_0@opentimelineio@@@std@@@std@@AEAAXPEBQEAVSerializableObject@v1_0@opentimelineio@@0Uforward_iterator_tag@1@@Z
	??$_Range_construct_or_tidy@PEBU?$Retainer@VComposable@v1_0@opentimelineio@@@SerializableObject@v1_0@opentimelineio@@@?$vector@PEAVComposable@v1_0@opentimelineio@@V?$allocator@PEAVComposable@v1_0@opentimelineio@@@std@@@std@@AEAAXPEBU?$Retainer@VComposable@v1_0@opentimelineio@@@SerializableObject@v1_0@opentimelineio@@0Uforward_iterator_tag@1@@Z
	??$_Reallocate_for@V<lambda_138c3d7c38c85abb84c7fc7bfe5747b7>@@D@?$basic_string@DU?$char_traits@D@std@@V?$allocator@D@2@@std@@QEAAAEAV01@_KV<lambda_138c3d7c38c85abb84c7fc7bfe5747b7>@@D@Z
	??$_Reallocate_for@V<lambda_66f57f934f28d61049862f64df852ff0>@@PEBD@?$basic_string@DU?$char_traits@D@std@@V?$allocator@D@2@@std@@QEAAAEAV01@_KV<lambda_66f57f934f28d61049862f64df852ff0>@@PEBD@Z
	??$_Reallocate_grow_by@V<lambda_319d5e083f45f90dcdce5dce53cbb275>@@D@?$basic_string@DU?$char_traits@D@std@@V?$allocator@D@2@@std@@QEAAAEAV01@_KV<lambda_319d5e083f45f90dcdce5dce53cbb275>@@D@Z
	??$_Reallocate_grow_by@V<lambda_65e615be2a453ca0576c979606f46740>@@PEBD_K@?$basic_string@DU?$char_traits@D@std@@V?$allocator@D@2@@std@@QEAAAEAV01@_KV<lambda_65e615be2a453ca0576c979606f46740>@@PEBD_K@Z
	??$_Reallocate_grow_by@V<lambda_9013ee9e23efe4882b67eff5b0ecf103>@@$$V@?$basic_string@DU?$char_traits@D@std@@V?$allocator@D@2@@std@@QEAAAEAV01@_KV<lambda_9013ee9e23efe4882b67eff5b0ecf103>@@@Z
	??$_Reallocate_grow_by@V<lambda_f3a66ab6a0570788f31503db83886f49>@@_KPEBD_K@?$basic_string@DU?$char_traits@D@std@@V?$allocator@D@2@@std@@QEAAAEAV01@_KV<lambda_f3a66ab6a0570788f31503db83886f49>@@_KPEBD2@Z
	??$_Refancy@PEAD$0A@@std@@YAPEADPEAD@Z
	??$_Reset@P6A_NAEBVany@linb@@0@Z@?$_Func_class@_NAEBVany@linb@@AEBV12@@std@@IEAAX$$QEAP6A_NAEBVany@linb@@0@Z@Z
	??$_Reset@V<lambda_0d80f6a868f8b36a1d5f68283412da7e>@@@?$_Func_class@PEAVSerializableObject@v1_0@opentimelineio@@$$V@std@@IEAAX$$QEAV<lambda_0d80f6a868f8b36a1d5f68283412da7e>@@@Z
	??$_Reset@V<lambda_27988cd41ae6a4288cc8caa9931f6267>@@@?$_Func_class@PEAVSerializableObject@v1_0@opentimelineio@@$$V@std@@IEAAX$$QEAV<lambda_27988cd41ae6a4288cc8caa9931f6267>@@@Z
	??$_Reset@V<lambda_3732206c6b8af39d0d8542d4c00085cb>@@@?$_Func_class@PEAVSerializableObject@v1_0@opentimelineio@@$$V@std@@IEAAX$$QEAV<lambda_3732206c6b8af39d0d8542d4c00085cb>@@@Z
	??$_Reset@V<lambda_3a755e0d8b19c3b265999c93c407e624>@@@?$_Func_class@PEAVSerializableObject@v1_0@opentimelineio@@$$V@std@@IEAAX$$QEAV<lambda_3a755e0d8b19c3b265999c93c407e624>@@@Z
	??$_Reset@V<lambda_5ddccacd3f77002255f4016c725c7a55>@@@?$_Func_class@PEAVSerializableObject@v1_0@opentimelineio@@$$V@std@@IEAAX$$QEAV<lambda_5ddccacd3f77002255f4016c725c7a55>@@@Z
	??$_Reset@V<lambda_651a8b2021ee43daced787a936a58fab>@@@?$_Func_class@PEAVSerializableObject@v1_0@opentimelineio@@$$V@std@@IEAAX$$QEAV<lambda_651a8b2021ee43daced787a936a58fab>@@@Z
	??$_Reset@V<lambda_69b8fad06dc2ded66a083d5ea69c9992>@@@?$_Func_class@PEAVSerializableObject@v1_0@opentimelineio@@$$V@std@@IEAAX$$QEAV<lambda_69b8fad06dc2ded66a083d5ea69c9992>@@@Z
	??$_Reset@V<lambda_6cb77d3f4339c3ac20acbae2e2a5ac3e>@@@?$_Func_class@PEAVSerializableObject@v1_0@opentimelineio@@$$V@std@@IEAAX$$QEAV<lambda_6cb77d3f4339c3ac20acbae2e2a5ac3e>@@@Z
	??$_Reset@V<lambda_6e89609f4599898de401668f9f0eac24>@@@?$_Func_class@PEAVSerializableObject@v1_0@opentimelineio@@$$V@std@@IEAAX$$QEAV<lambda_6e89609f4599898de401668f9f0eac24>@@@Z
	??$_Reset@V<lambda_75a2f7577643b9f1ad091410b79c5b2c>@@@?$_Func_class@PEAVSerializableObject@v1_0@opentimelineio@@$$V@std@@IEAAX$$QEAV<lambda_75a2f7577643b9f1ad091410b79c5b2c>@@@Z
	??$_Reset@V<lambda_76eca87a02e8a96c82650c9895946a93>@@@?$_Func_class@PEAVSerializableObject@v1_0@opentimelineio@@$$V@std@@IEAAX$$QEAV<lambda_76eca87a02e8a96c82650c9895946a93>@@@Z
	??$_Reset@V<lambda_7a39e7abaca8030fbed7b6163cf2ac7e>@@@?$_Func_class@PEAVSerializableObject@v1_0@opentimelineio@@$$V@std@@IEAAX$$QEAV<lambda_7a39e7abaca8030fbed7b6163cf2ac7e>@@@Z
	??$_Reset@V<lambda_7ad123fd80a0e795f627b98885f054a9>@@@?$_Func_class@PEAVSerializableObject@v1_0@opentimelineio@@$$V@std@@IEAAX$$QEAV<lambda_7ad123fd80a0e795f627b98885f054a9>@@@Z
	??$_Reset@V<lambda_9443c01dc1ed3db71386b1d5715e24ee>@@@?$_Func_class@PEAVSerializableObject@v1_0@opentimelineio@@$$V@std@@IEAAX$$QEAV<lambda_9443c01dc1ed3db71386b1d5715e24ee>@@@Z
	??$_Reset@V<lambda_c6547d0cfce5b73f7e2493d990f979cb>@@@?$_Func_class@PEAVSerializableObject@v1_0@opentimelineio@@$$V@std@@IEAAX$$QEAV<lambda_c6547d0cfce5b73f7e2493d990f979cb>@@@Z
	??$_Reset@V<lambda_c98e3b18bd6b6fb88298302e9b12aff7>@@@?$_Func_class@PEAVSerializableObject@v1_0@opentimelineio@@$$V@std@@IEAAX$$QEAV<lambda_c98e3b18bd6b6fb88298302e9b12aff7>@@@Z
	??$_Reset@V<lambda_cba0749f46c119f7b63682ec6ce1bdaa>@@@?$_Func_class@PEAVSerializableObject@v1_0@opentimelineio@@$$V@std@@IEAAX$$QEAV<lambda_cba0749f46c119f7b63682ec6ce1bdaa>@@@Z
	??$_Reset@V<lambda_d2673311fb86753a5af4fed0b679e1fc>@@@?$_Func_class@PEAVSerializableObject@v1_0@opentimelineio@@$$V@std@@IEAAX$$QEAV<lambda_d2673311fb86753a5af4fed0b679e1fc>@@@Z
	??$_Reset@V<lambda_d6bc8737d8bc7e3959c59b9691239ab6>@@@?$_Func_class@PEAVSerializableObject@v1_0@opentimelineio@@$$V@std@@IEAAX$$QEAV<lambda_d6bc8737d8bc7e3959c59b9691239ab6>@@@Z
	??$_Reset@V<lambda_e777b282161b9f497bc9ea4bd7150aef>@@@?$_Func_class@PEAVSerializableObject@v1_0@opentimelineio@@$$V@std@@IEAAX$$QEAV<lambda_e777b282161b9f497bc9ea4bd7150aef>@@@Z
	??$_Reset@V<lambda_ee5fcd274901b255b1db6ecbe82f8ba7>@@@?$_Func_class@PEAVSerializableObject@v1_0@opentimelineio@@$$V@std@@IEAAX$$QEAV<lambda_ee5fcd274901b255b1db6ecbe82f8ba7>@@@Z
	??$_Reset@V<lambda_fd597aa0b1bb92b7cb8cbd2b41c97086>@@@?$_Func_class@PEAVSerializableObject@v1_0@opentimelineio@@$$V@std@@IEAAX$$QEAV<lambda_fd597aa0b1bb92b7cb8cbd2b41c97086>@@@Z
	??$_Reset@V?$_Binder@U_Unforced@std@@P8?$CursorStreamWrapper@U?$GenericStringStream@U?$UTF8@D@OTIO_rapidjson@@@OTIO_rapidjson@@U?$UTF8@D@2@@OTIO_rapidjson@@EBA_KXZPEAV34@@std@@@?$_Func_class@_K$$V@std@@IEAAX$$QEAV?$_Binder@U_Unforced@std@@P8?$CursorStreamWrapper@U?$GenericStringStream@U?$UTF8@D@OTIO_rapidjson@@@OTIO_rapidjson@@U?$UTF8@D@2@@OTIO_rapidjson@@EBA_KXZPEAV34@@1@@Z
	??$_Reset@V?$_Binder@U_Unforced@std@@P8?$CursorStreamWrapper@VFileReadStream@OTIO_rapidjson@@U?$UTF8@D@2@@OTIO_rapidjson@@EBA_KXZPEAV34@@std@@@?$_Func_class@_K$$V@std@@IEAAX$$QEAV?$_Binder@U_Unforced@std@@P8?$CursorStreamWrapper@VFileReadStream@OTIO_rapidjson@@U?$UTF8@D@2@@OTIO_rapidjson@@EBA_KXZPEAV34@@1@@Z
	??$_Reset@V?$_Binder@U_Unforced@std@@P8Encoder@v1_0@opentimelineio@@EAAXAEBUErrorStatus@45@@ZPEAVCloningEncoder@45@AEBU?$_Ph@$00@2@@std@@@?$_Func_class@XAEBUErrorStatus@v1_0@opentimelineio@@@std@@IEAAX$$QEAV?$_Binder@U_Unforced@std@@P8Encoder@v1_0@opentimelineio@@EAAXAEBUErrorStatus@45@@ZPEAVCloningEncoder@45@AEBU?$_Ph@$00@2@@1@@Z
	??$_Reset@V?$_Binder@U_Unforced@std@@P8JSONDecoder@v1_0@opentimelineio@@EAAXAEBUErrorStatus@45@@ZPEAV345@AEBU?$_Ph@$00@2@@std@@@?$_Func_class@XAEBUErrorStatus@v1_0@opentimelineio@@@std@@IEAAX$$QEAV?$_Binder@U_Unforced@std@@P8JSONDecoder@v1_0@opentimelineio@@EAAXAEBUErrorStatus@45@@ZPEAV345@AEBU?$_Ph@$00@2@@1@@Z
	??$_Reset_impl@V?$_Func_impl_no_alloc@P6A_NAEBVany@linb@@0@Z_NAEBV12@AEBV12@@std@@P6A_NAEBVany@linb@@0@Z@?$_Func_class@_NAEBVany@linb@@AEBV12@@std@@IEAAX$$QEAP6A_NAEBVany@linb@@0@ZU?$integral_constant@_N$0A@@1@@Z
	??$_Reset_impl@V?$_Func_impl_no_alloc@V<lambda_0d80f6a868f8b36a1d5f68283412da7e>@@PEAVSerializableObject@v1_0@opentimelineio@@$$V@std@@V<lambda_0d80f6a868f8b36a1d5f68283412da7e>@@@?$_Func_class@PEAVSerializableObject@v1_0@opentimelineio@@$$V@std@@IEAAX$$QEAV<lambda_0d80f6a868f8b36a1d5f68283412da7e>@@U?$integral_constant@_N$0A@@1@@Z
	??$_Reset_impl@V?$_Func_impl_no_alloc@V<lambda_27988cd41ae6a4288cc8caa9931f6267>@@PEAVSerializableObject@v1_0@opentimelineio@@$$V@std@@V<lambda_27988cd41ae6a4288cc8caa9931f6267>@@@?$_Func_class@PEAVSerializableObject@v1_0@opentimelineio@@$$V@std@@IEAAX$$QEAV<lambda_27988cd41ae6a4288cc8caa9931f6267>@@U?$integral_constant@_N$0A@@1@@Z
	??$_Reset_impl@V?$_Func_impl_no_alloc@V<lambda_3732206c6b8af39d0d8542d4c00085cb>@@PEAVSerializableObject@v1_0@opentimelineio@@$$V@std@@V<lambda_3732206c6b8af39d0d8542d4c00085cb>@@@?$_Func_class@PEAVSerializableObject@v1_0@opentimelineio@@$$V@std@@IEAAX$$QEAV<lambda_3732206c6b8af39d0d8542d4c00085cb>@@U?$integral_constant@_N$0A@@1@@Z
	??$_Reset_impl@V?$_Func_impl_no_alloc@V<lambda_3a755e0d8b19c3b265999c93c407e624>@@PEAVSerializableObject@v1_0@opentimelineio@@$$V@std@@V<lambda_3a755e0d8b19c3b265999c93c407e624>@@@?$_Func_class@PEAVSerializableObject@v1_0@opentimelineio@@$$V@std@@IEAAX$$QEAV<lambda_3a755e0d8b19c3b265999c93c407e624>@@U?$integral_constant@_N$0A@@1@@Z
	??$_Reset_impl@V?$_Func_impl_no_alloc@V<lambda_5ddccacd3f77002255f4016c725c7a55>@@PEAVSerializableObject@v1_0@opentimelineio@@$$V@std@@V<lambda_5ddccacd3f77002255f4016c725c7a55>@@@?$_Func_class@PEAVSerializableObject@v1_0@opentimelineio@@$$V@std@@IEAAX$$QEAV<lambda_5ddccacd3f77002255f4016c725c7a55>@@U?$integral_constant@_N$0A@@1@@Z
	??$_Reset_impl@V?$_Func_impl_no_alloc@V<lambda_651a8b2021ee43daced787a936a58fab>@@PEAVSerializableObject@v1_0@opentimelineio@@$$V@std@@V<lambda_651a8b2021ee43daced787a936a58fab>@@@?$_Func_class@PEAVSerializableObject@v1_0@opentimelineio@@$$V@std@@IEAAX$$QEAV<lambda_651a8b2021ee43daced787a936a58fab>@@U?$integral_constant@_N$0A@@1@@Z
	??$_Reset_impl@V?$_Func_impl_no_alloc@V<lambda_69b8fad06dc2ded66a083d5ea69c9992>@@PEAVSerializableObject@v1_0@opentimelineio@@$$V@std@@V<lambda_69b8fad06dc2ded66a083d5ea69c9992>@@@?$_Func_class@PEAVSerializableObject@v1_0@opentimelineio@@$$V@std@@IEAAX$$QEAV<lambda_69b8fad06dc2ded66a083d5ea69c9992>@@U?$integral_constant@_N$0A@@1@@Z
	??$_Reset_impl@V?$_Func_impl_no_alloc@V<lambda_6cb77d3f4339c3ac20acbae2e2a5ac3e>@@PEAVSerializableObject@v1_0@opentimelineio@@$$V@std@@V<lambda_6cb77d3f4339c3ac20acbae2e2a5ac3e>@@@?$_Func_class@PEAVSerializableObject@v1_0@opentimelineio@@$$V@std@@IEAAX$$QEAV<lambda_6cb77d3f4339c3ac20acbae2e2a5ac3e>@@U?$integral_constant@_N$0A@@1@@Z
	??$_Reset_impl@V?$_Func_impl_no_alloc@V<lambda_6e89609f4599898de401668f9f0eac24>@@PEAVSerializableObject@v1_0@opentimelineio@@$$V@std@@V<lambda_6e89609f4599898de401668f9f0eac24>@@@?$_Func_class@PEAVSerializableObject@v1_0@opentimelineio@@$$V@std@@IEAAX$$QEAV<lambda_6e89609f4599898de401668f9f0eac24>@@U?$integral_constant@_N$0A@@1@@Z
	??$_Reset_impl@V?$_Func_impl_no_alloc@V<lambda_75a2f7577643b9f1ad091410b79c5b2c>@@PEAVSerializableObject@v1_0@opentimelineio@@$$V@std@@V<lambda_75a2f7577643b9f1ad091410b79c5b2c>@@@?$_Func_class@PEAVSerializableObject@v1_0@opentimelineio@@$$V@std@@IEAAX$$QEAV<lambda_75a2f7577643b9f1ad091410b79c5b2c>@@U?$integral_constant@_N$0A@@1@@Z
	??$_Reset_impl@V?$_Func_impl_no_alloc@V<lambda_76eca87a02e8a96c82650c9895946a93>@@PEAVSerializableObject@v1_0@opentimelineio@@$$V@std@@V<lambda_76eca87a02e8a96c82650c9895946a93>@@@?$_Func_class@PEAVSerializableObject@v1_0@opentimelineio@@$$V@std@@IEAAX$$QEAV<lambda_76eca87a02e8a96c82650c9895946a93>@@U?$integral_constant@_N$0A@@1@@Z
	??$_Reset_impl@V?$_Func_impl_no_alloc@V<lambda_7a39e7abaca8030fbed7b6163cf2ac7e>@@PEAVSerializableObject@v1_0@opentimelineio@@$$V@std@@V<lambda_7a39e7abaca8030fbed7b6163cf2ac7e>@@@?$_Func_class@PEAVSerializableObject@v1_0@opentimelineio@@$$V@std@@IEAAX$$QEAV<lambda_7a39e7abaca8030fbed7b6163cf2ac7e>@@U?$integral_constant@_N$0A@@1@@Z
	??$_Reset_impl@V?$_Func_impl_no_alloc@V<lambda_7ad123fd80a0e795f627b98885f054a9>@@PEAVSerializableObject@v1_0@opentimelineio@@$$V@std@@V<lambda_7ad123fd80a0e795f627b98885f054a9>@@@?$_Func_class@PEAVSerializableObject@v1_0@opentimelineio@@$$V@std@@IEAAX$$QEAV<lambda_7ad123fd80a0e795f627b98885f054a9>@@U?$integral_constant@_N$0A@@1@@Z
	??$_Reset_impl@V?$_Func_impl_no_alloc@V<lambda_9443c01dc1ed3db71386b1d5715e24ee>@@PEAVSerializableObject@v1_0@opentimelineio@@$$V@std@@V<lambda_9443c01dc1ed3db71386b1d5715e24ee>@@@?$_Func_class@PEAVSerializableObject@v1_0@opentimelineio@@$$V@std@@IEAAX$$QEAV<lambda_9443c01dc1ed3db71386b1d5715e24ee>@@U?$integral_constant@_N$0A@@1@@Z
	??$_Reset_impl@V?$_Func_impl_no_alloc@V<lambda_c6547d0cfce5b73f7e2493d990f979cb>@@PEAVSerializableObject@v1_0@opentimelineio@@$$V@std@@V<lambda_c6547d0cfce5b73f7e2493d990f979cb>@@@?$_Func_class@PEAVSerializableObject@v1_0@opentimelineio@@$$V@std@@IEAAX$$QEAV<lambda_c6547d0cfce5b73f7e2493d990f979cb>@@U?$integral_constant@_N$0A@@1@@Z
	??$_Reset_impl@V?$_Func_impl_no_alloc@V<lambda_c98e3b18bd6b6fb88298302e9b12aff7>@@PEAVSerializableObject@v1_0@opentimelineio@@$$V@std@@V<lambda_c98e3b18bd6b6fb88298302e9b12aff7>@@@?$_Func_class@PEAVSerializableObject@v1_0@opentimelineio@@$$V@std@@IEAAX$$QEAV<lambda_c98e3b18bd6b6fb88298302e9b12aff7>@@U?$integral_constant@_N$0A@@1@@Z
	??$_Reset_impl@V?$_Func_impl_no_alloc@V<lambda_cba0749f46c119f7b63682ec6ce1bdaa>@@PEAVSerializableObject@v1_0@opentimelineio@@$$V@std@@V<lambda_cba0749f46c119f7b63682ec6ce1bdaa>@@@?$_Func_class@PEAVSerializableObject@v1_0@opentimelineio@@$$V@std@@IEAAX$$QEAV<lambda_cba0749f46c119f7b63682ec6ce1bdaa>@@U?$integral_constant@_N$0A@@1@@Z
	??$_Reset_impl@V?$_Func_impl_no_alloc@V<lambda_d2673311fb86753a5af4fed0b679e1fc>@@PEAVSerializableObject@v1_0@opentimelineio@@$$V@std@@V<lambda_d2673311fb86753a5af4fed0b679e1fc>@@@?$_Func_class@PEAVSerializableObject@v1_0@opentimelineio@@$$V@std@@IEAAX$$QEAV<lambda_d2673311fb86753a5af4fed0b679e1fc>@@U?$integral_constant@_N$0A@@1@@Z
	??$_Reset_impl@V?$_Func_impl_no_alloc@V<lambda_d6bc8737d8bc7e3959c59b9691239ab6>@@PEAVSerializableObject@v1_0@opentimelineio@@$$V@std@@V<lambda_d6bc8737d8bc7e3959c59b9691239ab6>@@@?$_Func_class@PEAVSerializableObject@v1_0@opentimelineio@@$$V@std@@IEAAX$$QEAV<lambda_d6bc8737d8bc7e3959c59b9691239ab6>@@U?$integral_constant@_N$0A@@1@@Z
	??$_Reset_impl@V?$_Func_impl_no_alloc@V<lambda_e777b282161b9f497bc9ea4bd7150aef>@@PEAVSerializableObject@v1_0@opentimelineio@@$$V@std@@V<lambda_e777b282161b9f497bc9ea4bd7150aef>@@@?$_Func_class@PEAVSerializableObject@v1_0@opentimelineio@@$$V@std@@IEAAX$$QEAV<lambda_e777b282161b9f497bc9ea4bd7150aef>@@U?$integral_constant@_N$0A@@1@@Z
	??$_Reset_impl@V?$_Func_impl_no_alloc@V<lambda_ee5fcd274901b255b1db6ecbe82f8ba7>@@PEAVSerializableObject@v1_0@opentimelineio@@$$V@std@@V<lambda_ee5fcd274901b255b1db6ecbe82f8ba7>@@@?$_Func_class@PEAVSerializableObject@v1_0@opentimelineio@@$$V@std@@IEAAX$$QEAV<lambda_ee5fcd274901b255b1db6ecbe82f8ba7>@@U?$integral_constant@_N$0A@@1@@Z
	??$_Reset_impl@V?$_Func_impl_no_alloc@V<lambda_fd597aa0b1bb92b7cb8cbd2b41c97086>@@PEAVSerializableObject@v1_0@opentimelineio@@$$V@std@@V<lambda_fd597aa0b1bb92b7cb8cbd2b41c97086>@@@?$_Func_class@PEAVSerializableObject@v1_0@opentimelineio@@$$V@std@@IEAAX$$QEAV<lambda_fd597aa0b1bb92b7cb8cbd2b41c97086>@@U?$integral_constant@_N$0A@@1@@Z
	??$_Reset_impl@V?$_Func_impl_no_alloc@V?$_Binder@U_Unforced@std@@P8?$CursorStreamWrapper@U?$GenericStringStream@U?$UTF8@D@OTIO_rapidjson@@@OTIO_rapidjson@@U?$UTF8@D@2@@OTIO_rapidjson@@EBA_KXZPEAV34@@std@@_K$$V@std@@V?$_Binder@U_Unforced@std@@P8?$CursorStreamWrapper@U?$GenericStringStream@U?$UTF8@D@OTIO_rapidjson@@@OTIO_rapidjson@@U?$UTF8@D@2@@OTIO_rapidjson@@EBA_KXZPEAV34@@2@@?$_Func_class@_K$$V@std@@IEAAX$$QEAV?$_Binder@U_Unforced@std@@P8?$CursorStreamWrapper@U?$GenericStringStream@U?$UTF8@D@OTIO_rapidjson@@@OTIO_rapidjson@@U?$UTF8@D@2@@OTIO_rapidjson@@EBA_KXZPEAV34@@1@U?$integral_constant@_N$0A@@1@@Z
	??$_Reset_impl@V?$_Func_impl_no_alloc@V?$_Binder@U_Unforced@std@@P8?$CursorStreamWrapper@VFileReadStream@OTIO_rapidjson@@U?$UTF8@D@2@@OTIO_rapidjson@@EBA_KXZPEAV34@@std@@_K$$V@std@@V?$_Binder@U_Unforced@std@@P8?$CursorStreamWrapper@VFileReadStream@OTIO_rapidjson@@U?$UTF8@D@2@@OTIO_rapidjson@@EBA_KXZPEAV34@@2@@?$_Func_class@_K$$V@std@@IEAAX$$QEAV?$_Binder@U_Unforced@std@@P8?$CursorStreamWrapper@VFileReadStream@OTIO_rapidjson@@U?$UTF8@D@2@@OTIO_rapidjson@@EBA_KXZPEAV34@@1@U?$integral_constant@_N$0A@@1@@Z
	??$_Reset_impl@V?$_Func_impl_no_alloc@V?$_Binder@U_Unforced@std@@P8Encoder@v1_0@opentimelineio@@EAAXAEBUErrorStatus@45@@ZPEAVCloningEncoder@45@AEBU?$_Ph@$00@2@@std@@XAEBUErrorStatus@v1_0@opentimelineio@@@std@@V?$_Binder@U_Unforced@std@@P8Encoder@v1_0@opentimelineio@@EAAXAEBUErrorStatus@45@@ZPEAVCloningEncoder@45@AEBU?$_Ph@$00@2@@2@@?$_Func_class@XAEBUErrorStatus@v1_0@opentimelineio@@@std@@IEAAX$$QEAV?$_Binder@U_Unforced@std@@P8Encoder@v1_0@opentimelineio@@EAAXAEBUErrorStatus@45@@ZPEAVCloningEncoder@45@AEBU?$_Ph@$00@2@@1@U?$integral_constant@_N$0A@@1@@Z
	??$_Reset_impl@V?$_Func_impl_no_alloc@V?$_Binder@U_Unforced@std@@P8JSONDecoder@v1_0@opentimelineio@@EAAXAEBUErrorStatus@45@@ZPEAV345@AEBU?$_Ph@$00@2@@std@@XAEBUErrorStatus@v1_0@opentimelineio@@@std@@V?$_Binder@U_Unforced@std@@P8JSONDecoder@v1_0@opentimelineio@@EAAXAEBUErrorStatus@45@@ZPEAV345@AEBU?$_Ph@$00@2@@2@@?$_Func_class@XAEBUErrorStatus@v1_0@opentimelineio@@@std@@IEAAX$$QEAV?$_Binder@U_Unforced@std@@P8JSONDecoder@v1_0@opentimelineio@@EAAXAEBUErrorStatus@45@@ZPEAV345@AEBU?$_Ph@$00@2@@1@U?$integral_constant@_N$0A@@1@@Z
	??$_Seek_wrapped@PEAVComposable@v1_0@opentimelineio@@@std@@YAXAEAPEAPEAVComposable@v1_0@opentimelineio@@QEAPEAV123@@Z
	??$_Seek_wrapped@PEAVComposition@v1_0@opentimelineio@@@std@@YAXAEAPEAPEAVComposition@v1_0@opentimelineio@@QEAPEAV123@@Z
	??$_Seek_wrapped@PEAVTrack@v1_0@opentimelineio@@@std@@YAXAEAPEAPEAVTrack@v1_0@opentimelineio@@QEAPEAV123@@Z
	??$_Seek_wrapped@U?$Retainer@VComposable@v1_0@opentimelineio@@@SerializableObject@v1_0@opentimelineio@@@std@@YAXAEAPEAU?$Retainer@VComposable@v1_0@opentimelineio@@@SerializableObject@v1_0@opentimelineio@@QEAU1234@@Z
	??$_Seek_wrapped@U?$Retainer@VEffect@v1_0@opentimelineio@@@SerializableObject@v1_0@opentimelineio@@@std@@YAXAEAPEAU?$Retainer@VEffect@v1_0@opentimelineio@@@SerializableObject@v1_0@opentimelineio@@QEAU1234@@Z
	??$_Seek_wrapped@U?$Retainer@VMarker@v1_0@opentimelineio@@@SerializableObject@v1_0@opentimelineio@@@std@@YAXAEAPEAU?$Retainer@VMarker@v1_0@opentimelineio@@@SerializableObject@v1_0@opentimelineio@@QEAU1234@@Z
	??$_Seek_wrapped@U?$Retainer@VSerializableObject@v1_0@opentimelineio@@@SerializableObject@v1_0@opentimelineio@@@std@@YAXAEAPEAU?$Retainer@VSerializableObject@v1_0@opentimelineio@@@SerializableObject@v1_0@opentimelineio@@QEAU1234@@Z
	??$_Seek_wrapped@U_DictOrArray@CloningEncoder@v1_0@opentimelineio@@@std@@YAXAEAPEAU_DictOrArray@CloningEncoder@v1_0@opentimelineio@@QEAU1234@@Z
	??$_Seek_wrapped@U_DictOrArray@JSONDecoder@v1_0@opentimelineio@@@std@@YAXAEAPEAU_DictOrArray@JSONDecoder@v1_0@opentimelineio@@QEAU1234@@Z
	??$_Seek_wrapped@Vany@linb@@@std@@YAXAEAPEAVany@linb@@QEAV12@@Z
	??$_Swap_adl@PEAU?$Retainer@VComposable@v1_0@opentimelineio@@@SerializableObject@v1_0@opentimelineio@@@std@@YAXAEAPEAU?$Retainer@VComposable@v1_0@opentimelineio@@@SerializableObject@v1_0@opentimelineio@@0@Z
	??$_Swap_adl@PEAU?$Retainer@VEffect@v1_0@opentimelineio@@@SerializableObject@v1_0@opentimelineio@@@std@@YAXAEAPEAU?$Retainer@VEffect@v1_0@opentimelineio@@@SerializableObject@v1_0@opentimelineio@@0@Z
	??$_Swap_adl@PEAU?$Retainer@VMarker@v1_0@opentimelineio@@@SerializableObject@v1_0@opentimelineio@@@std@@YAXAEAPEAU?$Retainer@VMarker@v1_0@opentimelineio@@@SerializableObject@v1_0@opentimelineio@@0@Z
	??$_Swap_adl@PEAU?$Retainer@VSerializableObject@v1_0@opentimelineio@@@SerializableObject@v1_0@opentimelineio@@@std@@YAXAEAPEAU?$Retainer@VSerializableObject@v1_0@opentimelineio@@@SerializableObject@v1_0@opentimelineio@@0@Z
	??$_Swap_adl@PEAU?$_Tree_node@PEAVComposable@v1_0@opentimelineio@@PEAX@std@@@std@@YAXAEAPEAU?$_Tree_node@PEAVComposable@v1_0@opentimelineio@@PEAX@0@0@Z
	??$_Swap_adl@PEAU?$_Tree_node@U?$pair@$$CBV?$basic_string@DU?$char_traits@D@std@@V?$allocator@D@2@@std@@Vany@linb@@@std@@PEAX@std@@@std@@YAXAEAPEAU?$_Tree_node@U?$pair@$$CBV?$basic_string@DU?$char_traits@D@std@@V?$allocator@D@2@@std@@Vany@linb@@@std@@PEAX@0@0@Z
	??$_Swap_adl@PEAU?$_Tree_node@U?$pair@QEAVComposable@v1_0@opentimelineio@@VTimeRange@2opentime@@@std@@PEAX@std@@@std@@YAXAEAPEAU?$_Tree_node@U?$pair@QEAVComposable@v1_0@opentimelineio@@VTimeRange@2opentime@@@std@@PEAX@0@0@Z
	??$_Swap_adl@PEAVany@linb@@@std@@YAXAEAPEAVany@linb@@0@Z
	??$_Swap_adl@U?$less@PEAVComposable@v1_0@opentimelineio@@@std@@@std@@YAXAEAU?$less@PEAVComposable@v1_0@opentimelineio@@@0@0@Z
	??$_Swap_adl@U?$less@V?$basic_string@DU?$char_traits@D@std@@V?$allocator@D@2@@std@@@std@@@std@@YAXAEAU?$less@V?$basic_string@DU?$char_traits@D@std@@V?$allocator@D@2@@std@@@0@0@Z
	??$_Test_callable@P6A_NAEBVany@linb@@0@Z@std@@YA_NAEBQ6A_NAEBVany@linb@@0@Z@Z
	??$_Test_callable@P6A_NAEBVany@linb@@0@Z@std@@YA_NAEBQ6A_NAEBVany@linb@@0@ZU?$integral_constant@_N$00@0@@Z
	??$_Test_callable@V<lambda_0d80f6a868f8b36a1d5f68283412da7e>@@@std@@YA_NAEBV<lambda_0d80f6a868f8b36a1d5f68283412da7e>@@@Z
	??$_Test_callable@V<lambda_0d80f6a868f8b36a1d5f68283412da7e>@@@std@@YA_NAEBV<lambda_0d80f6a868f8b36a1d5f68283412da7e>@@U?$integral_constant@_N$0A@@0@@Z
	??$_Test_callable@V<lambda_27988cd41ae6a4288cc8caa9931f6267>@@@std@@YA_NAEBV<lambda_27988cd41ae6a4288cc8caa9931f6267>@@@Z
	??$_Test_callable@V<lambda_27988cd41ae6a4288cc8caa9931f6267>@@@std@@YA_NAEBV<lambda_27988cd41ae6a4288cc8caa9931f6267>@@U?$integral_constant@_N$0A@@0@@Z
	??$_Test_callable@V<lambda_3732206c6b8af39d0d8542d4c00085cb>@@@std@@YA_NAEBV<lambda_3732206c6b8af39d0d8542d4c00085cb>@@@Z
	??$_Test_callable@V<lambda_3732206c6b8af39d0d8542d4c00085cb>@@@std@@YA_NAEBV<lambda_3732206c6b8af39d0d8542d4c00085cb>@@U?$integral_constant@_N$0A@@0@@Z
	??$_Test_callable@V<lambda_3a755e0d8b19c3b265999c93c407e624>@@@std@@YA_NAEBV<lambda_3a755e0d8b19c3b265999c93c407e624>@@@Z
	??$_Test_callable@V<lambda_3a755e0d8b19c3b265999c93c407e624>@@@std@@YA_NAEBV<lambda_3a755e0d8b19c3b265999c93c407e624>@@U?$integral_constant@_N$0A@@0@@Z
	??$_Test_callable@V<lambda_5ddccacd3f77002255f4016c725c7a55>@@@std@@YA_NAEBV<lambda_5ddccacd3f77002255f4016c725c7a55>@@@Z
	??$_Test_callable@V<lambda_5ddccacd3f77002255f4016c725c7a55>@@@std@@YA_NAEBV<lambda_5ddccacd3f77002255f4016c725c7a55>@@U?$integral_constant@_N$0A@@0@@Z
	??$_Test_callable@V<lambda_651a8b2021ee43daced787a936a58fab>@@@std@@YA_NAEBV<lambda_651a8b2021ee43daced787a936a58fab>@@@Z
	??$_Test_callable@V<lambda_651a8b2021ee43daced787a936a58fab>@@@std@@YA_NAEBV<lambda_651a8b2021ee43daced787a936a58fab>@@U?$integral_constant@_N$0A@@0@@Z
	??$_Test_callable@V<lambda_69b8fad06dc2ded66a083d5ea69c9992>@@@std@@YA_NAEBV<lambda_69b8fad06dc2ded66a083d5ea69c9992>@@@Z
	??$_Test_callable@V<lambda_69b8fad06dc2ded66a083d5ea69c9992>@@@std@@YA_NAEBV<lambda_69b8fad06dc2ded66a083d5ea69c9992>@@U?$integral_constant@_N$0A@@0@@Z
	??$_Test_callable@V<lambda_6cb77d3f4339c3ac20acbae2e2a5ac3e>@@@std@@YA_NAEBV<lambda_6cb77d3f4339c3ac20acbae2e2a5ac3e>@@@Z
	??$_Test_callable@V<lambda_6cb77d3f4339c3ac20acbae2e2a5ac3e>@@@std@@YA_NAEBV<lambda_6cb77d3f4339c3ac20acbae2e2a5ac3e>@@U?$integral_constant@_N$0A@@0@@Z
	??$_Test_callable@V<lambda_6e89609f4599898de401668f9f0eac24>@@@std@@YA_NAEBV<lambda_6e89609f4599898de401668f9f0eac24>@@@Z
	??$_Test_callable@V<lambda_6e89609f4599898de401668f9f0eac24>@@@std@@YA_NAEBV<lambda_6e89609f4599898de401668f9f0eac24>@@U?$integral_constant@_N$0A@@0@@Z
	??$_Test_callable@V<lambda_75a2f7577643b9f1ad091410b79c5b2c>@@@std@@YA_NAEBV<lambda_75a2f7577643b9f1ad091410b79c5b2c>@@@Z
	??$_Test_callable@V<lambda_75a2f7577643b9f1ad091410b79c5b2c>@@@std@@YA_NAEBV<lambda_75a2f7577643b9f1ad091410b79c5b2c>@@U?$integral_constant@_N$0A@@0@@Z
	??$_Test_callable@V<lambda_76eca87a02e8a96c82650c9895946a93>@@@std@@YA_NAEBV<lambda_76eca87a02e8a96c82650c9895946a93>@@@Z
	??$_Test_callable@V<lambda_76eca87a02e8a96c82650c9895946a93>@@@std@@YA_NAEBV<lambda_76eca87a02e8a96c82650c9895946a93>@@U?$integral_constant@_N$0A@@0@@Z
	??$_Test_callable@V<lambda_7a39e7abaca8030fbed7b6163cf2ac7e>@@@std@@YA_NAEBV<lambda_7a39e7abaca8030fbed7b6163cf2ac7e>@@@Z
	??$_Test_callable@V<lambda_7a39e7abaca8030fbed7b6163cf2ac7e>@@@std@@YA_NAEBV<lambda_7a39e7abaca8030fbed7b6163cf2ac7e>@@U?$integral_constant@_N$0A@@0@@Z
	??$_Test_callable@V<lambda_7ad123fd80a0e795f627b98885f054a9>@@@std@@YA_NAEBV<lambda_7ad123fd80a0e795f627b98885f054a9>@@@Z
	??$_Test_callable@V<lambda_7ad123fd80a0e795f627b98885f054a9>@@@std@@YA_NAEBV<lambda_7ad123fd80a0e795f627b98885f054a9>@@U?$integral_constant@_N$0A@@0@@Z
	??$_Test_callable@V<lambda_9443c01dc1ed3db71386b1d5715e24ee>@@@std@@YA_NAEBV<lambda_9443c01dc1ed3db71386b1d5715e24ee>@@@Z
	??$_Test_callable@V<lambda_9443c01dc1ed3db71386b1d5715e24ee>@@@std@@YA_NAEBV<lambda_9443c01dc1ed3db71386b1d5715e24ee>@@U?$integral_constant@_N$0A@@0@@Z
	??$_Test_callable@V<lambda_c6547d0cfce5b73f7e2493d990f979cb>@@@std@@YA_NAEBV<lambda_c6547d0cfce5b73f7e2493d990f979cb>@@@Z
	??$_Test_callable@V<lambda_c6547d0cfce5b73f7e2493d990f979cb>@@@std@@YA_NAEBV<lambda_c6547d0cfce5b73f7e2493d990f979cb>@@U?$integral_constant@_N$0A@@0@@Z
	??$_Test_callable@V<lambda_c98e3b18bd6b6fb88298302e9b12aff7>@@@std@@YA_NAEBV<lambda_c98e3b18bd6b6fb88298302e9b12aff7>@@@Z
	??$_Test_callable@V<lambda_c98e3b18bd6b6fb88298302e9b12aff7>@@@std@@YA_NAEBV<lambda_c98e3b18bd6b6fb88298302e9b12aff7>@@U?$integral_constant@_N$0A@@0@@Z
	??$_Test_callable@V<lambda_cba0749f46c119f7b63682ec6ce1bdaa>@@@std@@YA_NAEBV<lambda_cba0749f46c119f7b63682ec6ce1bdaa>@@@Z
	??$_Test_callable@V<lambda_cba0749f46c119f7b63682ec6ce1bdaa>@@@std@@YA_NAEBV<lambda_cba0749f46c119f7b63682ec6ce1bdaa>@@U?$integral_constant@_N$0A@@0@@Z
	??$_Test_callable@V<lambda_d2673311fb86753a5af4fed0b679e1fc>@@@std@@YA_NAEBV<lambda_d2673311fb86753a5af4fed0b679e1fc>@@@Z
	??$_Test_callable@V<lambda_d2673311fb86753a5af4fed0b679e1fc>@@@std@@YA_NAEBV<lambda_d2673311fb86753a5af4fed0b679e1fc>@@U?$integral_constant@_N$0A@@0@@Z
	??$_Test_callable@V<lambda_d6bc8737d8bc7e3959c59b9691239ab6>@@@std@@YA_NAEBV<lambda_d6bc8737d8bc7e3959c59b9691239ab6>@@@Z
	??$_Test_callable@V<lambda_d6bc8737d8bc7e3959c59b9691239ab6>@@@std@@YA_NAEBV<lambda_d6bc8737d8bc7e3959c59b9691239ab6>@@U?$integral_constant@_N$0A@@0@@Z
	??$_Test_callable@V<lambda_e777b282161b9f497bc9ea4bd7150aef>@@@std@@YA_NAEBV<lambda_e777b282161b9f497bc9ea4bd7150aef>@@@Z
	??$_Test_callable@V<lambda_e777b282161b9f497bc9ea4bd7150aef>@@@std@@YA_NAEBV<lambda_e777b282161b9f497bc9ea4bd7150aef>@@U?$integral_constant@_N$0A@@0@@Z
	??$_Test_callable@V<lambda_ee5fcd274901b255b1db6ecbe82f8ba7>@@@std@@YA_NAEBV<lambda_ee5fcd274901b255b1db6ecbe82f8ba7>@@@Z
	??$_Test_callable@V<lambda_ee5fcd274901b255b1db6ecbe82f8ba7>@@@std@@YA_NAEBV<lambda_ee5fcd274901b255b1db6ecbe82f8ba7>@@U?$integral_constant@_N$0A@@0@@Z
	??$_Test_callable@V<lambda_fd597aa0b1bb92b7cb8cbd2b41c97086>@@@std@@YA_NAEBV<lambda_fd597aa0b1bb92b7cb8cbd2b41c97086>@@@Z
	??$_Test_callable@V<lambda_fd597aa0b1bb92b7cb8cbd2b41c97086>@@@std@@YA_NAEBV<lambda_fd597aa0b1bb92b7cb8cbd2b41c97086>@@U?$integral_constant@_N$0A@@0@@Z
	??$_Test_callable@V?$_Binder@U_Unforced@std@@P8?$CursorStreamWrapper@U?$GenericStringStream@U?$UTF8@D@OTIO_rapidjson@@@OTIO_rapidjson@@U?$UTF8@D@2@@OTIO_rapidjson@@EBA_KXZPEAV34@@std@@@std@@YA_NAEBV?$_Binder@U_Unforced@std@@P8?$CursorStreamWrapper@U?$GenericStringStream@U?$UTF8@D@OTIO_rapidjson@@@OTIO_rapidjson@@U?$UTF8@D@2@@OTIO_rapidjson@@EBA_KXZPEAV34@@0@@Z
	??$_Test_callable@V?$_Binder@U_Unforced@std@@P8?$CursorStreamWrapper@U?$GenericStringStream@U?$UTF8@D@OTIO_rapidjson@@@OTIO_rapidjson@@U?$UTF8@D@2@@OTIO_rapidjson@@EBA_KXZPEAV34@@std@@@std@@YA_NAEBV?$_Binder@U_Unforced@std@@P8?$CursorStreamWrapper@U?$GenericStringStream@U?$UTF8@D@OTIO_rapidjson@@@OTIO_rapidjson@@U?$UTF8@D@2@@OTIO_rapidjson@@EBA_KXZPEAV34@@0@U?$integral_constant@_N$0A@@0@@Z
	??$_Test_callable@V?$_Binder@U_Unforced@std@@P8?$CursorStreamWrapper@VFileReadStream@OTIO_rapidjson@@U?$UTF8@D@2@@OTIO_rapidjson@@EBA_KXZPEAV34@@std@@@std@@YA_NAEBV?$_Binder@U_Unforced@std@@P8?$CursorStreamWrapper@VFileReadStream@OTIO_rapidjson@@U?$UTF8@D@2@@OTIO_rapidjson@@EBA_KXZPEAV34@@0@@Z
	??$_Test_callable@V?$_Binder@U_Unforced@std@@P8?$CursorStreamWrapper@VFileReadStream@OTIO_rapidjson@@U?$UTF8@D@2@@OTIO_rapidjson@@EBA_KXZPEAV34@@std@@@std@@YA_NAEBV?$_Binder@U_Unforced@std@@P8?$CursorStreamWrapper@VFileReadStream@OTIO_rapidjson@@U?$UTF8@D@2@@OTIO_rapidjson@@EBA_KXZPEAV34@@0@U?$integral_constant@_N$0A@@0@@Z
	??$_Test_callable@V?$_Binder@U_Unforced@std@@P8Encoder@v1_0@opentimelineio@@EAAXAEBUErrorStatus@45@@ZPEAVCloningEncoder@45@AEBU?$_Ph@$00@2@@std@@@std@@YA_NAEBV?$_Binder@U_Unforced@std@@P8Encoder@v1_0@opentimelineio@@EAAXAEBUErrorStatus@45@@ZPEAVCloningEncoder@45@AEBU?$_Ph@$00@2@@0@@Z
	??$_Test_callable@V?$_Binder@U_Unforced@std@@P8Encoder@v1_0@opentimelineio@@EAAXAEBUErrorStatus@45@@ZPEAVCloningEncoder@45@AEBU?$_Ph@$00@2@@std@@@std@@YA_NAEBV?$_Binder@U_Unforced@std@@P8Encoder@v1_0@opentimelineio@@EAAXAEBUErrorStatus@45@@ZPEAVCloningEncoder@45@AEBU?$_Ph@$00@2@@0@U?$integral_constant@_N$0A@@0@@Z
	??$_Test_callable@V?$_Binder@U_Unforced@std@@P8JSONDecoder@v1_0@opentimelineio@@EAAXAEBUErrorStatus@45@@ZPEAV345@AEBU?$_Ph@$00@2@@std@@@std@@YA_NAEBV?$_Binder@U_Unforced@std@@P8JSONDecoder@v1_0@opentimelineio@@EAAXAEBUErrorStatus@45@@ZPEAV345@AEBU?$_Ph@$00@2@@0@@Z
	??$_Test_callable@V?$_Binder@U_Unforced@std@@P8JSONDecoder@v1_0@opentimelineio@@EAAXAEBUErrorStatus@45@@ZPEAV345@AEBU?$_Ph@$00@2@@std@@@std@@YA_NAEBV?$_Binder@U_Unforced@std@@P8JSONDecoder@v1_0@opentimelineio@@EAAXAEBUErrorStatus@45@@ZPEAV345@AEBU?$_Ph@$00@2@@0@U?$integral_constant@_N$0A@@0@@Z
	??$_Traits_compare@U?$char_traits@D@std@@@std@@YAHQEBD_K01@Z
	??$_Traits_equal@U?$char_traits@D@std@@@std@@YA_NQEBD_K01@Z
	??$_Traits_rfind_ch@U?$char_traits@D@std@@@std@@YA_KQEBD_K1D@Z
	??$_Try_emplace@AEBH$$V@?$map@HV?$function@$$A6AXPEAVAnyDictionary@v1_0@opentimelineio@@@Z@std@@U?$less@H@2@V?$allocator@U?$pair@$$CBHV?$function@$$A6AXPEAVAnyDictionary@v1_0@opentimelineio@@@Z@std@@@std@@@2@@std@@QEAA?AU?$pair@V?$_Tree_iterator@V?$_Tree_val@U?$_Tree_simple_types@U?$pair@$$CBHV?$function@$$A6AXPEAVAnyDictionary@v1_0@opentimelineio@@@Z@std@@@std@@@std@@@std@@@std@@_N@1@AEBH@Z
	??$_Try_emplace@AEBQEAVComposable@v1_0@opentimelineio@@$$V@?$map@PEAVComposable@v1_0@opentimelineio@@VTimeRange@2opentime@@U?$less@PEAVComposable@v1_0@opentimelineio@@@std@@V?$allocator@U?$pair@QEAVComposable@v1_0@opentimelineio@@VTimeRange@2opentime@@@std@@@7@@std@@QEAA?AU?$pair@V?$_Tree_iterator@V?$_Tree_val@U?$_Tree_simple_types@U?$pair@QEAVComposable@v1_0@opentimelineio@@VTimeRange@2opentime@@@std@@@std@@@std@@@std@@_N@1@AEBQEAVComposable@v1_0@opentimelineio@@@Z
	??$_Try_emplace@AEBQEAVSerializableObject@v1_0@opentimelineio@@$$V@?$map@PEAVSerializableObject@v1_0@opentimelineio@@HU?$less@PEAVSerializableObject@v1_0@opentimelineio@@@std@@V?$allocator@U?$pair@QEAVSerializableObject@v1_0@opentimelineio@@H@std@@@5@@std@@QEAA?AU?$pair@V?$_Tree_iterator@V?$_Tree_val@U?$_Tree_simple_types@U?$pair@QEAVSerializableObject@v1_0@opentimelineio@@H@std@@@std@@@std@@@std@@_N@1@AEBQEAVSerializableObject@v1_0@opentimelineio@@@Z
	??$_Try_emplace@AEBQEBVSerializableObject@v1_0@opentimelineio@@$$V@?$map@PEBVSerializableObject@v1_0@opentimelineio@@V?$basic_string@DU?$char_traits@D@std@@V?$allocator@D@2@@std@@U?$less@PEBVSerializableObject@v1_0@opentimelineio@@@5@V?$allocator@U?$pair@QEBVSerializableObject@v1_0@opentimelineio@@V?$basic_string@DU?$char_traits@D@std@@V?$allocator@D@2@@std@@@std@@@5@@std@@QEAA?AU?$pair@V?$_Tree_iterator@V?$_Tree_val@U?$_Tree_simple_types@U?$pair@QEBVSerializableObject@v1_0@opentimelineio@@V?$basic_string@DU?$char_traits@D@std@@V?$allocator@D@2@@std@@@std@@@std@@@std@@@std@@_N@1@AEBQEBVSerializableObject@v1_0@opentimelineio@@@Z
	??$_Try_emplace@AEBV?$basic_string@DU?$char_traits@D@std@@V?$allocator@D@2@@std@@$$V@?$map@V?$basic_string@DU?$char_traits@D@std@@V?$allocator@D@2@@std@@HU?$less@V?$basic_string@DU?$char_traits@D@std@@V?$allocator@D@2@@std@@@2@V?$allocator@U?$pair@$$CBV?$basic_string@DU?$char_traits@D@std@@V?$allocator@D@2@@std@@H@std@@@2@@std@@QEAA?AU?$pair@V?$_Tree_iterator@V?$_Tree_val@U?$_Tree_simple_types@U?$pair@$$CBV?$basic_string@DU?$char_traits@D@std@@V?$allocator@D@2@@std@@H@std@@@std@@@std@@@std@@_N@1@AEBV?$basic_string@DU?$char_traits@D@std@@V?$allocator@D@2@@1@@Z
	??$_Try_emplace@AEBV?$basic_string@DU?$char_traits@D@std@@V?$allocator@D@2@@std@@$$V@?$map@V?$basic_string@DU?$char_traits@D@std@@V?$allocator@D@2@@std@@PEAVSerializableObject@v1_0@opentimelineio@@U?$less@V?$basic_string@DU?$char_traits@D@std@@V?$allocator@D@2@@std@@@2@V?$allocator@U?$pair@$$CBV?$basic_string@DU?$char_traits@D@std@@V?$allocator@D@2@@std@@PEAVSerializableObject@v1_0@opentimelineio@@@std@@@2@@std@@QEAA?AU?$pair@V?$_Tree_iterator@V?$_Tree_val@U?$_Tree_simple_types@U?$pair@$$CBV?$basic_string@DU?$char_traits@D@std@@V?$allocator@D@2@@std@@PEAVSerializableObject@v1_0@opentimelineio@@@std@@@std@@@std@@@std@@_N@1@AEBV?$basic_string@DU?$char_traits@D@std@@V?$allocator@D@2@@1@@Z
	??$_Try_emplace@AEBV?$basic_string@DU?$char_traits@D@std@@V?$allocator@D@2@@std@@$$V@?$map@V?$basic_string@DU?$char_traits@D@std@@V?$allocator@D@2@@std@@PEAV_TypeRecord@TypeRegistry@v1_0@opentimelineio@@U?$less@V?$basic_string@DU?$char_traits@D@std@@V?$allocator@D@2@@std@@@2@V?$allocator@U?$pair@$$CBV?$basic_string@DU?$char_traits@D@std@@V?$allocator@D@2@@std@@PEAV_TypeRecord@TypeRegistry@v1_0@opentimelineio@@@std@@@2@@std@@QEAA?AU?$pair@V?$_Tree_iterator@V?$_Tree_val@U?$_Tree_simple_types@U?$pair@$$CBV?$basic_string@DU?$char_traits@D@std@@V?$allocator@D@2@@std@@PEAV_TypeRecord@TypeRegistry@v1_0@opentimelineio@@@std@@@std@@@std@@@std@@_N@1@AEBV?$basic_string@DU?$char_traits@D@std@@V?$allocator@D@2@@1@@Z
	??$_Try_emplace@PEAVComposable@v1_0@opentimelineio@@$$V@?$map@PEAVComposable@v1_0@opentimelineio@@VTimeRange@2opentime@@U?$less@PEAVComposable@v1_0@opentimelineio@@@std@@V?$allocator@U?$pair@QEAVComposable@v1_0@opentimelineio@@VTimeRange@2opentime@@@std@@@7@@std@@QEAA?AU?$pair@V?$_Tree_iterator@V?$_Tree_val@U?$_Tree_simple_types@U?$pair@QEAVComposable@v1_0@opentimelineio@@VTimeRange@2opentime@@@std@@@std@@@std@@@std@@_N@1@$$QEAPEAVComposable@v1_0@opentimelineio@@@Z
	??$_Try_emplace@PEBVtype_info@@$$V@?$map@PEBVtype_info@@V?$function@$$A6AXAEBVany@linb@@@Z@std@@U?$less@PEBVtype_info@@@3@V?$allocator@U?$pair@QEBVtype_info@@V?$function@$$A6AXAEBVany@linb@@@Z@std@@@std@@@3@@std@@QEAA?AU?$pair@V?$_Tree_iterator@V?$_Tree_val@U?$_Tree_simple_types@U?$pair@QEBVtype_info@@V?$function@$$A6AXAEBVany@linb@@@Z@std@@@std@@@std@@@std@@@std@@_N@1@$$QEAPEBVtype_info@@@Z
	??$_Try_emplace@PEBVtype_info@@$$V@?$map@PEBVtype_info@@V?$function@$$A6A_NAEBVany@linb@@0@Z@std@@U?$less@PEBVtype_info@@@3@V?$allocator@U?$pair@QEBVtype_info@@V?$function@$$A6A_NAEBVany@linb@@0@Z@std@@@std@@@3@@std@@QEAA?AU?$pair@V?$_Tree_iterator@V?$_Tree_val@U?$_Tree_simple_types@U?$pair@QEBVtype_info@@V?$function@$$A6A_NAEBVany@linb@@0@Z@std@@@std@@@std@@@std@@@std@@_N@1@$$QEAPEBVtype_info@@@Z
	??$_Try_emplace@V?$basic_string@DU?$char_traits@D@std@@V?$allocator@D@2@@std@@$$V@?$map@V?$basic_string@DU?$char_traits@D@std@@V?$allocator@D@2@@std@@PEAV_TypeRecord@TypeRegistry@v1_0@opentimelineio@@U?$less@V?$basic_string@DU?$char_traits@D@std@@V?$allocator@D@2@@std@@@2@V?$allocator@U?$pair@$$CBV?$basic_string@DU?$char_traits@D@std@@V?$allocator@D@2@@std@@PEAV_TypeRecord@TypeRegistry@v1_0@opentimelineio@@@std@@@2@@std@@QEAA?AU?$pair@V?$_Tree_iterator@V?$_Tree_val@U?$_Tree_simple_types@U?$pair@$$CBV?$basic_string@DU?$char_traits@D@std@@V?$allocator@D@2@@std@@PEAV_TypeRecord@TypeRegistry@v1_0@opentimelineio@@@std@@@std@@@std@@@std@@_N@1@$$QEAV?$basic_string@DU?$char_traits@D@std@@V?$allocator@D@2@@1@@Z
	??$_Try_emplace@V?$basic_string@DU?$char_traits@D@std@@V?$allocator@D@2@@std@@$$V@?$map@V?$basic_string@DU?$char_traits@D@std@@V?$allocator@D@2@@std@@V?$function@$$A6AXAEBVany@linb@@@Z@2@U?$less@V?$basic_string@DU?$char_traits@D@std@@V?$allocator@D@2@@std@@@2@V?$allocator@U?$pair@$$CBV?$basic_string@DU?$char_traits@D@std@@V?$allocator@D@2@@std@@V?$function@$$A6AXAEBVany@linb@@@Z@2@@std@@@2@@std@@QEAA?AU?$pair@V?$_Tree_iterator@V?$_Tree_val@U?$_Tree_simple_types@U?$pair@$$CBV?$basic_string@DU?$char_traits@D@std@@V?$allocator@D@2@@std@@V?$function@$$A6AXAEBVany@linb@@@Z@2@@std@@@std@@@std@@@std@@_N@1@$$QEAV?$basic_string@DU?$char_traits@D@std@@V?$allocator@D@2@@1@@Z
	??$_Try_emplace@V?$basic_string@DU?$char_traits@D@std@@V?$allocator@D@2@@std@@$$V@?$map@V?$basic_string@DU?$char_traits@D@std@@V?$allocator@D@2@@std@@Vany@linb@@U?$less@V?$basic_string@DU?$char_traits@D@std@@V?$allocator@D@2@@std@@@2@V?$allocator@U?$pair@$$CBV?$basic_string@DU?$char_traits@D@std@@V?$allocator@D@2@@std@@Vany@linb@@@std@@@2@@std@@QEAA?AU?$pair@V?$_Tree_iterator@V?$_Tree_val@U?$_Tree_simple_types@U?$pair@$$CBV?$basic_string@DU?$char_traits@D@std@@V?$allocator@D@2@@std@@Vany@linb@@@std@@@std@@@std@@@std@@_N@1@$$QEAV?$basic_string@DU?$char_traits@D@std@@V?$allocator@D@2@@1@@Z
	??$_UIntegral_to_buff@DI@std@@YAPEADPEADI@Z
	??$_Ucopy@PEAPEAVSerializableObject@v1_0@opentimelineio@@@?$vector@U?$Retainer@VSerializableObject@v1_0@opentimelineio@@@SerializableObject@v1_0@opentimelineio@@V?$allocator@U?$Retainer@VSerializableObject@v1_0@opentimelineio@@@SerializableObject@v1_0@opentimelineio@@@std@@@std@@AEAAPEAU?$Retainer@VSerializableObject@v1_0@opentimelineio@@@SerializableObject@v1_0@opentimelineio@@PEAPEAV345@0PEAU2345@@Z
	??$_Ucopy@PEAU?$Retainer@VComposable@v1_0@opentimelineio@@@SerializableObject@v1_0@opentimelineio@@@?$vector@U?$Retainer@VComposable@v1_0@opentimelineio@@@SerializableObject@v1_0@opentimelineio@@V?$allocator@U?$Retainer@VComposable@v1_0@opentimelineio@@@SerializableObject@v1_0@opentimelineio@@@std@@@std@@AEAAPEAU?$Retainer@VComposable@v1_0@opentimelineio@@@SerializableObject@v1_0@opentimelineio@@PEAU2345@00@Z
	??$_Ucopy@PEAVany@linb@@@?$vector@Vany@linb@@V?$allocator@Vany@linb@@@std@@@std@@AEAAPEAVany@linb@@PEAV23@00@Z
	??$_Ucopy@PEBQEAVComposable@v1_0@opentimelineio@@@?$vector@U?$Retainer@VComposable@v1_0@opentimelineio@@@SerializableObject@v1_0@opentimelineio@@V?$allocator@U?$Retainer@VComposable@v1_0@opentimelineio@@@SerializableObject@v1_0@opentimelineio@@@std@@@std@@AEAAPEAU?$Retainer@VComposable@v1_0@opentimelineio@@@SerializableObject@v1_0@opentimelineio@@PEBQEAVComposable@45@0PEAU2345@@Z
	??$_Ucopy@PEBQEAVComposition@v1_0@opentimelineio@@@?$vector@PEAVComposition@v1_0@opentimelineio@@V?$allocator@PEAVComposition@v1_0@opentimelineio@@@std@@@std@@AEAAPEAPEAVComposition@v1_0@opentimelineio@@PEBQEAV234@0PEAPEAV234@@Z
	??$_Ucopy@PEBQEAVEffect@v1_0@opentimelineio@@@?$vector@U?$Retainer@VEffect@v1_0@opentimelineio@@@SerializableObject@v1_0@opentimelineio@@V?$allocator@U?$Retainer@VEffect@v1_0@opentimelineio@@@SerializableObject@v1_0@opentimelineio@@@std@@@std@@AEAAPEAU?$Retainer@VEffect@v1_0@opentimelineio@@@SerializableObject@v1_0@opentimelineio@@PEBQEAVEffect@45@0PEAU2345@@Z
	??$_Ucopy@PEBQEAVMarker@v1_0@opentimelineio@@@?$vector@U?$Retainer@VMarker@v1_0@opentimelineio@@@SerializableObject@v1_0@opentimelineio@@V?$allocator@U?$Retainer@VMarker@v1_0@opentimelineio@@@SerializableObject@v1_0@opentimelineio@@@std@@@std@@AEAAPEAU?$Retainer@VMarker@v1_0@opentimelineio@@@SerializableObject@v1_0@opentimelineio@@PEBQEAVMarker@45@0PEAU2345@@Z
	??$_Ucopy@PEBQEAVSerializableObject@v1_0@opentimelineio@@@?$vector@U?$Retainer@VSerializableObject@v1_0@opentimelineio@@@SerializableObject@v1_0@opentimelineio@@V?$allocator@U?$Retainer@VSerializableObject@v1_0@opentimelineio@@@SerializableObject@v1_0@opentimelineio@@@std@@@std@@AEAAPEAU?$Retainer@VSerializableObject@v1_0@opentimelineio@@@SerializableObject@v1_0@opentimelineio@@PEBQEAV345@0PEAU2345@@Z
	??$_Ucopy@PEBU?$Retainer@VComposable@v1_0@opentimelineio@@@SerializableObject@v1_0@opentimelineio@@@?$vector@PEAVComposable@v1_0@opentimelineio@@V?$allocator@PEAVComposable@v1_0@opentimelineio@@@std@@@std@@AEAAPEAPEAVComposable@v1_0@opentimelineio@@PEBU?$Retainer@VComposable@v1_0@opentimelineio@@@SerializableObject@34@0PEAPEAV234@@Z
	??$_Unfancy@D@std@@YAPEADPEAD@Z
	??$_Unfancy@PEAVComposable@v1_0@opentimelineio@@@std@@YAPEAPEAVComposable@v1_0@opentimelineio@@PEAPEAV123@@Z
	??$_Unfancy@PEAVComposition@v1_0@opentimelineio@@@std@@YAPEAPEAVComposition@v1_0@opentimelineio@@PEAPEAV123@@Z
	??$_Unfancy@PEAVTrack@v1_0@opentimelineio@@@std@@YAPEAPEAVTrack@v1_0@opentimelineio@@PEAPEAV123@@Z
	??$_Unfancy@U?$Retainer@VComposable@v1_0@opentimelineio@@@SerializableObject@v1_0@opentimelineio@@@std@@YAPEAU?$Retainer@VComposable@v1_0@opentimelineio@@@SerializableObject@v1_0@opentimelineio@@PEAU1234@@Z
	??$_Unfancy@U?$Retainer@VEffect@v1_0@opentimelineio@@@SerializableObject@v1_0@opentimelineio@@@std@@YAPEAU?$Retainer@VEffect@v1_0@opentimelineio@@@SerializableObject@v1_0@opentimelineio@@PEAU1234@@Z
	??$_Unfancy@U?$Retainer@VMarker@v1_0@opentimelineio@@@SerializableObject@v1_0@opentimelineio@@@std@@YAPEAU?$Retainer@VMarker@v1_0@opentimelineio@@@SerializableObject@v1_0@opentimelineio@@PEAU1234@@Z
	??$_Unfancy@U?$Retainer@VSerializableObject@v1_0@opentimelineio@@@SerializableObject@v1_0@opentimelineio@@@std@@YAPEAU?$Retainer@VSerializableObject@v1_0@opentimelineio@@@SerializableObject@v1_0@opentimelineio@@PEAU1234@@Z
	??$_Unfancy@U_DictOrArray@CloningEncoder@v1_0@opentimelineio@@@std@@YAPEAU_DictOrArray@CloningEncoder@v1_0@opentimelineio@@PEAU1234@@Z
	??$_Unfancy@U_DictOrArray@JSONDecoder@v1_0@opentimelineio@@@std@@YAPEAU_DictOrArray@JSONDecoder@v1_0@opentimelineio@@PEAU1234@@Z
	??$_Unfancy@Vany@linb@@@std@@YAPEAVany@linb@@PEAV12@@Z
	??$_Ungetc@D@std@@YA_NAEBDPEAU_iobuf@@@Z
	??$_Uninitialized_copy@PEAPEAVSerializableObject@v1_0@opentimelineio@@PEAU?$Retainer@VSerializableObject@v1_0@opentimelineio@@@123@V?$allocator@U?$Retainer@VSerializableObject@v1_0@opentimelineio@@@SerializableObject@v1_0@opentimelineio@@@std@@@std@@YAPEAU?$Retainer@VSerializableObject@v1_0@opentimelineio@@@SerializableObject@v1_0@opentimelineio@@QEAPEAV234@0PEAU1234@AEAV?$allocator@U?$Retainer@VSerializableObject@v1_0@opentimelineio@@@SerializableObject@v1_0@opentimelineio@@@0@@Z
	??$_Uninitialized_copy@PEAU?$Retainer@VComposable@v1_0@opentimelineio@@@SerializableObject@v1_0@opentimelineio@@PEAU1234@V?$allocator@U?$Retainer@VComposable@v1_0@opentimelineio@@@SerializableObject@v1_0@opentimelineio@@@std@@@std@@YAPEAU?$Retainer@VComposable@v1_0@opentimelineio@@@SerializableObject@v1_0@opentimelineio@@QEAU1234@0PEAU1234@AEAV?$allocator@U?$Retainer@VComposable@v1_0@opentimelineio@@@SerializableObject@v1_0@opentimelineio@@@0@@Z
	??$_Uninitialized_copy@PEAU?$Retainer@VEffect@v1_0@opentimelineio@@@SerializableObject@v1_0@opentimelineio@@PEAU1234@V?$allocator@U?$Retainer@VEffect@v1_0@opentimelineio@@@SerializableObject@v1_0@opentimelineio@@@std@@@std@@YAPEAU?$Retainer@VEffect@v1_0@opentimelineio@@@SerializableObject@v1_0@opentimelineio@@QEAU1234@0PEAU1234@AEAV?$allocator@U?$Retainer@VEffect@v1_0@opentimelineio@@@SerializableObject@v1_0@opentimelineio@@@0@@Z
	??$_Uninitialized_copy@PEAU?$Retainer@VMarker@v1_0@opentimelineio@@@SerializableObject@v1_0@opentimelineio@@PEAU1234@V?$allocator@U?$Retainer@VMarker@v1_0@opentimelineio@@@SerializableObject@v1_0@opentimelineio@@@std@@@std@@YAPEAU?$Retainer@VMarker@v1_0@opentimelineio@@@SerializableObject@v1_0@opentimelineio@@QEAU1234@0PEAU1234@AEAV?$allocator@U?$Retainer@VMarker@v1_0@opentimelineio@@@SerializableObject@v1_0@opentimelineio@@@0@@Z
	??$_Uninitialized_copy@PEAU?$Retainer@VSerializableObject@v1_0@opentimelineio@@@SerializableObject@v1_0@opentimelineio@@PEAU1234@V?$allocator@U?$Retainer@VSerializableObject@v1_0@opentimelineio@@@SerializableObject@v1_0@opentimelineio@@@std@@@std@@YAPEAU?$Retainer@VSerializableObject@v1_0@opentimelineio@@@SerializableObject@v1_0@opentimelineio@@QEAU1234@0PEAU1234@AEAV?$allocator@U?$Retainer@VSerializableObject@v1_0@opentimelineio@@@SerializableObject@v1_0@opentimelineio@@@0@@Z
	??$_Uninitialized_copy@PEAU_DictOrArray@CloningEncoder@v1_0@opentimelineio@@PEAU1234@V?$allocator@U_DictOrArray@CloningEncoder@v1_0@opentimelineio@@@std@@@std@@YAPEAU_DictOrArray@CloningEncoder@v1_0@opentimelineio@@QEAU1234@0PEAU1234@AEAV?$allocator@U_DictOrArray@CloningEncoder@v1_0@opentimelineio@@@0@@Z
	??$_Uninitialized_copy@PEAU_DictOrArray@JSONDecoder@v1_0@opentimelineio@@PEAU1234@V?$allocator@U_DictOrArray@JSONDecoder@v1_0@opentimelineio@@@std@@@std@@YAPEAU_DictOrArray@JSONDecoder@v1_0@opentimelineio@@QEAU1234@0PEAU1234@AEAV?$allocator@U_DictOrArray@JSONDecoder@v1_0@opentimelineio@@@0@@Z
	??$_Uninitialized_copy@PEAVany@linb@@PEAV12@V?$allocator@Vany@linb@@@std@@@std@@YAPEAVany@linb@@QEAV12@0PEAV12@AEAV?$allocator@Vany@linb@@@0@@Z
	??$_Uninitialized_copy@PEBQEAVComposable@v1_0@opentimelineio@@PEAU?$Retainer@VComposable@v1_0@opentimelineio@@@SerializableObject@23@V?$allocator@U?$Retainer@VComposable@v1_0@opentimelineio@@@SerializableObject@v1_0@opentimelineio@@@std@@@std@@YAPEAU?$Retainer@VComposable@v1_0@opentimelineio@@@SerializableObject@v1_0@opentimelineio@@QEBQEAVComposable@34@0PEAU1234@AEAV?$allocator@U?$Retainer@VComposable@v1_0@opentimelineio@@@SerializableObject@v1_0@opentimelineio@@@0@@Z
	??$_Uninitialized_copy@PEBQEAVComposition@v1_0@opentimelineio@@PEAPEAV123@V?$allocator@PEAVComposition@v1_0@opentimelineio@@@std@@@std@@YAPEAPEAVComposition@v1_0@opentimelineio@@QEBQEAV123@0PEAPEAV123@AEAV?$allocator@PEAVComposition@v1_0@opentimelineio@@@0@@Z
	??$_Uninitialized_copy@PEBQEAVEffect@v1_0@opentimelineio@@PEAU?$Retainer@VEffect@v1_0@opentimelineio@@@SerializableObject@23@V?$allocator@U?$Retainer@VEffect@v1_0@opentimelineio@@@SerializableObject@v1_0@opentimelineio@@@std@@@std@@YAPEAU?$Retainer@VEffect@v1_0@opentimelineio@@@SerializableObject@v1_0@opentimelineio@@QEBQEAVEffect@34@0PEAU1234@AEAV?$allocator@U?$Retainer@VEffect@v1_0@opentimelineio@@@SerializableObject@v1_0@opentimelineio@@@0@@Z
	??$_Uninitialized_copy@PEBQEAVMarker@v1_0@opentimelineio@@PEAU?$Retainer@VMarker@v1_0@opentimelineio@@@SerializableObject@23@V?$allocator@U?$Retainer@VMarker@v1_0@opentimelineio@@@SerializableObject@v1_0@opentimelineio@@@std@@@std@@YAPEAU?$Retainer@VMarker@v1_0@opentimelineio@@@SerializableObject@v1_0@opentimelineio@@QEBQEAVMarker@34@0PEAU1234@AEAV?$allocator@U?$Retainer@VMarker@v1_0@opentimelineio@@@SerializableObject@v1_0@opentimelineio@@@0@@Z
	??$_Uninitialized_copy@PEBQEAVSerializableObject@v1_0@opentimelineio@@PEAU?$Retainer@VSerializableObject@v1_0@opentimelineio@@@123@V?$allocator@U?$Retainer@VSerializableObject@v1_0@opentimelineio@@@SerializableObject@v1_0@opentimelineio@@@std@@@std@@YAPEAU?$Retainer@VSerializableObject@v1_0@opentimelineio@@@SerializableObject@v1_0@opentimelineio@@QEBQEAV234@0PEAU1234@AEAV?$allocator@U?$Retainer@VSerializableObject@v1_0@opentimelineio@@@SerializableObject@v1_0@opentimelineio@@@0@@Z
	??$_Uninitialized_copy@PEBU?$Retainer@VComposable@v1_0@opentimelineio@@@SerializableObject@v1_0@opentimelineio@@PEAPEAVComposable@34@V?$allocator@PEAVComposable@v1_0@opentimelineio@@@std@@@std@@YAPEAPEAVComposable@v1_0@opentimelineio@@QEBU?$Retainer@VComposable@v1_0@opentimelineio@@@SerializableObject@23@0PEAPEAV123@AEAV?$allocator@PEAVComposable@v1_0@opentimelineio@@@0@@Z
	??$_Uninitialized_copy_al_unchecked@PEAPEAVSerializableObject@v1_0@opentimelineio@@PEAU?$Retainer@VSerializableObject@v1_0@opentimelineio@@@123@V?$allocator@U?$Retainer@VSerializableObject@v1_0@opentimelineio@@@SerializableObject@v1_0@opentimelineio@@@std@@@std@@YAPEAU?$Retainer@VSerializableObject@v1_0@opentimelineio@@@SerializableObject@v1_0@opentimelineio@@PEAPEAV234@QEAPEAV234@QEAU1234@AEAV?$allocator@U?$Retainer@VSerializableObject@v1_0@opentimelineio@@@SerializableObject@v1_0@opentimelineio@@@0@U_General_ptr_iterator_tag@0@U_Unused_parameter@0@@Z
	??$_Uninitialized_copy_al_unchecked@PEAU?$Retainer@VComposable@v1_0@opentimelineio@@@SerializableObject@v1_0@opentimelineio@@PEAU1234@V?$allocator@U?$Retainer@VComposable@v1_0@opentimelineio@@@SerializableObject@v1_0@opentimelineio@@@std@@@std@@YAPEAU?$Retainer@VComposable@v1_0@opentimelineio@@@SerializableObject@v1_0@opentimelineio@@PEAU1234@QEAU1234@1AEAV?$allocator@U?$Retainer@VComposable@v1_0@opentimelineio@@@SerializableObject@v1_0@opentimelineio@@@0@U_General_ptr_iterator_tag@0@U_Unused_parameter@0@@Z
	??$_Uninitialized_copy_al_unchecked@PEAU?$Retainer@VEffect@v1_0@opentimelineio@@@SerializableObject@v1_0@opentimelineio@@PEAU1234@V?$allocator@U?$Retainer@VEffect@v1_0@opentimelineio@@@SerializableObject@v1_0@opentimelineio@@@std@@@std@@YAPEAU?$Retainer@VEffect@v1_0@opentimelineio@@@SerializableObject@v1_0@opentimelineio@@PEAU1234@QEAU1234@1AEAV?$allocator@U?$Retainer@VEffect@v1_0@opentimelineio@@@SerializableObject@v1_0@opentimelineio@@@0@U_General_ptr_iterator_tag@0@U_Unused_parameter@0@@Z
	??$_Uninitialized_copy_al_unchecked@PEAU?$Retainer@VMarker@v1_0@opentimelineio@@@SerializableObject@v1_0@opentimelineio@@PEAU1234@V?$allocator@U?$Retainer@VMarker@v1_0@opentimelineio@@@SerializableObject@v1_0@opentimelineio@@@std@@@std@@YAPEAU?$Retainer@VMarker@v1_0@opentimelineio@@@SerializableObject@v1_0@opentimelineio@@PEAU1234@QEAU1234@1AEAV?$allocator@U?$Retainer@VMarker@v1_0@opentimelineio@@@SerializableObject@v1_0@opentimelineio@@@0@U_General_ptr_iterator_tag@0@U_Unused_parameter@0@@Z
	??$_Uninitialized_copy_al_unchecked@PEAU?$Retainer@VSerializableObject@v1_0@opentimelineio@@@SerializableObject@v1_0@opentimelineio@@PEAU1234@V?$allocator@U?$Retainer@VSerializableObject@v1_0@opentimelineio@@@SerializableObject@v1_0@opentimelineio@@@std@@@std@@YAPEAU?$Retainer@VSerializableObject@v1_0@opentimelineio@@@SerializableObject@v1_0@opentimelineio@@PEAU1234@QEAU1234@1AEAV?$allocator@U?$Retainer@VSerializableObject@v1_0@opentimelineio@@@SerializableObject@v1_0@opentimelineio@@@0@U_General_ptr_iterator_tag@0@U_Unused_parameter@0@@Z
	??$_Uninitialized_copy_al_unchecked@PEAU_DictOrArray@CloningEncoder@v1_0@opentimelineio@@PEAU1234@V?$allocator@U_DictOrArray@CloningEncoder@v1_0@opentimelineio@@@std@@@std@@YAPEAU_DictOrArray@CloningEncoder@v1_0@opentimelineio@@PEAU1234@QEAU1234@1AEAV?$allocator@U_DictOrArray@CloningEncoder@v1_0@opentimelineio@@@0@U_General_ptr_iterator_tag@0@U_Unused_parameter@0@@Z
	??$_Uninitialized_copy_al_unchecked@PEAU_DictOrArray@JSONDecoder@v1_0@opentimelineio@@PEAU1234@V?$allocator@U_DictOrArray@JSONDecoder@v1_0@opentimelineio@@@std@@@std@@YAPEAU_DictOrArray@JSONDecoder@v1_0@opentimelineio@@PEAU1234@QEAU1234@1AEAV?$allocator@U_DictOrArray@JSONDecoder@v1_0@opentimelineio@@@0@U_General_ptr_iterator_tag@0@U_Unused_parameter@0@@Z
	??$_Uninitialized_copy_al_unchecked@PEAVany@linb@@PEAV12@V?$allocator@Vany@linb@@@std@@@std@@YAPEAVany@linb@@PEAV12@QEAV12@1AEAV?$allocator@Vany@linb@@@0@U_General_ptr_iterator_tag@0@U_Unused_parameter@0@@Z
	??$_Uninitialized_copy_al_unchecked@PEBQEAVComposable@v1_0@opentimelineio@@PEAU?$Retainer@VComposable@v1_0@opentimelineio@@@SerializableObject@23@V?$allocator@U?$Retainer@VComposable@v1_0@opentimelineio@@@SerializableObject@v1_0@opentimelineio@@@std@@@std@@YAPEAU?$Retainer@VComposable@v1_0@opentimelineio@@@SerializableObject@v1_0@opentimelineio@@PEBQEAVComposable@34@QEBQEAV534@QEAU1234@AEAV?$allocator@U?$Retainer@VComposable@v1_0@opentimelineio@@@SerializableObject@v1_0@opentimelineio@@@0@U_General_ptr_iterator_tag@0@U_Unused_parameter@0@@Z
	??$_Uninitialized_copy_al_unchecked@PEBQEAVEffect@v1_0@opentimelineio@@PEAU?$Retainer@VEffect@v1_0@opentimelineio@@@SerializableObject@23@V?$allocator@U?$Retainer@VEffect@v1_0@opentimelineio@@@SerializableObject@v1_0@opentimelineio@@@std@@@std@@YAPEAU?$Retainer@VEffect@v1_0@opentimelineio@@@SerializableObject@v1_0@opentimelineio@@PEBQEAVEffect@34@QEBQEAV534@QEAU1234@AEAV?$allocator@U?$Retainer@VEffect@v1_0@opentimelineio@@@SerializableObject@v1_0@opentimelineio@@@0@U_General_ptr_iterator_tag@0@U_Unused_parameter@0@@Z
	??$_Uninitialized_copy_al_unchecked@PEBQEAVMarker@v1_0@opentimelineio@@PEAU?$Retainer@VMarker@v1_0@opentimelineio@@@SerializableObject@23@V?$allocator@U?$Retainer@VMarker@v1_0@opentimelineio@@@SerializableObject@v1_0@opentimelineio@@@std@@@std@@YAPEAU?$Retainer@VMarker@v1_0@opentimelineio@@@SerializableObject@v1_0@opentimelineio@@PEBQEAVMarker@34@QEBQEAV534@QEAU1234@AEAV?$allocator@U?$Retainer@VMarker@v1_0@opentimelineio@@@SerializableObject@v1_0@opentimelineio@@@0@U_General_ptr_iterator_tag@0@U_Unused_parameter@0@@Z
	??$_Uninitialized_copy_al_unchecked@PEBQEAVSerializableObject@v1_0@opentimelineio@@PEAU?$Retainer@VSerializableObject@v1_0@opentimelineio@@@123@V?$allocator@U?$Retainer@VSerializableObject@v1_0@opentimelineio@@@SerializableObject@v1_0@opentimelineio@@@std@@@std@@YAPEAU?$Retainer@VSerializableObject@v1_0@opentimelineio@@@SerializableObject@v1_0@opentimelineio@@PEBQEAV234@QEBQEAV234@QEAU1234@AEAV?$allocator@U?$Retainer@VSerializableObject@v1_0@opentimelineio@@@SerializableObject@v1_0@opentimelineio@@@0@U_General_ptr_iterator_tag@0@U_Unused_parameter@0@@Z
	??$_Uninitialized_copy_al_unchecked@PEBU?$Retainer@VComposable@v1_0@opentimelineio@@@SerializableObject@v1_0@opentimelineio@@PEAPEAVComposable@34@V?$allocator@PEAVComposable@v1_0@opentimelineio@@@std@@@std@@YAPEAPEAVComposable@v1_0@opentimelineio@@PEBU?$Retainer@VComposable@v1_0@opentimelineio@@@SerializableObject@23@QEBU4523@QEAPEAV123@AEAV?$allocator@PEAVComposable@v1_0@opentimelineio@@@0@U_General_ptr_iterator_tag@0@U_Unused_parameter@0@@Z
	??$_Uninitialized_copy_al_unchecked@QEAVComposition@v1_0@opentimelineio@@PEAV123@V?$allocator@PEAVComposition@v1_0@opentimelineio@@@std@@@std@@YAPEAPEAVComposition@v1_0@opentimelineio@@QEBQEAV123@0QEAPEAV123@AEAV?$allocator@PEAVComposition@v1_0@opentimelineio@@@0@U_Really_trivial_ptr_iterator_tag@0@U?$integral_constant@_N$00@0@@Z
	??$_Uninitialized_move@PEAPEAVComposable@v1_0@opentimelineio@@PEAPEAV123@V?$allocator@PEAVComposable@v1_0@opentimelineio@@@std@@@std@@YAPEAPEAVComposable@v1_0@opentimelineio@@QEAPEAV123@0PEAPEAV123@AEAV?$allocator@PEAVComposable@v1_0@opentimelineio@@@0@@Z
	??$_Uninitialized_move@PEAPEAVComposition@v1_0@opentimelineio@@PEAPEAV123@V?$allocator@PEAVComposition@v1_0@opentimelineio@@@std@@@std@@YAPEAPEAVComposition@v1_0@opentimelineio@@QEAPEAV123@0PEAPEAV123@AEAV?$allocator@PEAVComposition@v1_0@opentimelineio@@@0@@Z
	??$_Uninitialized_move@PEAPEAVTrack@v1_0@opentimelineio@@PEAPEAV123@V?$allocator@PEAVTrack@v1_0@opentimelineio@@@std@@@std@@YAPEAPEAVTrack@v1_0@opentimelineio@@QEAPEAV123@0PEAPEAV123@AEAV?$allocator@PEAVTrack@v1_0@opentimelineio@@@0@@Z
	??$_Uninitialized_move@PEAU?$Retainer@VComposable@v1_0@opentimelineio@@@SerializableObject@v1_0@opentimelineio@@PEAU1234@V?$allocator@U?$Retainer@VComposable@v1_0@opentimelineio@@@SerializableObject@v1_0@opentimelineio@@@std@@@std@@YAPEAU?$Retainer@VComposable@v1_0@opentimelineio@@@SerializableObject@v1_0@opentimelineio@@QEAU1234@0PEAU1234@AEAV?$allocator@U?$Retainer@VComposable@v1_0@opentimelineio@@@SerializableObject@v1_0@opentimelineio@@@0@@Z
	??$_Uninitialized_move@PEAU?$Retainer@VEffect@v1_0@opentimelineio@@@SerializableObject@v1_0@opentimelineio@@PEAU1234@V?$allocator@U?$Retainer@VEffect@v1_0@opentimelineio@@@SerializableObject@v1_0@opentimelineio@@@std@@@std@@YAPEAU?$Retainer@VEffect@v1_0@opentimelineio@@@SerializableObject@v1_0@opentimelineio@@QEAU1234@0PEAU1234@AEAV?$allocator@U?$Retainer@VEffect@v1_0@opentimelineio@@@SerializableObject@v1_0@opentimelineio@@@0@@Z
	??$_Uninitialized_move@PEAU?$Retainer@VMarker@v1_0@opentimelineio@@@SerializableObject@v1_0@opentimelineio@@PEAU1234@V?$allocator@U?$Retainer@VMarker@v1_0@opentimelineio@@@SerializableObject@v1_0@opentimelineio@@@std@@@std@@YAPEAU?$Retainer@VMarker@v1_0@opentimelineio@@@SerializableObject@v1_0@opentimelineio@@QEAU1234@0PEAU1234@AEAV?$allocator@U?$Retainer@VMarker@v1_0@opentimelineio@@@SerializableObject@v1_0@opentimelineio@@@0@@Z
	??$_Uninitialized_move@PEAU?$Retainer@VSerializableObject@v1_0@opentimelineio@@@SerializableObject@v1_0@opentimelineio@@PEAU1234@V?$allocator@U?$Retainer@VSerializableObject@v1_0@opentimelineio@@@SerializableObject@v1_0@opentimelineio@@@std@@@std@@YAPEAU?$Retainer@VSerializableObject@v1_0@opentimelineio@@@SerializableObject@v1_0@opentimelineio@@QEAU1234@0PEAU1234@AEAV?$allocator@U?$Retainer@VSerializableObject@v1_0@opentimelineio@@@SerializableObject@v1_0@opentimelineio@@@0@@Z
	??$_Uninitialized_move@PEAU_DictOrArray@CloningEncoder@v1_0@opentimelineio@@PEAU1234@V?$allocator@U_DictOrArray@CloningEncoder@v1_0@opentimelineio@@@std@@@std@@YAPEAU_DictOrArray@CloningEncoder@v1_0@opentimelineio@@QEAU1234@0PEAU1234@AEAV?$allocator@U_DictOrArray@CloningEncoder@v1_0@opentimelineio@@@0@@Z
	??$_Uninitialized_move@PEAU_DictOrArray@JSONDecoder@v1_0@opentimelineio@@PEAU1234@V?$allocator@U_DictOrArray@JSONDecoder@v1_0@opentimelineio@@@std@@@std@@YAPEAU_DictOrArray@JSONDecoder@v1_0@opentimelineio@@QEAU1234@0PEAU1234@AEAV?$allocator@U_DictOrArray@JSONDecoder@v1_0@opentimelineio@@@0@@Z
	??$_Uninitialized_move@PEAVany@linb@@PEAV12@V?$allocator@Vany@linb@@@std@@@std@@YAPEAVany@linb@@QEAV12@0PEAV12@AEAV?$allocator@Vany@linb@@@0@@Z
	??$_Uninitialized_move_al_unchecked@PEAU?$Retainer@VComposable@v1_0@opentimelineio@@@SerializableObject@v1_0@opentimelineio@@PEAU1234@V?$allocator@U?$Retainer@VComposable@v1_0@opentimelineio@@@SerializableObject@v1_0@opentimelineio@@@std@@@std@@YAPEAU?$Retainer@VComposable@v1_0@opentimelineio@@@SerializableObject@v1_0@opentimelineio@@PEAU1234@QEAU1234@1AEAV?$allocator@U?$Retainer@VComposable@v1_0@opentimelineio@@@SerializableObject@v1_0@opentimelineio@@@0@U_General_ptr_iterator_tag@0@U_Unused_parameter@0@@Z
	??$_Uninitialized_move_al_unchecked@PEAU?$Retainer@VEffect@v1_0@opentimelineio@@@SerializableObject@v1_0@opentimelineio@@PEAU1234@V?$allocator@U?$Retainer@VEffect@v1_0@opentimelineio@@@SerializableObject@v1_0@opentimelineio@@@std@@@std@@YAPEAU?$Retainer@VEffect@v1_0@opentimelineio@@@SerializableObject@v1_0@opentimelineio@@PEAU1234@QEAU1234@1AEAV?$allocator@U?$Retainer@VEffect@v1_0@opentimelineio@@@SerializableObject@v1_0@opentimelineio@@@0@U_General_ptr_iterator_tag@0@U_Unused_parameter@0@@Z
	??$_Uninitialized_move_al_unchecked@PEAU?$Retainer@VMarker@v1_0@opentimelineio@@@SerializableObject@v1_0@opentimelineio@@PEAU1234@V?$allocator@U?$Retainer@VMarker@v1_0@opentimelineio@@@SerializableObject@v1_0@opentimelineio@@@std@@@std@@YAPEAU?$Retainer@VMarker@v1_0@opentimelineio@@@SerializableObject@v1_0@opentimelineio@@PEAU1234@QEAU1234@1AEAV?$allocator@U?$Retainer@VMarker@v1_0@opentimelineio@@@SerializableObject@v1_0@opentimelineio@@@0@U_General_ptr_iterator_tag@0@U_Unused_parameter@0@@Z
	??$_Uninitialized_move_al_unchecked@PEAU?$Retainer@VSerializableObject@v1_0@opentimelineio@@@SerializableObject@v1_0@opentimelineio@@PEAU1234@V?$allocator@U?$Retainer@VSerializableObject@v1_0@opentimelineio@@@SerializableObject@v1_0@opentimelineio@@@std@@@std@@YAPEAU?$Retainer@VSerializableObject@v1_0@opentimelineio@@@SerializableObject@v1_0@opentimelineio@@PEAU1234@QEAU1234@1AEAV?$allocator@U?$Retainer@VSerializableObject@v1_0@opentimelineio@@@SerializableObject@v1_0@opentimelineio@@@0@U_General_ptr_iterator_tag@0@U_Unused_parameter@0@@Z
	??$_Uninitialized_move_al_unchecked@PEAU_DictOrArray@CloningEncoder@v1_0@opentimelineio@@PEAU1234@V?$allocator@U_DictOrArray@CloningEncoder@v1_0@opentimelineio@@@std@@@std@@YAPEAU_DictOrArray@CloningEncoder@v1_0@opentimelineio@@PEAU1234@QEAU1234@1AEAV?$allocator@U_DictOrArray@CloningEncoder@v1_0@opentimelineio@@@0@U_General_ptr_iterator_tag@0@U_Unused_parameter@0@@Z
	??$_Uninitialized_move_al_unchecked@PEAU_DictOrArray@JSONDecoder@v1_0@opentimelineio@@PEAU1234@V?$allocator@U_DictOrArray@JSONDecoder@v1_0@opentimelineio@@@std@@@std@@YAPEAU_DictOrArray@JSONDecoder@v1_0@opentimelineio@@PEAU1234@QEAU1234@1AEAV?$allocator@U_DictOrArray@JSONDecoder@v1_0@opentimelineio@@@0@U_General_ptr_iterator_tag@0@U_Unused_parameter@0@@Z
	??$_Uninitialized_move_al_unchecked@PEAVComposable@v1_0@opentimelineio@@PEAV123@V?$allocator@PEAVComposable@v1_0@opentimelineio@@@std@@@std@@YAPEAPEAVComposable@v1_0@opentimelineio@@QEAPEAV123@00AEAV?$allocator@PEAVComposable@v1_0@opentimelineio@@@0@U_Really_trivial_ptr_iterator_tag@0@U?$integral_constant@_N$00@0@@Z
	??$_Uninitialized_move_al_unchecked@PEAVComposition@v1_0@opentimelineio@@PEAV123@V?$allocator@PEAVComposition@v1_0@opentimelineio@@@std@@@std@@YAPEAPEAVComposition@v1_0@opentimelineio@@QEAPEAV123@00AEAV?$allocator@PEAVComposition@v1_0@opentimelineio@@@0@U_Really_trivial_ptr_iterator_tag@0@U?$integral_constant@_N$00@0@@Z
	??$_Uninitialized_move_al_unchecked@PEAVTrack@v1_0@opentimelineio@@PEAV123@V?$allocator@PEAVTrack@v1_0@opentimelineio@@@std@@@std@@YAPEAPEAVTrack@v1_0@opentimelineio@@QEAPEAV123@00AEAV?$allocator@PEAVTrack@v1_0@opentimelineio@@@0@U_Really_trivial_ptr_iterator_tag@0@U?$integral_constant@_N$00@0@@Z
	??$_Uninitialized_move_al_unchecked@PEAVany@linb@@PEAV12@V?$allocator@Vany@linb@@@std@@@std@@YAPEAVany@linb@@PEAV12@QEAV12@1AEAV?$allocator@Vany@linb@@@0@U_General_ptr_iterator_tag@0@U_Unused_parameter@0@@Z
	??$_fetch@H@Reader@SerializableObject@v1_0@opentimelineio@@AEAA_NAEBV?$basic_string@DU?$char_traits@D@std@@V?$allocator@D@2@@std@@PEAHPEA_N@Z
	??$_fetch@N@Reader@SerializableObject@v1_0@opentimelineio@@AEAA_NAEBV?$basic_string@DU?$char_traits@D@std@@V?$allocator@D@2@@std@@PEANPEA_N@Z
	??$_fetch@V?$basic_string@DU?$char_traits@D@std@@V?$allocator@D@2@@std@@@Reader@SerializableObject@v1_0@opentimelineio@@AEAA_NAEBV?$basic_string@DU?$char_traits@D@std@@V?$allocator@D@2@@std@@PEAV45@PEA_N@Z
	??$_fetch@VAnyDictionary@v1_0@opentimelineio@@@Reader@SerializableObject@v1_0@opentimelineio@@AEAA_NAEBV?$basic_string@DU?$char_traits@D@std@@V?$allocator@D@2@@std@@PEAVAnyDictionary@23@PEA_N@Z
	??$_fetch@VAnyVector@v1_0@opentimelineio@@@Reader@SerializableObject@v1_0@opentimelineio@@AEAA_NAEBV?$basic_string@DU?$char_traits@D@std@@V?$allocator@D@2@@std@@PEAVAnyVector@23@PEA_N@Z
	??$_fetch@VRationalTime@v1_0@opentime@@@Reader@SerializableObject@v1_0@opentimelineio@@AEAA_NAEBV?$basic_string@DU?$char_traits@D@std@@V?$allocator@D@2@@std@@PEAVRationalTime@2opentime@@PEA_N@Z
	??$_fetch@VTimeRange@v1_0@opentime@@@Reader@SerializableObject@v1_0@opentimelineio@@AEAA_NAEBV?$basic_string@DU?$char_traits@D@std@@V?$allocator@D@2@@std@@PEAVTimeRange@2opentime@@PEA_N@Z
	??$_fetch@VTimeTransform@v1_0@opentime@@@Reader@SerializableObject@v1_0@opentimelineio@@AEAA_NAEBV?$basic_string@DU?$char_traits@D@std@@V?$allocator@D@2@@std@@PEAVTimeTransform@2opentime@@PEA_N@Z
	??$_fetch@_N@Reader@SerializableObject@v1_0@opentimelineio@@AEAA_NAEBV?$basic_string@DU?$char_traits@D@std@@V?$allocator@D@2@@std@@PEA_N1@Z
	??$_from_any@U?$Retainer@VComposable@v1_0@opentimelineio@@@SerializableObject@v1_0@opentimelineio@@@Reader@SerializableObject@v1_0@opentimelineio@@AEAA_NAEBVany@linb@@PEAV?$vector@U?$Retainer@VComposable@v1_0@opentimelineio@@@SerializableObject@v1_0@opentimelineio@@V?$allocator@U?$Retainer@VComposable@v1_0@opentimelineio@@@SerializableObject@v1_0@opentimelineio@@@std@@@std@@@Z
	??$_from_any@U?$Retainer@VEffect@v1_0@opentimelineio@@@SerializableObject@v1_0@opentimelineio@@@Reader@SerializableObject@v1_0@opentimelineio@@AEAA_NAEBVany@linb@@PEAV?$vector@U?$Retainer@VEffect@v1_0@opentimelineio@@@SerializableObject@v1_0@opentimelineio@@V?$allocator@U?$Retainer@VEffect@v1_0@opentimelineio@@@SerializableObject@v1_0@opentimelineio@@@std@@@std@@@Z
	??$_from_any@U?$Retainer@VMarker@v1_0@opentimelineio@@@SerializableObject@v1_0@opentimelineio@@@Reader@SerializableObject@v1_0@opentimelineio@@AEAA_NAEBVany@linb@@PEAV?$vector@U?$Retainer@VMarker@v1_0@opentimelineio@@@SerializableObject@v1_0@opentimelineio@@V?$allocator@U?$Retainer@VMarker@v1_0@opentimelineio@@@SerializableObject@v1_0@opentimelineio@@@std@@@std@@@Z
	??$_from_any@U?$Retainer@VSerializableObject@v1_0@opentimelineio@@@SerializableObject@v1_0@opentimelineio@@@Reader@SerializableObject@v1_0@opentimelineio@@AEAA_NAEBVany@linb@@PEAV?$vector@U?$Retainer@VSerializableObject@v1_0@opentimelineio@@@SerializableObject@v1_0@opentimelineio@@V?$allocator@U?$Retainer@VSerializableObject@v1_0@opentimelineio@@@SerializableObject@v1_0@opentimelineio@@@std@@@std@@@Z
	??$_from_any@VComposable@v1_0@opentimelineio@@@Reader@SerializableObject@v1_0@opentimelineio@@AEAA_NAEBVany@linb@@PEAU?$Retainer@VComposable@v1_0@opentimelineio@@@123@@Z
	??$_from_any@VEffect@v1_0@opentimelineio@@@Reader@SerializableObject@v1_0@opentimelineio@@AEAA_NAEBVany@linb@@PEAU?$Retainer@VEffect@v1_0@opentimelineio@@@123@@Z
	??$_from_any@VMarker@v1_0@opentimelineio@@@Reader@SerializableObject@v1_0@opentimelineio@@AEAA_NAEBVany@linb@@PEAU?$Retainer@VMarker@v1_0@opentimelineio@@@123@@Z
	??$_from_any@VSerializableObject@v1_0@opentimelineio@@@Reader@SerializableObject@v1_0@opentimelineio@@AEAA_NAEBVany@linb@@PEAPEAV123@@Z
	??$_from_any@VSerializableObject@v1_0@opentimelineio@@@Reader@SerializableObject@v1_0@opentimelineio@@AEAA_NAEBVany@linb@@PEAU?$Retainer@VSerializableObject@v1_0@opentimelineio@@@123@@Z
	??$_read_optional@H@Reader@SerializableObject@v1_0@opentimelineio@@AEAA_NAEBV?$basic_string@DU?$char_traits@D@std@@V?$allocator@D@2@@std@@PEAV?$optional@H@optional_lite@nonstd@@@Z
	??$_read_optional@N@Reader@SerializableObject@v1_0@opentimelineio@@AEAA_NAEBV?$basic_string@DU?$char_traits@D@std@@V?$allocator@D@2@@std@@PEAV?$optional@N@optional_lite@nonstd@@@Z
	??$_read_optional@VRationalTime@v1_0@opentime@@@Reader@SerializableObject@v1_0@opentimelineio@@AEAA_NAEBV?$basic_string@DU?$char_traits@D@std@@V?$allocator@D@2@@std@@PEAV?$optional@VRationalTime@v1_0@opentime@@@optional_lite@nonstd@@@Z
	??$_read_optional@VTimeRange@v1_0@opentime@@@Reader@SerializableObject@v1_0@opentimelineio@@AEAA_NAEBV?$basic_string@DU?$char_traits@D@std@@V?$allocator@D@2@@std@@PEAV?$optional@VTimeRange@v1_0@opentime@@@optional_lite@nonstd@@@Z
	??$_read_optional@VTimeTransform@v1_0@opentime@@@Reader@SerializableObject@v1_0@opentimelineio@@AEAA_NAEBV?$basic_string@DU?$char_traits@D@std@@V?$allocator@D@2@@std@@PEAV?$optional@VTimeTransform@v1_0@opentime@@@optional_lite@nonstd@@@Z
	??$_read_optional@_N@Reader@SerializableObject@v1_0@opentimelineio@@AEAA_NAEBV?$basic_string@DU?$char_traits@D@std@@V?$allocator@D@2@@std@@PEAV?$optional@_N@optional_lite@nonstd@@@Z
	??$_simple_any_comparison@H@v1_0@opentimelineio@@YA_NAEBVany@linb@@0@Z
	??$_simple_any_comparison@N@v1_0@opentimelineio@@YA_NAEBVany@linb@@0@Z
	??$_simple_any_comparison@PEBD@v1_0@opentimelineio@@YA_NAEBVany@linb@@0@Z
	??$_simple_any_comparison@UReferenceId@SerializableObject@v1_0@opentimelineio@@@v1_0@opentimelineio@@YA_NAEBVany@linb@@0@Z
	??$_simple_any_comparison@V?$basic_string@DU?$char_traits@D@std@@V?$allocator@D@2@@std@@@v1_0@opentimelineio@@YA_NAEBVany@linb@@0@Z
	??$_simple_any_comparison@VRationalTime@v1_0@opentime@@@v1_0@opentimelineio@@YA_NAEBVany@linb@@0@Z
	??$_simple_any_comparison@VTimeRange@v1_0@opentime@@@v1_0@opentimelineio@@YA_NAEBVany@linb@@0@Z
	??$_simple_any_comparison@VTimeTransform@v1_0@opentime@@@v1_0@opentimelineio@@YA_NAEBVany@linb@@0@Z
	??$_simple_any_comparison@X@v1_0@opentimelineio@@YA_NAEBVany@linb@@0@Z
	??$_simple_any_comparison@_J@v1_0@opentimelineio@@YA_NAEBVany@linb@@0@Z
	??$_simple_any_comparison@_N@v1_0@opentimelineio@@YA_NAEBVany@linb@@0@Z
	??$_to_any@U?$Retainer@VComposable@v1_0@opentimelineio@@@SerializableObject@v1_0@opentimelineio@@@Writer@SerializableObject@v1_0@opentimelineio@@CA?AVany@linb@@AEBV?$vector@U?$Retainer@VComposable@v1_0@opentimelineio@@@SerializableObject@v1_0@opentimelineio@@V?$allocator@U?$Retainer@VComposable@v1_0@opentimelineio@@@SerializableObject@v1_0@opentimelineio@@@std@@@std@@@Z
	??$_to_any@U?$Retainer@VEffect@v1_0@opentimelineio@@@SerializableObject@v1_0@opentimelineio@@@Writer@SerializableObject@v1_0@opentimelineio@@CA?AVany@linb@@AEBV?$vector@U?$Retainer@VEffect@v1_0@opentimelineio@@@SerializableObject@v1_0@opentimelineio@@V?$allocator@U?$Retainer@VEffect@v1_0@opentimelineio@@@SerializableObject@v1_0@opentimelineio@@@std@@@std@@@Z
	??$_to_any@U?$Retainer@VMarker@v1_0@opentimelineio@@@SerializableObject@v1_0@opentimelineio@@@Writer@SerializableObject@v1_0@opentimelineio@@CA?AVany@linb@@AEBV?$vector@U?$Retainer@VMarker@v1_0@opentimelineio@@@SerializableObject@v1_0@opentimelineio@@V?$allocator@U?$Retainer@VMarker@v1_0@opentimelineio@@@SerializableObject@v1_0@opentimelineio@@@std@@@std@@@Z
	??$_to_any@U?$Retainer@VSerializableObject@v1_0@opentimelineio@@@SerializableObject@v1_0@opentimelineio@@@Writer@SerializableObject@v1_0@opentimelineio@@CA?AVany@linb@@AEBV?$vector@U?$Retainer@VSerializableObject@v1_0@opentimelineio@@@SerializableObject@v1_0@opentimelineio@@V?$allocator@U?$Retainer@VSerializableObject@v1_0@opentimelineio@@@SerializableObject@v1_0@opentimelineio@@@std@@@std@@@Z
	??$_to_any@VComposable@v1_0@opentimelineio@@@Writer@SerializableObject@v1_0@opentimelineio@@CA?AVany@linb@@AEBU?$Retainer@VComposable@v1_0@opentimelineio@@@123@@Z
	??$_to_any@VEffect@v1_0@opentimelineio@@@Writer@SerializableObject@v1_0@opentimelineio@@CA?AVany@linb@@AEBU?$Retainer@VEffect@v1_0@opentimelineio@@@123@@Z
	??$_to_any@VMarker@v1_0@opentimelineio@@@Writer@SerializableObject@v1_0@opentimelineio@@CA?AVany@linb@@AEBU?$Retainer@VMarker@v1_0@opentimelineio@@@123@@Z
	??$_to_any@VMediaReference@v1_0@opentimelineio@@@Writer@SerializableObject@v1_0@opentimelineio@@CA?AVany@linb@@PEAVMediaReference@23@@Z
	??$_to_any@VSerializableObject@v1_0@opentimelineio@@@Writer@SerializableObject@v1_0@opentimelineio@@CA?AVany@linb@@AEBU?$Retainer@VSerializableObject@v1_0@opentimelineio@@@123@@Z
	??$_to_any@VStack@v1_0@opentimelineio@@@Writer@SerializableObject@v1_0@opentimelineio@@CA?AVany@linb@@PEAVStack@23@@Z
	??$addressof@$$CBU?$pair@$$CBV?$basic_string@DU?$char_traits@D@std@@V?$allocator@D@2@@std@@Vany@linb@@@std@@@std@@YAPEBU?$pair@$$CBV?$basic_string@DU?$char_traits@D@std@@V?$allocator@D@2@@std@@Vany@linb@@@0@AEBU10@@Z
	??$addressof@$$CBV<lambda_0d80f6a868f8b36a1d5f68283412da7e>@@@std@@YAPEBV<lambda_0d80f6a868f8b36a1d5f68283412da7e>@@AEBV1@@Z
	??$addressof@$$CBV<lambda_27988cd41ae6a4288cc8caa9931f6267>@@@std@@YAPEBV<lambda_27988cd41ae6a4288cc8caa9931f6267>@@AEBV1@@Z
	??$addressof@$$CBV<lambda_3732206c6b8af39d0d8542d4c00085cb>@@@std@@YAPEBV<lambda_3732206c6b8af39d0d8542d4c00085cb>@@AEBV1@@Z
	??$addressof@$$CBV<lambda_3a755e0d8b19c3b265999c93c407e624>@@@std@@YAPEBV<lambda_3a755e0d8b19c3b265999c93c407e624>@@AEBV1@@Z
	??$addressof@$$CBV<lambda_5ddccacd3f77002255f4016c725c7a55>@@@std@@YAPEBV<lambda_5ddccacd3f77002255f4016c725c7a55>@@AEBV1@@Z
	??$addressof@$$CBV<lambda_651a8b2021ee43daced787a936a58fab>@@@std@@YAPEBV<lambda_651a8b2021ee43daced787a936a58fab>@@AEBV1@@Z
	??$addressof@$$CBV<lambda_69b8fad06dc2ded66a083d5ea69c9992>@@@std@@YAPEBV<lambda_69b8fad06dc2ded66a083d5ea69c9992>@@AEBV1@@Z
	??$addressof@$$CBV<lambda_6cb77d3f4339c3ac20acbae2e2a5ac3e>@@@std@@YAPEBV<lambda_6cb77d3f4339c3ac20acbae2e2a5ac3e>@@AEBV1@@Z
	??$addressof@$$CBV<lambda_6e89609f4599898de401668f9f0eac24>@@@std@@YAPEBV<lambda_6e89609f4599898de401668f9f0eac24>@@AEBV1@@Z
	??$addressof@$$CBV<lambda_75a2f7577643b9f1ad091410b79c5b2c>@@@std@@YAPEBV<lambda_75a2f7577643b9f1ad091410b79c5b2c>@@AEBV1@@Z
	??$addressof@$$CBV<lambda_76eca87a02e8a96c82650c9895946a93>@@@std@@YAPEBV<lambda_76eca87a02e8a96c82650c9895946a93>@@AEBV1@@Z
	??$addressof@$$CBV<lambda_7a39e7abaca8030fbed7b6163cf2ac7e>@@@std@@YAPEBV<lambda_7a39e7abaca8030fbed7b6163cf2ac7e>@@AEBV1@@Z
	??$addressof@$$CBV<lambda_7ad123fd80a0e795f627b98885f054a9>@@@std@@YAPEBV<lambda_7ad123fd80a0e795f627b98885f054a9>@@AEBV1@@Z
	??$addressof@$$CBV<lambda_9443c01dc1ed3db71386b1d5715e24ee>@@@std@@YAPEBV<lambda_9443c01dc1ed3db71386b1d5715e24ee>@@AEBV1@@Z
	??$addressof@$$CBV<lambda_c6547d0cfce5b73f7e2493d990f979cb>@@@std@@YAPEBV<lambda_c6547d0cfce5b73f7e2493d990f979cb>@@AEBV1@@Z
	??$addressof@$$CBV<lambda_c98e3b18bd6b6fb88298302e9b12aff7>@@@std@@YAPEBV<lambda_c98e3b18bd6b6fb88298302e9b12aff7>@@AEBV1@@Z
	??$addressof@$$CBV<lambda_cba0749f46c119f7b63682ec6ce1bdaa>@@@std@@YAPEBV<lambda_cba0749f46c119f7b63682ec6ce1bdaa>@@AEBV1@@Z
	??$addressof@$$CBV<lambda_d2673311fb86753a5af4fed0b679e1fc>@@@std@@YAPEBV<lambda_d2673311fb86753a5af4fed0b679e1fc>@@AEBV1@@Z
	??$addressof@$$CBV<lambda_d6bc8737d8bc7e3959c59b9691239ab6>@@@std@@YAPEBV<lambda_d6bc8737d8bc7e3959c59b9691239ab6>@@AEBV1@@Z
	??$addressof@$$CBV<lambda_e777b282161b9f497bc9ea4bd7150aef>@@@std@@YAPEBV<lambda_e777b282161b9f497bc9ea4bd7150aef>@@AEBV1@@Z
	??$addressof@$$CBV<lambda_ee5fcd274901b255b1db6ecbe82f8ba7>@@@std@@YAPEBV<lambda_ee5fcd274901b255b1db6ecbe82f8ba7>@@AEBV1@@Z
	??$addressof@$$CBV<lambda_fd597aa0b1bb92b7cb8cbd2b41c97086>@@@std@@YAPEBV<lambda_fd597aa0b1bb92b7cb8cbd2b41c97086>@@AEBV1@@Z
	??$addressof@$$CBV?$_Binder@U_Unforced@std@@P8?$CursorStreamWrapper@U?$GenericStringStream@U?$UTF8@D@OTIO_rapidjson@@@OTIO_rapidjson@@U?$UTF8@D@2@@OTIO_rapidjson@@EBA_KXZPEAV34@@std@@@std@@YAPEBV?$_Binder@U_Unforced@std@@P8?$CursorStreamWrapper@U?$GenericStringStream@U?$UTF8@D@OTIO_rapidjson@@@OTIO_rapidjson@@U?$UTF8@D@2@@OTIO_rapidjson@@EBA_KXZPEAV34@@0@AEBV10@@Z
	??$addressof@$$CBV?$_Binder@U_Unforced@std@@P8?$CursorStreamWrapper@VFileReadStream@OTIO_rapidjson@@U?$UTF8@D@2@@OTIO_rapidjson@@EBA_KXZPEAV34@@std@@@std@@YAPEBV?$_Binder@U_Unforced@std@@P8?$CursorStreamWrapper@VFileReadStream@OTIO_rapidjson@@U?$UTF8@D@2@@OTIO_rapidjson@@EBA_KXZPEAV34@@0@AEBV10@@Z
	??$addressof@$$CBV?$_Binder@U_Unforced@std@@P8Encoder@v1_0@opentimelineio@@EAAXAEBUErrorStatus@45@@ZPEAVCloningEncoder@45@AEBU?$_Ph@$00@2@@std@@@std@@YAPEBV?$_Binder@U_Unforced@std@@P8Encoder@v1_0@opentimelineio@@EAAXAEBUErrorStatus@45@@ZPEAVCloningEncoder@45@AEBU?$_Ph@$00@2@@0@AEBV10@@Z
	??$addressof@$$CBV?$_Binder@U_Unforced@std@@P8JSONDecoder@v1_0@opentimelineio@@EAAXAEBUErrorStatus@45@@ZPEAV345@AEBU?$_Ph@$00@2@@std@@@std@@YAPEBV?$_Binder@U_Unforced@std@@P8JSONDecoder@v1_0@opentimelineio@@EAAXAEBUErrorStatus@45@@ZPEAV345@AEBU?$_Ph@$00@2@@0@AEBV10@@Z
	??$addressof@$$CBV?$_Tree@V?$_Tmap_traits@V?$basic_string@DU?$char_traits@D@std@@V?$allocator@D@2@@std@@Vany@linb@@U?$less@V?$basic_string@DU?$char_traits@D@std@@V?$allocator@D@2@@std@@@2@V?$allocator@U?$pair@$$CBV?$basic_string@DU?$char_traits@D@std@@V?$allocator@D@2@@std@@Vany@linb@@@std@@@2@$0A@@std@@@std@@@std@@YAPEBV?$_Tree@V?$_Tmap_traits@V?$basic_string@DU?$char_traits@D@std@@V?$allocator@D@2@@std@@Vany@linb@@U?$less@V?$basic_string@DU?$char_traits@D@std@@V?$allocator@D@2@@std@@@2@V?$allocator@U?$pair@$$CBV?$basic_string@DU?$char_traits@D@std@@V?$allocator@D@2@@std@@Vany@linb@@@std@@@2@$0A@@std@@@0@AEBV10@@Z
	??$addressof@$$CBV?$_Tree_val@U?$_Tree_simple_types@PEAVComposable@v1_0@opentimelineio@@@std@@@std@@@std@@YAPEBV?$_Tree_val@U?$_Tree_simple_types@PEAVComposable@v1_0@opentimelineio@@@std@@@0@AEBV10@@Z
	??$addressof@$$CBV?$_Tree_val@U?$_Tree_simple_types@PEBVComposition@v1_0@opentimelineio@@@std@@@std@@@std@@YAPEBV?$_Tree_val@U?$_Tree_simple_types@PEBVComposition@v1_0@opentimelineio@@@std@@@0@AEBV10@@Z
	??$addressof@$$CBV?$_Tree_val@U?$_Tree_simple_types@U?$pair@$$CBV?$basic_string@DU?$char_traits@D@std@@V?$allocator@D@2@@std@@Vany@linb@@@std@@@std@@@std@@@std@@YAPEBV?$_Tree_val@U?$_Tree_simple_types@U?$pair@$$CBV?$basic_string@DU?$char_traits@D@std@@V?$allocator@D@2@@std@@Vany@linb@@@std@@@std@@@0@AEBV10@@Z
	??$addressof@$$CBV?$_Tree_val@U?$_Tree_simple_types@U?$pair@QEAVTrack@v1_0@opentimelineio@@V?$map@PEAVComposable@v1_0@opentimelineio@@VTimeRange@2opentime@@U?$less@PEAVComposable@v1_0@opentimelineio@@@std@@V?$allocator@U?$pair@QEAVComposable@v1_0@opentimelineio@@VTimeRange@2opentime@@@std@@@7@@std@@@std@@@std@@@std@@@std@@YAPEBV?$_Tree_val@U?$_Tree_simple_types@U?$pair@QEAVTrack@v1_0@opentimelineio@@V?$map@PEAVComposable@v1_0@opentimelineio@@VTimeRange@2opentime@@U?$less@PEAVComposable@v1_0@opentimelineio@@@std@@V?$allocator@U?$pair@QEAVComposable@v1_0@opentimelineio@@VTimeRange@2opentime@@@std@@@7@@std@@@std@@@std@@@0@AEBV10@@Z
	??$addressof@$$CBV?$_Vector_val@U?$_Simple_types@PEAVComposable@v1_0@opentimelineio@@@std@@@std@@@std@@YAPEBV?$_Vector_val@U?$_Simple_types@PEAVComposable@v1_0@opentimelineio@@@std@@@0@AEBV10@@Z
	??$addressof@$$CBV?$_Vector_val@U?$_Simple_types@PEAVEffect@v1_0@opentimelineio@@@std@@@std@@@std@@YAPEBV?$_Vector_val@U?$_Simple_types@PEAVEffect@v1_0@opentimelineio@@@std@@@0@AEBV10@@Z
	??$addressof@$$CBV?$_Vector_val@U?$_Simple_types@PEAVMarker@v1_0@opentimelineio@@@std@@@std@@@std@@YAPEBV?$_Vector_val@U?$_Simple_types@PEAVMarker@v1_0@opentimelineio@@@std@@@0@AEBV10@@Z
	??$addressof@$$CBV?$_Vector_val@U?$_Simple_types@PEAVSerializableObject@v1_0@opentimelineio@@@std@@@std@@@std@@YAPEBV?$_Vector_val@U?$_Simple_types@PEAVSerializableObject@v1_0@opentimelineio@@@std@@@0@AEBV10@@Z
	??$addressof@$$CBV?$_Vector_val@U?$_Simple_types@U?$Retainer@VComposable@v1_0@opentimelineio@@@SerializableObject@v1_0@opentimelineio@@@std@@@std@@@std@@YAPEBV?$_Vector_val@U?$_Simple_types@U?$Retainer@VComposable@v1_0@opentimelineio@@@SerializableObject@v1_0@opentimelineio@@@std@@@0@AEBV10@@Z
	??$addressof@$$CBV?$_Vector_val@U?$_Simple_types@Vany@linb@@@std@@@std@@@std@@YAPEBV?$_Vector_val@U?$_Simple_types@Vany@linb@@@std@@@0@AEBV10@@Z
	??$addressof@$$CBV?$basic_string@DU?$char_traits@D@std@@V?$allocator@D@2@@std@@@std@@YAPEBV?$basic_string@DU?$char_traits@D@std@@V?$allocator@D@2@@0@AEBV10@@Z
	??$addressof@$$CBV?$codecvt@DDU_Mbstatet@@@std@@@std@@YAPEBV?$codecvt@DDU_Mbstatet@@@0@AEBV10@@Z
	??$addressof@$$CBV?$vector@Vany@linb@@V?$allocator@Vany@linb@@@std@@@std@@@std@@YAPEBV?$vector@Vany@linb@@V?$allocator@Vany@linb@@@std@@@0@AEBV10@@Z
	??$addressof@PEAD@std@@YAPEAPEADAEAPEAD@Z
	??$addressof@PEAU?$_Tree_node@PEAVComposable@v1_0@opentimelineio@@PEAX@std@@@std@@YAPEAPEAU?$_Tree_node@PEAVComposable@v1_0@opentimelineio@@PEAX@0@AEAPEAU10@@Z
	??$addressof@PEAU?$_Tree_node@PEBVComposition@v1_0@opentimelineio@@PEAX@std@@@std@@YAPEAPEAU?$_Tree_node@PEBVComposition@v1_0@opentimelineio@@PEAX@0@AEAPEAU10@@Z
	??$addressof@PEAU?$_Tree_node@U?$pair@$$CBHV?$function@$$A6AXPEAVAnyDictionary@v1_0@opentimelineio@@@Z@std@@@std@@PEAX@std@@@std@@YAPEAPEAU?$_Tree_node@U?$pair@$$CBHV?$function@$$A6AXPEAVAnyDictionary@v1_0@opentimelineio@@@Z@std@@@std@@PEAX@0@AEAPEAU10@@Z
	??$addressof@PEAU?$_Tree_node@U?$pair@$$CBV?$basic_string@DU?$char_traits@D@std@@V?$allocator@D@2@@std@@H@std@@PEAX@std@@@std@@YAPEAPEAU?$_Tree_node@U?$pair@$$CBV?$basic_string@DU?$char_traits@D@std@@V?$allocator@D@2@@std@@H@std@@PEAX@0@AEAPEAU10@@Z
	??$addressof@PEAU?$_Tree_node@U?$pair@$$CBV?$basic_string@DU?$char_traits@D@std@@V?$allocator@D@2@@std@@PEAVSerializableObject@v1_0@opentimelineio@@@std@@PEAX@std@@@std@@YAPEAPEAU?$_Tree_node@U?$pair@$$CBV?$basic_string@DU?$char_traits@D@std@@V?$allocator@D@2@@std@@PEAVSerializableObject@v1_0@opentimelineio@@@std@@PEAX@0@AEAPEAU10@@Z
	??$addressof@PEAU?$_Tree_node@U?$pair@$$CBV?$basic_string@DU?$char_traits@D@std@@V?$allocator@D@2@@std@@PEAV_TypeRecord@TypeRegistry@v1_0@opentimelineio@@@std@@PEAX@std@@@std@@YAPEAPEAU?$_Tree_node@U?$pair@$$CBV?$basic_string@DU?$char_traits@D@std@@V?$allocator@D@2@@std@@PEAV_TypeRecord@TypeRegistry@v1_0@opentimelineio@@@std@@PEAX@0@AEAPEAU10@@Z
	??$addressof@PEAU?$_Tree_node@U?$pair@$$CBV?$basic_string@DU?$char_traits@D@std@@V?$allocator@D@2@@std@@V?$function@$$A6AXAEBVany@linb@@@Z@2@@std@@PEAX@std@@@std@@YAPEAPEAU?$_Tree_node@U?$pair@$$CBV?$basic_string@DU?$char_traits@D@std@@V?$allocator@D@2@@std@@V?$function@$$A6AXAEBVany@linb@@@Z@2@@std@@PEAX@0@AEAPEAU10@@Z
	??$addressof@PEAU?$_Tree_node@U?$pair@$$CBV?$basic_string@DU?$char_traits@D@std@@V?$allocator@D@2@@std@@Vany@linb@@@std@@PEAX@std@@@std@@YAPEAPEAU?$_Tree_node@U?$pair@$$CBV?$basic_string@DU?$char_traits@D@std@@V?$allocator@D@2@@std@@Vany@linb@@@std@@PEAX@0@AEAPEAU10@@Z
	??$addressof@PEAU?$_Tree_node@U?$pair@QEAVComposable@v1_0@opentimelineio@@VTimeRange@2opentime@@@std@@PEAX@std@@@std@@YAPEAPEAU?$_Tree_node@U?$pair@QEAVComposable@v1_0@opentimelineio@@VTimeRange@2opentime@@@std@@PEAX@0@AEAPEAU10@@Z
	??$addressof@PEAU?$_Tree_node@U?$pair@QEAVSerializableObject@v1_0@opentimelineio@@H@std@@PEAX@std@@@std@@YAPEAPEAU?$_Tree_node@U?$pair@QEAVSerializableObject@v1_0@opentimelineio@@H@std@@PEAX@0@AEAPEAU10@@Z
	??$addressof@PEAU?$_Tree_node@U?$pair@QEAVSerializableObject@v1_0@opentimelineio@@VAnyDictionary@23@@std@@PEAX@std@@@std@@YAPEAPEAU?$_Tree_node@U?$pair@QEAVSerializableObject@v1_0@opentimelineio@@VAnyDictionary@23@@std@@PEAX@0@AEAPEAU10@@Z
	??$addressof@PEAU?$_Tree_node@U?$pair@QEAVTrack@v1_0@opentimelineio@@V?$map@PEAVComposable@v1_0@opentimelineio@@VTimeRange@2opentime@@U?$less@PEAVComposable@v1_0@opentimelineio@@@std@@V?$allocator@U?$pair@QEAVComposable@v1_0@opentimelineio@@VTimeRange@2opentime@@@std@@@7@@std@@@std@@PEAX@std@@@std@@YAPEAPEAU?$_Tree_node@U?$pair@QEAVTrack@v1_0@opentimelineio@@V?$map@PEAVComposable@v1_0@opentimelineio@@VTimeRange@2opentime@@U?$less@PEAVComposable@v1_0@opentimelineio@@@std@@V?$allocator@U?$pair@QEAVComposable@v1_0@opentimelineio@@VTimeRange@2opentime@@@std@@@7@@std@@@std@@PEAX@0@AEAPEAU10@@Z
	??$addressof@PEAU?$_Tree_node@U?$pair@QEBVSerializableObject@v1_0@opentimelineio@@V?$basic_string@DU?$char_traits@D@std@@V?$allocator@D@2@@std@@@std@@PEAX@std@@@std@@YAPEAPEAU?$_Tree_node@U?$pair@QEBVSerializableObject@v1_0@opentimelineio@@V?$basic_string@DU?$char_traits@D@std@@V?$allocator@D@2@@std@@@std@@PEAX@0@AEAPEAU10@@Z
	??$addressof@PEAU?$_Tree_node@U?$pair@QEBVtype_info@@V?$function@$$A6AXAEBVany@linb@@@Z@std@@@std@@PEAX@std@@@std@@YAPEAPEAU?$_Tree_node@U?$pair@QEBVtype_info@@V?$function@$$A6AXAEBVany@linb@@@Z@std@@@std@@PEAX@0@AEAPEAU10@@Z
	??$addressof@PEAU?$_Tree_node@U?$pair@QEBVtype_info@@V?$function@$$A6A_NAEBVany@linb@@0@Z@std@@@std@@PEAX@std@@@std@@YAPEAPEAU?$_Tree_node@U?$pair@QEBVtype_info@@V?$function@$$A6A_NAEBVany@linb@@0@Z@std@@@std@@PEAX@0@AEAPEAU10@@Z
	??$addressof@PEAVComposable@v1_0@opentimelineio@@@std@@YAPEAPEAVComposable@v1_0@opentimelineio@@AEAPEAV123@@Z
	??$addressof@PEBVComposition@v1_0@opentimelineio@@@std@@YAPEAPEBVComposition@v1_0@opentimelineio@@AEAPEBV123@@Z
	??$addressof@Q6A_NAEBVany@linb@@0@Z@std@@YAPEBQ6A_NAEBVany@linb@@0@ZAEBQ6A_N00@Z@Z
	??$addressof@U?$pair@$$CBHV?$function@$$A6AXPEAVAnyDictionary@v1_0@opentimelineio@@@Z@std@@@std@@@std@@YAPEAU?$pair@$$CBHV?$function@$$A6AXPEAVAnyDictionary@v1_0@opentimelineio@@@Z@std@@@0@AEAU10@@Z
	??$addressof@U?$pair@$$CBV?$basic_string@DU?$char_traits@D@std@@V?$allocator@D@2@@std@@H@std@@@std@@YAPEAU?$pair@$$CBV?$basic_string@DU?$char_traits@D@std@@V?$allocator@D@2@@std@@H@0@AEAU10@@Z
	??$addressof@U?$pair@$$CBV?$basic_string@DU?$char_traits@D@std@@V?$allocator@D@2@@std@@PEAVSerializableObject@v1_0@opentimelineio@@@std@@@std@@YAPEAU?$pair@$$CBV?$basic_string@DU?$char_traits@D@std@@V?$allocator@D@2@@std@@PEAVSerializableObject@v1_0@opentimelineio@@@0@AEAU10@@Z
	??$addressof@U?$pair@$$CBV?$basic_string@DU?$char_traits@D@std@@V?$allocator@D@2@@std@@PEAV_TypeRecord@TypeRegistry@v1_0@opentimelineio@@@std@@@std@@YAPEAU?$pair@$$CBV?$basic_string@DU?$char_traits@D@std@@V?$allocator@D@2@@std@@PEAV_TypeRecord@TypeRegistry@v1_0@opentimelineio@@@0@AEAU10@@Z
	??$addressof@U?$pair@$$CBV?$basic_string@DU?$char_traits@D@std@@V?$allocator@D@2@@std@@V?$function@$$A6AXAEBVany@linb@@@Z@2@@std@@@std@@YAPEAU?$pair@$$CBV?$basic_string@DU?$char_traits@D@std@@V?$allocator@D@2@@std@@V?$function@$$A6AXAEBVany@linb@@@Z@2@@0@AEAU10@@Z
	??$addressof@U?$pair@$$CBV?$basic_string@DU?$char_traits@D@std@@V?$allocator@D@2@@std@@Vany@linb@@@std@@@std@@YAPEAU?$pair@$$CBV?$basic_string@DU?$char_traits@D@std@@V?$allocator@D@2@@std@@Vany@linb@@@0@AEAU10@@Z
	??$addressof@U?$pair@QEAVComposable@v1_0@opentimelineio@@VTimeRange@2opentime@@@std@@@std@@YAPEAU?$pair@QEAVComposable@v1_0@opentimelineio@@VTimeRange@2opentime@@@0@AEAU10@@Z
	??$addressof@U?$pair@QEAVSerializableObject@v1_0@opentimelineio@@H@std@@@std@@YAPEAU?$pair@QEAVSerializableObject@v1_0@opentimelineio@@H@0@AEAU10@@Z
	??$addressof@U?$pair@QEAVSerializableObject@v1_0@opentimelineio@@VAnyDictionary@23@@std@@@std@@YAPEAU?$pair@QEAVSerializableObject@v1_0@opentimelineio@@VAnyDictionary@23@@0@AEAU10@@Z
	??$addressof@U?$pair@QEAVTrack@v1_0@opentimelineio@@V?$map@PEAVComposable@v1_0@opentimelineio@@VTimeRange@2opentime@@U?$less@PEAVComposable@v1_0@opentimelineio@@@std@@V?$allocator@U?$pair@QEAVComposable@v1_0@opentimelineio@@VTimeRange@2opentime@@@std@@@7@@std@@@std@@@std@@YAPEAU?$pair@QEAVTrack@v1_0@opentimelineio@@V?$map@PEAVComposable@v1_0@opentimelineio@@VTimeRange@2opentime@@U?$less@PEAVComposable@v1_0@opentimelineio@@@std@@V?$allocator@U?$pair@QEAVComposable@v1_0@opentimelineio@@VTimeRange@2opentime@@@std@@@7@@std@@@0@AEAU10@@Z
	??$addressof@U?$pair@QEBVSerializableObject@v1_0@opentimelineio@@V?$basic_string@DU?$char_traits@D@std@@V?$allocator@D@2@@std@@@std@@@std@@YAPEAU?$pair@QEBVSerializableObject@v1_0@opentimelineio@@V?$basic_string@DU?$char_traits@D@std@@V?$allocator@D@2@@std@@@0@AEAU10@@Z
	??$addressof@U?$pair@QEBVtype_info@@V?$function@$$A6AXAEBVany@linb@@@Z@std@@@std@@@std@@YAPEAU?$pair@QEBVtype_info@@V?$function@$$A6AXAEBVany@linb@@@Z@std@@@0@AEAU10@@Z
	??$addressof@U?$pair@QEBVtype_info@@V?$function@$$A6A_NAEBVany@linb@@0@Z@std@@@std@@@std@@YAPEAU?$pair@QEBVtype_info@@V?$function@$$A6A_NAEBVany@linb@@0@Z@std@@@0@AEAU10@@Z
	??$addressof@V?$_String_val@U?$_Simple_types@D@std@@@std@@@std@@YAPEAV?$_String_val@U?$_Simple_types@D@std@@@0@AEAV10@@Z
	??$addressof@V?$_Tree@V?$_Tmap_traits@V?$basic_string@DU?$char_traits@D@std@@V?$allocator@D@2@@std@@Vany@linb@@U?$less@V?$basic_string@DU?$char_traits@D@std@@V?$allocator@D@2@@std@@@2@V?$allocator@U?$pair@$$CBV?$basic_string@DU?$char_traits@D@std@@V?$allocator@D@2@@std@@Vany@linb@@@std@@@2@$0A@@std@@@std@@@std@@YAPEAV?$_Tree@V?$_Tmap_traits@V?$basic_string@DU?$char_traits@D@std@@V?$allocator@D@2@@std@@Vany@linb@@U?$less@V?$basic_string@DU?$char_traits@D@std@@V?$allocator@D@2@@std@@@2@V?$allocator@U?$pair@$$CBV?$basic_string@DU?$char_traits@D@std@@V?$allocator@D@2@@std@@Vany@linb@@@std@@@2@$0A@@std@@@0@AEAV10@@Z
	??$addressof@V?$_Tree@V?$_Tset_traits@PEAVComposable@v1_0@opentimelineio@@U?$less@PEAVComposable@v1_0@opentimelineio@@@std@@V?$allocator@PEAVComposable@v1_0@opentimelineio@@@5@$0A@@std@@@std@@@std@@YAPEAV?$_Tree@V?$_Tset_traits@PEAVComposable@v1_0@opentimelineio@@U?$less@PEAVComposable@v1_0@opentimelineio@@@std@@V?$allocator@PEAVComposable@v1_0@opentimelineio@@@5@$0A@@std@@@0@AEAV10@@Z
	??$addressof@V?$_Tree_val@U?$_Tree_simple_types@PEAVComposable@v1_0@opentimelineio@@@std@@@std@@@std@@YAPEAV?$_Tree_val@U?$_Tree_simple_types@PEAVComposable@v1_0@opentimelineio@@@std@@@0@AEAV10@@Z
	??$addressof@V?$_Tree_val@U?$_Tree_simple_types@PEBVComposition@v1_0@opentimelineio@@@std@@@std@@@std@@YAPEAV?$_Tree_val@U?$_Tree_simple_types@PEBVComposition@v1_0@opentimelineio@@@std@@@0@AEAV10@@Z
	??$addressof@V?$_Tree_val@U?$_Tree_simple_types@U?$pair@$$CBHV?$function@$$A6AXPEAVAnyDictionary@v1_0@opentimelineio@@@Z@std@@@std@@@std@@@std@@@std@@YAPEAV?$_Tree_val@U?$_Tree_simple_types@U?$pair@$$CBHV?$function@$$A6AXPEAVAnyDictionary@v1_0@opentimelineio@@@Z@std@@@std@@@std@@@0@AEAV10@@Z
	??$addressof@V?$_Tree_val@U?$_Tree_simple_types@U?$pair@$$CBV?$basic_string@DU?$char_traits@D@std@@V?$allocator@D@2@@std@@H@std@@@std@@@std@@@std@@YAPEAV?$_Tree_val@U?$_Tree_simple_types@U?$pair@$$CBV?$basic_string@DU?$char_traits@D@std@@V?$allocator@D@2@@std@@H@std@@@std@@@0@AEAV10@@Z
	??$addressof@V?$_Tree_val@U?$_Tree_simple_types@U?$pair@$$CBV?$basic_string@DU?$char_traits@D@std@@V?$allocator@D@2@@std@@PEAVSerializableObject@v1_0@opentimelineio@@@std@@@std@@@std@@@std@@YAPEAV?$_Tree_val@U?$_Tree_simple_types@U?$pair@$$CBV?$basic_string@DU?$char_traits@D@std@@V?$allocator@D@2@@std@@PEAVSerializableObject@v1_0@opentimelineio@@@std@@@std@@@0@AEAV10@@Z
	??$addressof@V?$_Tree_val@U?$_Tree_simple_types@U?$pair@$$CBV?$basic_string@DU?$char_traits@D@std@@V?$allocator@D@2@@std@@PEAV_TypeRecord@TypeRegistry@v1_0@opentimelineio@@@std@@@std@@@std@@@std@@YAPEAV?$_Tree_val@U?$_Tree_simple_types@U?$pair@$$CBV?$basic_string@DU?$char_traits@D@std@@V?$allocator@D@2@@std@@PEAV_TypeRecord@TypeRegistry@v1_0@opentimelineio@@@std@@@std@@@0@AEAV10@@Z
	??$addressof@V?$_Tree_val@U?$_Tree_simple_types@U?$pair@$$CBV?$basic_string@DU?$char_traits@D@std@@V?$allocator@D@2@@std@@V?$function@$$A6AXAEBVany@linb@@@Z@2@@std@@@std@@@std@@@std@@YAPEAV?$_Tree_val@U?$_Tree_simple_types@U?$pair@$$CBV?$basic_string@DU?$char_traits@D@std@@V?$allocator@D@2@@std@@V?$function@$$A6AXAEBVany@linb@@@Z@2@@std@@@std@@@0@AEAV10@@Z
	??$addressof@V?$_Tree_val@U?$_Tree_simple_types@U?$pair@$$CBV?$basic_string@DU?$char_traits@D@std@@V?$allocator@D@2@@std@@Vany@linb@@@std@@@std@@@std@@@std@@YAPEAV?$_Tree_val@U?$_Tree_simple_types@U?$pair@$$CBV?$basic_string@DU?$char_traits@D@std@@V?$allocator@D@2@@std@@Vany@linb@@@std@@@std@@@0@AEAV10@@Z
	??$addressof@V?$_Tree_val@U?$_Tree_simple_types@U?$pair@QEAVComposable@v1_0@opentimelineio@@VTimeRange@2opentime@@@std@@@std@@@std@@@std@@YAPEAV?$_Tree_val@U?$_Tree_simple_types@U?$pair@QEAVComposable@v1_0@opentimelineio@@VTimeRange@2opentime@@@std@@@std@@@0@AEAV10@@Z
	??$addressof@V?$_Tree_val@U?$_Tree_simple_types@U?$pair@QEAVSerializableObject@v1_0@opentimelineio@@H@std@@@std@@@std@@@std@@YAPEAV?$_Tree_val@U?$_Tree_simple_types@U?$pair@QEAVSerializableObject@v1_0@opentimelineio@@H@std@@@std@@@0@AEAV10@@Z
	??$addressof@V?$_Tree_val@U?$_Tree_simple_types@U?$pair@QEAVSerializableObject@v1_0@opentimelineio@@VAnyDictionary@23@@std@@@std@@@std@@@std@@YAPEAV?$_Tree_val@U?$_Tree_simple_types@U?$pair@QEAVSerializableObject@v1_0@opentimelineio@@VAnyDictionary@23@@std@@@std@@@0@AEAV10@@Z
	??$addressof@V?$_Tree_val@U?$_Tree_simple_types@U?$pair@QEAVTrack@v1_0@opentimelineio@@V?$map@PEAVComposable@v1_0@opentimelineio@@VTimeRange@2opentime@@U?$less@PEAVComposable@v1_0@opentimelineio@@@std@@V?$allocator@U?$pair@QEAVComposable@v1_0@opentimelineio@@VTimeRange@2opentime@@@std@@@7@@std@@@std@@@std@@@std@@@std@@YAPEAV?$_Tree_val@U?$_Tree_simple_types@U?$pair@QEAVTrack@v1_0@opentimelineio@@V?$map@PEAVComposable@v1_0@opentimelineio@@VTimeRange@2opentime@@U?$less@PEAVComposable@v1_0@opentimelineio@@@std@@V?$allocator@U?$pair@QEAVComposable@v1_0@opentimelineio@@VTimeRange@2opentime@@@std@@@7@@std@@@std@@@std@@@0@AEAV10@@Z
	??$addressof@V?$_Tree_val@U?$_Tree_simple_types@U?$pair@QEBVSerializableObject@v1_0@opentimelineio@@V?$basic_string@DU?$char_traits@D@std@@V?$allocator@D@2@@std@@@std@@@std@@@std@@@std@@YAPEAV?$_Tree_val@U?$_Tree_simple_types@U?$pair@QEBVSerializableObject@v1_0@opentimelineio@@V?$basic_string@DU?$char_traits@D@std@@V?$allocator@D@2@@std@@@std@@@std@@@0@AEAV10@@Z
	??$addressof@V?$_Tree_val@U?$_Tree_simple_types@U?$pair@QEBVtype_info@@V?$function@$$A6AXAEBVany@linb@@@Z@std@@@std@@@std@@@std@@@std@@YAPEAV?$_Tree_val@U?$_Tree_simple_types@U?$pair@QEBVtype_info@@V?$function@$$A6AXAEBVany@linb@@@Z@std@@@std@@@std@@@0@AEAV10@@Z
	??$addressof@V?$_Tree_val@U?$_Tree_simple_types@U?$pair@QEBVtype_info@@V?$function@$$A6A_NAEBVany@linb@@0@Z@std@@@std@@@std@@@std@@@std@@YAPEAV?$_Tree_val@U?$_Tree_simple_types@U?$pair@QEBVtype_info@@V?$function@$$A6A_NAEBVany@linb@@0@Z@std@@@std@@@std@@@0@AEAV10@@Z
	??$addressof@V?$_Vector_val@U?$_Simple_types@PEAVSerializableObject@v1_0@opentimelineio@@@std@@@std@@@std@@YAPEAV?$_Vector_val@U?$_Simple_types@PEAVSerializableObject@v1_0@opentimelineio@@@std@@@0@AEAV10@@Z
	??$addressof@V?$_Vector_val@U?$_Simple_types@U?$Retainer@VComposable@v1_0@opentimelineio@@@SerializableObject@v1_0@opentimelineio@@@std@@@std@@@std@@YAPEAV?$_Vector_val@U?$_Simple_types@U?$Retainer@VComposable@v1_0@opentimelineio@@@SerializableObject@v1_0@opentimelineio@@@std@@@0@AEAV10@@Z
	??$addressof@V?$_Vector_val@U?$_Simple_types@U?$Retainer@VSerializableObject@v1_0@opentimelineio@@@SerializableObject@v1_0@opentimelineio@@@std@@@std@@@std@@YAPEAV?$_Vector_val@U?$_Simple_types@U?$Retainer@VSerializableObject@v1_0@opentimelineio@@@SerializableObject@v1_0@opentimelineio@@@std@@@0@AEAV10@@Z
	??$addressof@V?$basic_string@DU?$char_traits@D@std@@V?$allocator@D@2@@std@@@std@@YAPEAV?$basic_string@DU?$char_traits@D@std@@V?$allocator@D@2@@0@AEAV10@@Z
	??$addressof@V?$vector@U?$Retainer@VComposable@v1_0@opentimelineio@@@SerializableObject@v1_0@opentimelineio@@V?$allocator@U?$Retainer@VComposable@v1_0@opentimelineio@@@SerializableObject@v1_0@opentimelineio@@@std@@@std@@@std@@YAPEAV?$vector@U?$Retainer@VComposable@v1_0@opentimelineio@@@SerializableObject@v1_0@opentimelineio@@V?$allocator@U?$Retainer@VComposable@v1_0@opentimelineio@@@SerializableObject@v1_0@opentimelineio@@@std@@@0@AEAV10@@Z
	??$addressof@V?$vector@U?$Retainer@VEffect@v1_0@opentimelineio@@@SerializableObject@v1_0@opentimelineio@@V?$allocator@U?$Retainer@VEffect@v1_0@opentimelineio@@@SerializableObject@v1_0@opentimelineio@@@std@@@std@@@std@@YAPEAV?$vector@U?$Retainer@VEffect@v1_0@opentimelineio@@@SerializableObject@v1_0@opentimelineio@@V?$allocator@U?$Retainer@VEffect@v1_0@opentimelineio@@@SerializableObject@v1_0@opentimelineio@@@std@@@0@AEAV10@@Z
	??$addressof@V?$vector@U?$Retainer@VMarker@v1_0@opentimelineio@@@SerializableObject@v1_0@opentimelineio@@V?$allocator@U?$Retainer@VMarker@v1_0@opentimelineio@@@SerializableObject@v1_0@opentimelineio@@@std@@@std@@@std@@YAPEAV?$vector@U?$Retainer@VMarker@v1_0@opentimelineio@@@SerializableObject@v1_0@opentimelineio@@V?$allocator@U?$Retainer@VMarker@v1_0@opentimelineio@@@SerializableObject@v1_0@opentimelineio@@@std@@@0@AEAV10@@Z
	??$addressof@V?$vector@U?$Retainer@VSerializableObject@v1_0@opentimelineio@@@SerializableObject@v1_0@opentimelineio@@V?$allocator@U?$Retainer@VSerializableObject@v1_0@opentimelineio@@@SerializableObject@v1_0@opentimelineio@@@std@@@std@@@std@@YAPEAV?$vector@U?$Retainer@VSerializableObject@v1_0@opentimelineio@@@SerializableObject@v1_0@opentimelineio@@V?$allocator@U?$Retainer@VSerializableObject@v1_0@opentimelineio@@@SerializableObject@v1_0@opentimelineio@@@std@@@0@AEAV10@@Z
	??$addressof@V?$vector@Vany@linb@@V?$allocator@Vany@linb@@@std@@@std@@@std@@YAPEAV?$vector@Vany@linb@@V?$allocator@Vany@linb@@@std@@@0@AEAV10@@Z
	??$adjusted_vector_index@V?$vector@U?$Retainer@VComposable@v1_0@opentimelineio@@@SerializableObject@v1_0@opentimelineio@@V?$allocator@U?$Retainer@VComposable@v1_0@opentimelineio@@@SerializableObject@v1_0@opentimelineio@@@std@@@std@@@v1_0@opentimelineio@@YAHHAEBV?$vector@U?$Retainer@VComposable@v1_0@opentimelineio@@@SerializableObject@v1_0@opentimelineio@@V?$allocator@U?$Retainer@VComposable@v1_0@opentimelineio@@@SerializableObject@v1_0@opentimelineio@@@std@@@std@@@Z
	??$adjusted_vector_index@V?$vector@U?$Retainer@VSerializableObject@v1_0@opentimelineio@@@SerializableObject@v1_0@opentimelineio@@V?$allocator@U?$Retainer@VSerializableObject@v1_0@opentimelineio@@@SerializableObject@v1_0@opentimelineio@@@std@@@std@@@v1_0@opentimelineio@@YAHHAEBV?$vector@U?$Retainer@VSerializableObject@v1_0@opentimelineio@@@SerializableObject@v1_0@opentimelineio@@V?$allocator@U?$Retainer@VSerializableObject@v1_0@opentimelineio@@@SerializableObject@v1_0@opentimelineio@@@std@@@std@@@Z
	??$advance@PEAVany@linb@@_J@std@@YAXAEAPEAVany@linb@@_J@Z
	??$any_cast@$$CBH@linb@@YAPEBHPEBVany@0@@Z
	??$any_cast@$$CBN@linb@@YAPEBNPEBVany@0@@Z
	??$any_cast@$$CBU?$Retainer@VSerializableObject@v1_0@opentimelineio@@@SerializableObject@v1_0@opentimelineio@@@linb@@YAPEBU?$Retainer@VSerializableObject@v1_0@opentimelineio@@@SerializableObject@v1_0@opentimelineio@@PEBVany@0@@Z
	??$any_cast@$$CBUReferenceId@SerializableObject@v1_0@opentimelineio@@@linb@@YAPEBUReferenceId@SerializableObject@v1_0@opentimelineio@@PEBVany@0@@Z
	??$any_cast@$$CBUUnknownType@SerializableObject@v1_0@opentimelineio@@@linb@@YAPEBUUnknownType@SerializableObject@v1_0@opentimelineio@@PEBVany@0@@Z
	??$any_cast@$$CBV?$basic_string@DU?$char_traits@D@std@@V?$allocator@D@2@@std@@@linb@@YAPEBV?$basic_string@DU?$char_traits@D@std@@V?$allocator@D@2@@std@@PEBVany@0@@Z
	??$any_cast@$$CBVAnyDictionary@v1_0@opentimelineio@@@linb@@YAPEBVAnyDictionary@v1_0@opentimelineio@@PEBVany@0@@Z
	??$any_cast@$$CBVAnyVector@v1_0@opentimelineio@@@linb@@YAPEBVAnyVector@v1_0@opentimelineio@@PEBVany@0@@Z
	??$any_cast@$$CBVRationalTime@v1_0@opentime@@@linb@@YAPEBVRationalTime@v1_0@opentime@@PEBVany@0@@Z
	??$any_cast@$$CBVTimeRange@v1_0@opentime@@@linb@@YAPEBVTimeRange@v1_0@opentime@@PEBVany@0@@Z
	??$any_cast@$$CBVTimeTransform@v1_0@opentime@@@linb@@YAPEBVTimeTransform@v1_0@opentime@@PEBVany@0@@Z
	??$any_cast@$$CB_J@linb@@YAPEB_JPEBVany@0@@Z
	??$any_cast@$$CB_N@linb@@YAPEB_NPEBVany@0@@Z
	??$any_cast@AEAH@linb@@YAAEAHAEAVany@0@@Z
	??$any_cast@AEAN@linb@@YAAEANAEAVany@0@@Z
	??$any_cast@AEAU?$Retainer@VSerializableObject@v1_0@opentimelineio@@@SerializableObject@v1_0@opentimelineio@@@linb@@YAAEAU?$Retainer@VSerializableObject@v1_0@opentimelineio@@@SerializableObject@v1_0@opentimelineio@@AEAVany@0@@Z
	??$any_cast@AEAV?$basic_string@DU?$char_traits@D@std@@V?$allocator@D@2@@std@@@linb@@YAAEAV?$basic_string@DU?$char_traits@D@std@@V?$allocator@D@2@@std@@AEAVany@0@@Z
	??$any_cast@AEAVAnyDictionary@v1_0@opentimelineio@@@linb@@YAAEAVAnyDictionary@v1_0@opentimelineio@@AEAVany@0@@Z
	??$any_cast@AEAVAnyVector@v1_0@opentimelineio@@@linb@@YAAEAVAnyVector@v1_0@opentimelineio@@AEAVany@0@@Z
	??$any_cast@AEAVRationalTime@v1_0@opentime@@@linb@@YAAEAVRationalTime@v1_0@opentime@@AEAVany@0@@Z
	??$any_cast@AEAVTimeRange@v1_0@opentime@@@linb@@YAAEAVTimeRange@v1_0@opentime@@AEAVany@0@@Z
	??$any_cast@AEAVTimeTransform@v1_0@opentime@@@linb@@YAAEAVTimeTransform@v1_0@opentime@@AEAVany@0@@Z
	??$any_cast@AEA_N@linb@@YAAEA_NAEAVany@0@@Z
	??$any_cast@AEBH@linb@@YAAEBHAEBVany@0@@Z
	??$any_cast@AEBN@linb@@YAAEBNAEBVany@0@@Z
	??$any_cast@AEBU?$Retainer@VSerializableObject@v1_0@opentimelineio@@@SerializableObject@v1_0@opentimelineio@@@linb@@YAAEBU?$Retainer@VSerializableObject@v1_0@opentimelineio@@@SerializableObject@v1_0@opentimelineio@@AEBVany@0@@Z
	??$any_cast@AEBUReferenceId@SerializableObject@v1_0@opentimelineio@@@linb@@YAAEBUReferenceId@SerializableObject@v1_0@opentimelineio@@AEBVany@0@@Z
	??$any_cast@AEBV?$basic_string@DU?$char_traits@D@std@@V?$allocator@D@2@@std@@@linb@@YAAEBV?$basic_string@DU?$char_traits@D@std@@V?$allocator@D@2@@std@@AEBVany@0@@Z
	??$any_cast@AEBVAnyDictionary@v1_0@opentimelineio@@@linb@@YAAEBVAnyDictionary@v1_0@opentimelineio@@AEBVany@0@@Z
	??$any_cast@AEBVAnyVector@v1_0@opentimelineio@@@linb@@YAAEBVAnyVector@v1_0@opentimelineio@@AEBVany@0@@Z
	??$any_cast@AEBVRationalTime@v1_0@opentime@@@linb@@YAAEBVRationalTime@v1_0@opentime@@AEBVany@0@@Z
	??$any_cast@AEBVTimeRange@v1_0@opentime@@@linb@@YAAEBVTimeRange@v1_0@opentime@@AEBVany@0@@Z
	??$any_cast@AEBVTimeTransform@v1_0@opentime@@@linb@@YAAEBVTimeTransform@v1_0@opentime@@AEBVany@0@@Z
	??$any_cast@AEB_J@linb@@YAAEB_JAEBVany@0@@Z
	??$any_cast@AEB_N@linb@@YAAEB_NAEBVany@0@@Z
	??$any_cast@H@linb@@YAHAEAVany@0@@Z
	??$any_cast@H@linb@@YAHAEBVany@0@@Z
	??$any_cast@H@linb@@YAPEAHPEAVany@0@@Z
	??$any_cast@N@linb@@YANAEAVany@0@@Z
	??$any_cast@N@linb@@YANAEBVany@0@@Z
	??$any_cast@N@linb@@YAPEANPEAVany@0@@Z
	??$any_cast@PEBD@linb@@YAPEBDAEBVany@0@@Z
	??$any_cast@QEBD@linb@@YAPEBQEBDPEBVany@0@@Z
	??$any_cast@U?$Retainer@VSerializableObject@v1_0@opentimelineio@@@SerializableObject@v1_0@opentimelineio@@@linb@@YA?AU?$Retainer@VSerializableObject@v1_0@opentimelineio@@@SerializableObject@v1_0@opentimelineio@@AEAVany@0@@Z
	??$any_cast@U?$Retainer@VSerializableObject@v1_0@opentimelineio@@@SerializableObject@v1_0@opentimelineio@@@linb@@YA?AU?$Retainer@VSerializableObject@v1_0@opentimelineio@@@SerializableObject@v1_0@opentimelineio@@AEBVany@0@@Z
	??$any_cast@U?$Retainer@VSerializableObject@v1_0@opentimelineio@@@SerializableObject@v1_0@opentimelineio@@@linb@@YAPEAU?$Retainer@VSerializableObject@v1_0@opentimelineio@@@SerializableObject@v1_0@opentimelineio@@PEAVany@0@@Z
	??$any_cast@UReferenceId@SerializableObject@v1_0@opentimelineio@@@linb@@YA?AUReferenceId@SerializableObject@v1_0@opentimelineio@@AEAVany@0@@Z
	??$any_cast@UReferenceId@SerializableObject@v1_0@opentimelineio@@@linb@@YAPEAUReferenceId@SerializableObject@v1_0@opentimelineio@@PEAVany@0@@Z
	??$any_cast@UUnknownType@SerializableObject@v1_0@opentimelineio@@@linb@@YA?AUUnknownType@SerializableObject@v1_0@opentimelineio@@AEBVany@0@@Z
	??$any_cast@V?$basic_string@DU?$char_traits@D@std@@V?$allocator@D@2@@std@@@linb@@YA?AV?$basic_string@DU?$char_traits@D@std@@V?$allocator@D@2@@std@@AEAVany@0@@Z
	??$any_cast@V?$basic_string@DU?$char_traits@D@std@@V?$allocator@D@2@@std@@@linb@@YA?AV?$basic_string@DU?$char_traits@D@std@@V?$allocator@D@2@@std@@AEBVany@0@@Z
	??$any_cast@V?$basic_string@DU?$char_traits@D@std@@V?$allocator@D@2@@std@@@linb@@YAPEAV?$basic_string@DU?$char_traits@D@std@@V?$allocator@D@2@@std@@PEAVany@0@@Z
	??$any_cast@VAnyDictionary@v1_0@opentimelineio@@@linb@@YA?AVAnyDictionary@v1_0@opentimelineio@@AEBVany@0@@Z
	??$any_cast@VAnyDictionary@v1_0@opentimelineio@@@linb@@YAPEAVAnyDictionary@v1_0@opentimelineio@@PEAVany@0@@Z
	??$any_cast@VAnyVector@v1_0@opentimelineio@@@linb@@YA?AVAnyVector@v1_0@opentimelineio@@AEBVany@0@@Z
	??$any_cast@VAnyVector@v1_0@opentimelineio@@@linb@@YAPEAVAnyVector@v1_0@opentimelineio@@PEAVany@0@@Z
	??$any_cast@VRationalTime@v1_0@opentime@@@linb@@YA?AVRationalTime@v1_0@opentime@@AEBVany@0@@Z
	??$any_cast@VRationalTime@v1_0@opentime@@@linb@@YAPEAVRationalTime@v1_0@opentime@@PEAVany@0@@Z
	??$any_cast@VTimeRange@v1_0@opentime@@@linb@@YA?AVTimeRange@v1_0@opentime@@AEBVany@0@@Z
	??$any_cast@VTimeRange@v1_0@opentime@@@linb@@YAPEAVTimeRange@v1_0@opentime@@PEAVany@0@@Z
	??$any_cast@VTimeTransform@v1_0@opentime@@@linb@@YA?AVTimeTransform@v1_0@opentime@@AEBVany@0@@Z
	??$any_cast@VTimeTransform@v1_0@opentime@@@linb@@YAPEAVTimeTransform@v1_0@opentime@@PEAVany@0@@Z
	??$any_cast@_J@linb@@YAPEA_JPEAVany@0@@Z
	??$any_cast@_J@linb@@YA_JAEAVany@0@@Z
	??$any_cast@_J@linb@@YA_JAEBVany@0@@Z
	??$any_cast@_N@linb@@YAPEA_NPEAVany@0@@Z
	??$any_cast@_N@linb@@YA_NAEBVany@0@@Z
	??$as@H@?$storage_t@H@detail@optional_lite@nonstd@@QEAAPEAHXZ
	??$as@N@?$storage_t@N@detail@optional_lite@nonstd@@QEAAPEANXZ
	??$as@VRationalTime@v1_0@opentime@@@?$storage_t@VRationalTime@v1_0@opentime@@@detail@optional_lite@nonstd@@QEAAPEAVRationalTime@v1_0@opentime@@XZ
	??$as@VRationalTime@v1_0@opentime@@@?$storage_t@VRationalTime@v1_0@opentime@@@detail@optional_lite@nonstd@@QEBAPEBVRationalTime@v1_0@opentime@@XZ
	??$as@VTimeRange@v1_0@opentime@@@?$storage_t@VTimeRange@v1_0@opentime@@@detail@optional_lite@nonstd@@QEAAPEAVTimeRange@v1_0@opentime@@XZ
	??$as@VTimeRange@v1_0@opentime@@@?$storage_t@VTimeRange@v1_0@opentime@@@detail@optional_lite@nonstd@@QEBAPEBVTimeRange@v1_0@opentime@@XZ
	??$as@VTimeTransform@v1_0@opentime@@@?$storage_t@VTimeTransform@v1_0@opentime@@@detail@optional_lite@nonstd@@QEAAPEAVTimeTransform@v1_0@opentime@@XZ
	??$as@_N@?$storage_t@_N@detail@optional_lite@nonstd@@QEAAPEA_NXZ
	??$assign@PEAVany@linb@@X@?$vector@Vany@linb@@V?$allocator@Vany@linb@@@std@@@std@@QEAAXPEAVany@linb@@0@Z
	??$bind@P8?$CursorStreamWrapper@U?$GenericStringStream@U?$UTF8@D@OTIO_rapidjson@@@OTIO_rapidjson@@U?$UTF8@D@2@@OTIO_rapidjson@@EBA_KXZPEAV12@@std@@YA?AV?$_Binder@U_Unforced@std@@P8?$CursorStreamWrapper@U?$GenericStringStream@U?$UTF8@D@OTIO_rapidjson@@@OTIO_rapidjson@@U?$UTF8@D@2@@OTIO_rapidjson@@EBA_KXZPEAV34@@0@$$QEAP8?$CursorStreamWrapper@U?$GenericStringStream@U?$UTF8@D@OTIO_rapidjson@@@OTIO_rapidjson@@U?$UTF8@D@2@@OTIO_rapidjson@@EBA_KXZ$$QEAPEAV23@@Z
	??$bind@P8?$CursorStreamWrapper@VFileReadStream@OTIO_rapidjson@@U?$UTF8@D@2@@OTIO_rapidjson@@EBA_KXZPEAV12@@std@@YA?AV?$_Binder@U_Unforced@std@@P8?$CursorStreamWrapper@VFileReadStream@OTIO_rapidjson@@U?$UTF8@D@2@@OTIO_rapidjson@@EBA_KXZPEAV34@@0@$$QEAP8?$CursorStreamWrapper@VFileReadStream@OTIO_rapidjson@@U?$UTF8@D@2@@OTIO_rapidjson@@EBA_KXZ$$QEAPEAV23@@Z
	??$bind@P8Encoder@v1_0@opentimelineio@@EAAXAEBUErrorStatus@23@@ZPEAVCloningEncoder@23@AEBU?$_Ph@$00@std@@@std@@YA?AV?$_Binder@U_Unforced@std@@P8Encoder@v1_0@opentimelineio@@EAAXAEBUErrorStatus@45@@ZPEAVCloningEncoder@45@AEBU?$_Ph@$00@2@@0@$$QEAP8Encoder@v1_0@opentimelineio@@EAAXAEBUErrorStatus@34@@Z$$QEAPEAVCloningEncoder@34@AEBU?$_Ph@$00@0@@Z
	??$bind@P8JSONDecoder@v1_0@opentimelineio@@EAAXAEBUErrorStatus@23@@ZPEAV123@AEBU?$_Ph@$00@std@@@std@@YA?AV?$_Binder@U_Unforced@std@@P8JSONDecoder@v1_0@opentimelineio@@EAAXAEBUErrorStatus@45@@ZPEAV345@AEBU?$_Ph@$00@2@@0@$$QEAP8JSONDecoder@v1_0@opentimelineio@@EAAXAEBUErrorStatus@34@@Z$$QEAPEAV234@AEBU?$_Ph@$00@0@@Z
	??$cast@$$CBH@any@linb@@IEBAPEBHXZ
	??$cast@$$CBN@any@linb@@IEBAPEBNXZ
	??$cast@$$CBU?$Retainer@VSerializableObject@v1_0@opentimelineio@@@SerializableObject@v1_0@opentimelineio@@@any@linb@@IEBAPEBU?$Retainer@VSerializableObject@v1_0@opentimelineio@@@SerializableObject@v1_0@opentimelineio@@XZ
	??$cast@$$CBUReferenceId@SerializableObject@v1_0@opentimelineio@@@any@linb@@IEBAPEBUReferenceId@SerializableObject@v1_0@opentimelineio@@XZ
	??$cast@$$CBUUnknownType@SerializableObject@v1_0@opentimelineio@@@any@linb@@IEBAPEBUUnknownType@SerializableObject@v1_0@opentimelineio@@XZ
	??$cast@$$CBV?$basic_string@DU?$char_traits@D@std@@V?$allocator@D@2@@std@@@any@linb@@IEBAPEBV?$basic_string@DU?$char_traits@D@std@@V?$allocator@D@2@@std@@XZ
	??$cast@$$CBVAnyDictionary@v1_0@opentimelineio@@@any@linb@@IEBAPEBVAnyDictionary@v1_0@opentimelineio@@XZ
	??$cast@$$CBVAnyVector@v1_0@opentimelineio@@@any@linb@@IEBAPEBVAnyVector@v1_0@opentimelineio@@XZ
	??$cast@$$CBVRationalTime@v1_0@opentime@@@any@linb@@IEBAPEBVRationalTime@v1_0@opentime@@XZ
	??$cast@$$CBVTimeRange@v1_0@opentime@@@any@linb@@IEBAPEBVTimeRange@v1_0@opentime@@XZ
	??$cast@$$CBVTimeTransform@v1_0@opentime@@@any@linb@@IEBAPEBVTimeTransform@v1_0@opentime@@XZ
	??$cast@$$CB_J@any@linb@@IEBAPEB_JXZ
	??$cast@$$CB_N@any@linb@@IEBAPEB_NXZ
	??$cast@H@any@linb@@IEAAPEAHXZ
	??$cast@N@any@linb@@IEAAPEANXZ
	??$cast@QEBD@any@linb@@IEBAPEBQEBDXZ
	??$cast@U?$Retainer@VSerializableObject@v1_0@opentimelineio@@@SerializableObject@v1_0@opentimelineio@@@any@linb@@IEAAPEAU?$Retainer@VSerializableObject@v1_0@opentimelineio@@@SerializableObject@v1_0@opentimelineio@@XZ
	??$cast@UReferenceId@SerializableObject@v1_0@opentimelineio@@@any@linb@@IEAAPEAUReferenceId@SerializableObject@v1_0@opentimelineio@@XZ
	??$cast@V?$basic_string@DU?$char_traits@D@std@@V?$allocator@D@2@@std@@@any@linb@@IEAAPEAV?$basic_string@DU?$char_traits@D@std@@V?$allocator@D@2@@std@@XZ
	??$cast@VAnyDictionary@v1_0@opentimelineio@@@any@linb@@IEAAPEAVAnyDictionary@v1_0@opentimelineio@@XZ
	??$cast@VAnyVector@v1_0@opentimelineio@@@any@linb@@IEAAPEAVAnyVector@v1_0@opentimelineio@@XZ
	??$cast@VRationalTime@v1_0@opentime@@@any@linb@@IEAAPEAVRationalTime@v1_0@opentime@@XZ
	??$cast@VTimeRange@v1_0@opentime@@@any@linb@@IEAAPEAVTimeRange@v1_0@opentime@@XZ
	??$cast@VTimeTransform@v1_0@opentime@@@any@linb@@IEAAPEAVTimeTransform@v1_0@opentime@@XZ
	??$cast@_J@any@linb@@IEAAPEA_JXZ
	??$cast@_N@any@linb@@IEAAPEA_NXZ
	??$construct@AEAH@any@linb@@AEAAXAEAH@Z
	??$construct@AEAN@any@linb@@AEAAXAEAN@Z
	??$construct@AEAUReferenceId@SerializableObject@v1_0@opentimelineio@@@any@linb@@AEAAXAEAUReferenceId@SerializableObject@v1_0@opentimelineio@@@Z
	??$construct@AEAV?$basic_string@DU?$char_traits@D@std@@V?$allocator@D@2@@std@@@any@linb@@AEAAXAEAV?$basic_string@DU?$char_traits@D@std@@V?$allocator@D@2@@std@@@Z
	??$construct@AEAVRationalTime@v1_0@opentime@@@any@linb@@AEAAXAEAVRationalTime@v1_0@opentime@@@Z
	??$construct@AEAVTimeRange@v1_0@opentime@@@any@linb@@AEAAXAEAVTimeRange@v1_0@opentime@@@Z
	??$construct@AEAVTimeTransform@v1_0@opentime@@@any@linb@@AEAAXAEAVTimeTransform@v1_0@opentime@@@Z
	??$construct@AEA_J@any@linb@@AEAAXAEA_J@Z
	??$construct@AEA_N@any@linb@@AEAAXAEA_N@Z
	??$construct@AEBV?$basic_string@DU?$char_traits@D@std@@V?$allocator@D@2@@std@@@any@linb@@AEAAXAEBV?$basic_string@DU?$char_traits@D@std@@V?$allocator@D@2@@std@@@Z
	??$construct@AEBVRationalTime@v1_0@opentime@@@any@linb@@AEAAXAEBVRationalTime@v1_0@opentime@@@Z
	??$construct@AEBVTimeRange@v1_0@opentime@@@any@linb@@AEAAXAEBVTimeRange@v1_0@opentime@@@Z
	??$construct@AEBVTimeTransform@v1_0@opentime@@@any@linb@@AEAAXAEBVTimeTransform@v1_0@opentime@@@Z
	??$construct@H@any@linb@@AEAAX$$QEAH@Z
	??$construct@PEADAEBQEAD@?$_Default_allocator_traits@V?$allocator@D@std@@@std@@SAXAEAV?$allocator@D@1@QEAPEADAEBQEAD@Z
	??$construct@PEAU?$_Tree_node@PEAVComposable@v1_0@opentimelineio@@PEAX@std@@AEAPEAU12@@?$_Default_allocator_traits@V?$allocator@U?$_Tree_node@PEAVComposable@v1_0@opentimelineio@@PEAX@std@@@std@@@std@@SAXAEAV?$allocator@U?$_Tree_node@PEAVComposable@v1_0@opentimelineio@@PEAX@std@@@1@QEAPEAU?$_Tree_node@PEAVComposable@v1_0@opentimelineio@@PEAX@1@AEAPEAU31@@Z
	??$construct@PEAU?$_Tree_node@PEBVComposition@v1_0@opentimelineio@@PEAX@std@@AEAPEAU12@@?$_Default_allocator_traits@V?$allocator@U?$_Tree_node@PEBVComposition@v1_0@opentimelineio@@PEAX@std@@@std@@@std@@SAXAEAV?$allocator@U?$_Tree_node@PEBVComposition@v1_0@opentimelineio@@PEAX@std@@@1@QEAPEAU?$_Tree_node@PEBVComposition@v1_0@opentimelineio@@PEAX@1@AEAPEAU31@@Z
	??$construct@PEAU?$_Tree_node@U?$pair@$$CBHV?$function@$$A6AXPEAVAnyDictionary@v1_0@opentimelineio@@@Z@std@@@std@@PEAX@std@@AEAPEAU12@@?$_Default_allocator_traits@V?$allocator@U?$_Tree_node@U?$pair@$$CBHV?$function@$$A6AXPEAVAnyDictionary@v1_0@opentimelineio@@@Z@std@@@std@@PEAX@std@@@std@@@std@@SAXAEAV?$allocator@U?$_Tree_node@U?$pair@$$CBHV?$function@$$A6AXPEAVAnyDictionary@v1_0@opentimelineio@@@Z@std@@@std@@PEAX@std@@@1@QEAPEAU?$_Tree_node@U?$pair@$$CBHV?$function@$$A6AXPEAVAnyDictionary@v1_0@opentimelineio@@@Z@std@@@std@@PEAX@1@AEAPEAU31@@Z
	??$construct@PEAU?$_Tree_node@U?$pair@$$CBV?$basic_string@DU?$char_traits@D@std@@V?$allocator@D@2@@std@@H@std@@PEAX@std@@AEAPEAU12@@?$_Default_allocator_traits@V?$allocator@U?$_Tree_node@U?$pair@$$CBV?$basic_string@DU?$char_traits@D@std@@V?$allocator@D@2@@std@@H@std@@PEAX@std@@@std@@@std@@SAXAEAV?$allocator@U?$_Tree_node@U?$pair@$$CBV?$basic_string@DU?$char_traits@D@std@@V?$allocator@D@2@@std@@H@std@@PEAX@std@@@1@QEAPEAU?$_Tree_node@U?$pair@$$CBV?$basic_string@DU?$char_traits@D@std@@V?$allocator@D@2@@std@@H@std@@PEAX@1@AEAPEAU31@@Z
	??$construct@PEAU?$_Tree_node@U?$pair@$$CBV?$basic_string@DU?$char_traits@D@std@@V?$allocator@D@2@@std@@PEAVSerializableObject@v1_0@opentimelineio@@@std@@PEAX@std@@AEAPEAU12@@?$_Default_allocator_traits@V?$allocator@U?$_Tree_node@U?$pair@$$CBV?$basic_string@DU?$char_traits@D@std@@V?$allocator@D@2@@std@@PEAVSerializableObject@v1_0@opentimelineio@@@std@@PEAX@std@@@std@@@std@@SAXAEAV?$allocator@U?$_Tree_node@U?$pair@$$CBV?$basic_string@DU?$char_traits@D@std@@V?$allocator@D@2@@std@@PEAVSerializableObject@v1_0@opentimelineio@@@std@@PEAX@std@@@1@QEAPEAU?$_Tree_node@U?$pair@$$CBV?$basic_string@DU?$char_traits@D@std@@V?$allocator@D@2@@std@@PEAVSerializableObject@v1_0@opentimelineio@@@std@@PEAX@1@AEAPEAU31@@Z
	??$construct@PEAU?$_Tree_node@U?$pair@$$CBV?$basic_string@DU?$char_traits@D@std@@V?$allocator@D@2@@std@@PEAV_TypeRecord@TypeRegistry@v1_0@opentimelineio@@@std@@PEAX@std@@AEAPEAU12@@?$_Default_allocator_traits@V?$allocator@U?$_Tree_node@U?$pair@$$CBV?$basic_string@DU?$char_traits@D@std@@V?$allocator@D@2@@std@@PEAV_TypeRecord@TypeRegistry@v1_0@opentimelineio@@@std@@PEAX@std@@@std@@@std@@SAXAEAV?$allocator@U?$_Tree_node@U?$pair@$$CBV?$basic_string@DU?$char_traits@D@std@@V?$allocator@D@2@@std@@PEAV_TypeRecord@TypeRegistry@v1_0@opentimelineio@@@std@@PEAX@std@@@1@QEAPEAU?$_Tree_node@U?$pair@$$CBV?$basic_string@DU?$char_traits@D@std@@V?$allocator@D@2@@std@@PEAV_TypeRecord@TypeRegistry@v1_0@opentimelineio@@@std@@PEAX@1@AEAPEAU31@@Z
	??$construct@PEAU?$_Tree_node@U?$pair@$$CBV?$basic_string@DU?$char_traits@D@std@@V?$allocator@D@2@@std@@V?$function@$$A6AXAEBVany@linb@@@Z@2@@std@@PEAX@std@@AEAPEAU12@@?$_Default_allocator_traits@V?$allocator@U?$_Tree_node@U?$pair@$$CBV?$basic_string@DU?$char_traits@D@std@@V?$allocator@D@2@@std@@V?$function@$$A6AXAEBVany@linb@@@Z@2@@std@@PEAX@std@@@std@@@std@@SAXAEAV?$allocator@U?$_Tree_node@U?$pair@$$CBV?$basic_string@DU?$char_traits@D@std@@V?$allocator@D@2@@std@@V?$function@$$A6AXAEBVany@linb@@@Z@2@@std@@PEAX@std@@@1@QEAPEAU?$_Tree_node@U?$pair@$$CBV?$basic_string@DU?$char_traits@D@std@@V?$allocator@D@2@@std@@V?$function@$$A6AXAEBVany@linb@@@Z@2@@std@@PEAX@1@AEAPEAU31@@Z
	??$construct@PEAU?$_Tree_node@U?$pair@$$CBV?$basic_string@DU?$char_traits@D@std@@V?$allocator@D@2@@std@@Vany@linb@@@std@@PEAX@std@@AEAPEAU12@@?$_Default_allocator_traits@V?$allocator@U?$_Tree_node@U?$pair@$$CBV?$basic_string@DU?$char_traits@D@std@@V?$allocator@D@2@@std@@Vany@linb@@@std@@PEAX@std@@@std@@@std@@SAXAEAV?$allocator@U?$_Tree_node@U?$pair@$$CBV?$basic_string@DU?$char_traits@D@std@@V?$allocator@D@2@@std@@Vany@linb@@@std@@PEAX@std@@@1@QEAPEAU?$_Tree_node@U?$pair@$$CBV?$basic_string@DU?$char_traits@D@std@@V?$allocator@D@2@@std@@Vany@linb@@@std@@PEAX@1@AEAPEAU31@@Z
	??$construct@PEAU?$_Tree_node@U?$pair@QEAVComposable@v1_0@opentimelineio@@VTimeRange@2opentime@@@std@@PEAX@std@@AEAPEAU12@@?$_Default_allocator_traits@V?$allocator@U?$_Tree_node@U?$pair@QEAVComposable@v1_0@opentimelineio@@VTimeRange@2opentime@@@std@@PEAX@std@@@std@@@std@@SAXAEAV?$allocator@U?$_Tree_node@U?$pair@QEAVComposable@v1_0@opentimelineio@@VTimeRange@2opentime@@@std@@PEAX@std@@@1@QEAPEAU?$_Tree_node@U?$pair@QEAVComposable@v1_0@opentimelineio@@VTimeRange@2opentime@@@std@@PEAX@1@AEAPEAU31@@Z
	??$construct@PEAU?$_Tree_node@U?$pair@QEAVSerializableObject@v1_0@opentimelineio@@H@std@@PEAX@std@@AEAPEAU12@@?$_Default_allocator_traits@V?$allocator@U?$_Tree_node@U?$pair@QEAVSerializableObject@v1_0@opentimelineio@@H@std@@PEAX@std@@@std@@@std@@SAXAEAV?$allocator@U?$_Tree_node@U?$pair@QEAVSerializableObject@v1_0@opentimelineio@@H@std@@PEAX@std@@@1@QEAPEAU?$_Tree_node@U?$pair@QEAVSerializableObject@v1_0@opentimelineio@@H@std@@PEAX@1@AEAPEAU31@@Z
	??$construct@PEAU?$_Tree_node@U?$pair@QEAVSerializableObject@v1_0@opentimelineio@@VAnyDictionary@23@@std@@PEAX@std@@AEAPEAU12@@?$_Default_allocator_traits@V?$allocator@U?$_Tree_node@U?$pair@QEAVSerializableObject@v1_0@opentimelineio@@VAnyDictionary@23@@std@@PEAX@std@@@std@@@std@@SAXAEAV?$allocator@U?$_Tree_node@U?$pair@QEAVSerializableObject@v1_0@opentimelineio@@VAnyDictionary@23@@std@@PEAX@std@@@1@QEAPEAU?$_Tree_node@U?$pair@QEAVSerializableObject@v1_0@opentimelineio@@VAnyDictionary@23@@std@@PEAX@1@AEAPEAU31@@Z
	??$construct@PEAU?$_Tree_node@U?$pair@QEAVTrack@v1_0@opentimelineio@@V?$map@PEAVComposable@v1_0@opentimelineio@@VTimeRange@2opentime@@U?$less@PEAVComposable@v1_0@opentimelineio@@@std@@V?$allocator@U?$pair@QEAVComposable@v1_0@opentimelineio@@VTimeRange@2opentime@@@std@@@7@@std@@@std@@PEAX@std@@AEAPEAU12@@?$_Default_allocator_traits@V?$allocator@U?$_Tree_node@U?$pair@QEAVTrack@v1_0@opentimelineio@@V?$map@PEAVComposable@v1_0@opentimelineio@@VTimeRange@2opentime@@U?$less@PEAVComposable@v1_0@opentimelineio@@@std@@V?$allocator@U?$pair@QEAVComposable@v1_0@opentimelineio@@VTimeRange@2opentime@@@std@@@7@@std@@@std@@PEAX@std@@@std@@@std@@SAXAEAV?$allocator@U?$_Tree_node@U?$pair@QEAVTrack@v1_0@opentimelineio@@V?$map@PEAVComposable@v1_0@opentimelineio@@VTimeRange@2opentime@@U?$less@PEAVComposable@v1_0@opentimelineio@@@std@@V?$allocator@U?$pair@QEAVComposable@v1_0@opentimelineio@@VTimeRange@2opentime@@@std@@@7@@std@@@std@@PEAX@std@@@1@QEAPEAU?$_Tree_node@U?$pair@QEAVTrack@v1_0@opentimelineio@@V?$map@PEAVComposable@v1_0@opentimelineio@@VTimeRange@2opentime@@U?$less@PEAVComposable@v1_0@opentimelineio@@@std@@V?$allocator@U?$pair@QEAVComposable@v1_0@opentimelineio@@VTimeRange@2opentime@@@std@@@7@@std@@@std@@PEAX@1@AEAPEAU31@@Z
	??$construct@PEAU?$_Tree_node@U?$pair@QEBVSerializableObject@v1_0@opentimelineio@@V?$basic_string@DU?$char_traits@D@std@@V?$allocator@D@2@@std@@@std@@PEAX@std@@AEAPEAU12@@?$_Default_allocator_traits@V?$allocator@U?$_Tree_node@U?$pair@QEBVSerializableObject@v1_0@opentimelineio@@V?$basic_string@DU?$char_traits@D@std@@V?$allocator@D@2@@std@@@std@@PEAX@std@@@std@@@std@@SAXAEAV?$allocator@U?$_Tree_node@U?$pair@QEBVSerializableObject@v1_0@opentimelineio@@V?$basic_string@DU?$char_traits@D@std@@V?$allocator@D@2@@std@@@std@@PEAX@std@@@1@QEAPEAU?$_Tree_node@U?$pair@QEBVSerializableObject@v1_0@opentimelineio@@V?$basic_string@DU?$char_traits@D@std@@V?$allocator@D@2@@std@@@std@@PEAX@1@AEAPEAU31@@Z
	??$construct@PEAU?$_Tree_node@U?$pair@QEBVtype_info@@V?$function@$$A6AXAEBVany@linb@@@Z@std@@@std@@PEAX@std@@AEAPEAU12@@?$_Default_allocator_traits@V?$allocator@U?$_Tree_node@U?$pair@QEBVtype_info@@V?$function@$$A6AXAEBVany@linb@@@Z@std@@@std@@PEAX@std@@@std@@@std@@SAXAEAV?$allocator@U?$_Tree_node@U?$pair@QEBVtype_info@@V?$function@$$A6AXAEBVany@linb@@@Z@std@@@std@@PEAX@std@@@1@QEAPEAU?$_Tree_node@U?$pair@QEBVtype_info@@V?$function@$$A6AXAEBVany@linb@@@Z@std@@@std@@PEAX@1@AEAPEAU31@@Z
	??$construct@PEAU?$_Tree_node@U?$pair@QEBVtype_info@@V?$function@$$A6A_NAEBVany@linb@@0@Z@std@@@std@@PEAX@std@@AEAPEAU12@@?$_Default_allocator_traits@V?$allocator@U?$_Tree_node@U?$pair@QEBVtype_info@@V?$function@$$A6A_NAEBVany@linb@@0@Z@std@@@std@@PEAX@std@@@std@@@std@@SAXAEAV?$allocator@U?$_Tree_node@U?$pair@QEBVtype_info@@V?$function@$$A6A_NAEBVany@linb@@0@Z@std@@@std@@PEAX@std@@@1@QEAPEAU?$_Tree_node@U?$pair@QEBVtype_info@@V?$function@$$A6A_NAEBVany@linb@@0@Z@std@@@std@@PEAX@1@AEAPEAU31@@Z
	??$construct@PEAVComposable@v1_0@opentimelineio@@AEBQEAV123@@?$_Default_allocator_traits@V?$allocator@PEAVComposable@v1_0@opentimelineio@@@std@@@std@@SAXAEAV?$allocator@PEAVComposable@v1_0@opentimelineio@@@1@QEAPEAVComposable@v1_0@opentimelineio@@AEBQEAV345@@Z
	??$construct@PEAVComposable@v1_0@opentimelineio@@AEBQEAV123@@?$_Default_allocator_traits@V?$allocator@U?$_Tree_node@PEAVComposable@v1_0@opentimelineio@@PEAX@std@@@std@@@std@@SAXAEAV?$allocator@U?$_Tree_node@PEAVComposable@v1_0@opentimelineio@@PEAX@std@@@1@QEAPEAVComposable@v1_0@opentimelineio@@AEBQEAV345@@Z
	??$construct@PEAVComposable@v1_0@opentimelineio@@AEBU?$Retainer@VComposable@v1_0@opentimelineio@@@SerializableObject@23@@?$_Default_allocator_traits@V?$allocator@PEAVComposable@v1_0@opentimelineio@@@std@@@std@@SAXAEAV?$allocator@PEAVComposable@v1_0@opentimelineio@@@1@QEAPEAVComposable@v1_0@opentimelineio@@AEBU?$Retainer@VComposable@v1_0@opentimelineio@@@SerializableObject@45@@Z
	??$construct@PEAVComposition@v1_0@opentimelineio@@AEBQEAV123@@?$_Default_allocator_traits@V?$allocator@PEAVComposition@v1_0@opentimelineio@@@std@@@std@@SAXAEAV?$allocator@PEAVComposition@v1_0@opentimelineio@@@1@QEAPEAVComposition@v1_0@opentimelineio@@AEBQEAV345@@Z
	??$construct@PEAVTrack@v1_0@opentimelineio@@AEBQEAV123@@?$_Default_allocator_traits@V?$allocator@PEAVTrack@v1_0@opentimelineio@@@std@@@std@@SAXAEAV?$allocator@PEAVTrack@v1_0@opentimelineio@@@1@QEAPEAVTrack@v1_0@opentimelineio@@AEBQEAV345@@Z
	??$construct@PEBVComposition@v1_0@opentimelineio@@AEBQEBV123@@?$_Default_allocator_traits@V?$allocator@U?$_Tree_node@PEBVComposition@v1_0@opentimelineio@@PEAX@std@@@std@@@std@@SAXAEAV?$allocator@U?$_Tree_node@PEBVComposition@v1_0@opentimelineio@@PEAX@std@@@1@QEAPEBVComposition@v1_0@opentimelineio@@AEBQEBV345@@Z
	??$construct@U?$Retainer@VComposable@v1_0@opentimelineio@@@SerializableObject@v1_0@opentimelineio@@AEAPEAVComposable@34@@?$_Default_allocator_traits@V?$allocator@U?$Retainer@VComposable@v1_0@opentimelineio@@@SerializableObject@v1_0@opentimelineio@@@std@@@std@@SAXAEAV?$allocator@U?$Retainer@VComposable@v1_0@opentimelineio@@@SerializableObject@v1_0@opentimelineio@@@1@QEAU?$Retainer@VComposable@v1_0@opentimelineio@@@SerializableObject@v1_0@opentimelineio@@AEAPEAVComposable@56@@Z
	??$construct@U?$Retainer@VComposable@v1_0@opentimelineio@@@SerializableObject@v1_0@opentimelineio@@AEAU1234@@?$_Default_allocator_traits@V?$allocator@U?$Retainer@VComposable@v1_0@opentimelineio@@@SerializableObject@v1_0@opentimelineio@@@std@@@std@@SAXAEAV?$allocator@U?$Retainer@VComposable@v1_0@opentimelineio@@@SerializableObject@v1_0@opentimelineio@@@1@QEAU?$Retainer@VComposable@v1_0@opentimelineio@@@SerializableObject@v1_0@opentimelineio@@AEAU3456@@Z
	??$construct@U?$Retainer@VComposable@v1_0@opentimelineio@@@SerializableObject@v1_0@opentimelineio@@AEBQEAVComposable@34@@?$_Default_allocator_traits@V?$allocator@U?$Retainer@VComposable@v1_0@opentimelineio@@@SerializableObject@v1_0@opentimelineio@@@std@@@std@@SAXAEAV?$allocator@U?$Retainer@VComposable@v1_0@opentimelineio@@@SerializableObject@v1_0@opentimelineio@@@1@QEAU?$Retainer@VComposable@v1_0@opentimelineio@@@SerializableObject@v1_0@opentimelineio@@AEBQEAVComposable@56@@Z
	??$construct@U?$Retainer@VComposable@v1_0@opentimelineio@@@SerializableObject@v1_0@opentimelineio@@U1234@@?$_Default_allocator_traits@V?$allocator@U?$Retainer@VComposable@v1_0@opentimelineio@@@SerializableObject@v1_0@opentimelineio@@@std@@@std@@SAXAEAV?$allocator@U?$Retainer@VComposable@v1_0@opentimelineio@@@SerializableObject@v1_0@opentimelineio@@@1@QEAU?$Retainer@VComposable@v1_0@opentimelineio@@@SerializableObject@v1_0@opentimelineio@@$$QEAU3456@@Z
	??$construct@U?$Retainer@VEffect@v1_0@opentimelineio@@@SerializableObject@v1_0@opentimelineio@@AEAU1234@@?$_Default_allocator_traits@V?$allocator@U?$Retainer@VEffect@v1_0@opentimelineio@@@SerializableObject@v1_0@opentimelineio@@@std@@@std@@SAXAEAV?$allocator@U?$Retainer@VEffect@v1_0@opentimelineio@@@SerializableObject@v1_0@opentimelineio@@@1@QEAU?$Retainer@VEffect@v1_0@opentimelineio@@@SerializableObject@v1_0@opentimelineio@@AEAU3456@@Z
	??$construct@U?$Retainer@VEffect@v1_0@opentimelineio@@@SerializableObject@v1_0@opentimelineio@@AEBQEAVEffect@34@@?$_Default_allocator_traits@V?$allocator@U?$Retainer@VEffect@v1_0@opentimelineio@@@SerializableObject@v1_0@opentimelineio@@@std@@@std@@SAXAEAV?$allocator@U?$Retainer@VEffect@v1_0@opentimelineio@@@SerializableObject@v1_0@opentimelineio@@@1@QEAU?$Retainer@VEffect@v1_0@opentimelineio@@@SerializableObject@v1_0@opentimelineio@@AEBQEAVEffect@56@@Z
	??$construct@U?$Retainer@VEffect@v1_0@opentimelineio@@@SerializableObject@v1_0@opentimelineio@@U1234@@?$_Default_allocator_traits@V?$allocator@U?$Retainer@VEffect@v1_0@opentimelineio@@@SerializableObject@v1_0@opentimelineio@@@std@@@std@@SAXAEAV?$allocator@U?$Retainer@VEffect@v1_0@opentimelineio@@@SerializableObject@v1_0@opentimelineio@@@1@QEAU?$Retainer@VEffect@v1_0@opentimelineio@@@SerializableObject@v1_0@opentimelineio@@$$QEAU3456@@Z
	??$construct@U?$Retainer@VMarker@v1_0@opentimelineio@@@SerializableObject@v1_0@opentimelineio@@AEAU1234@@?$_Default_allocator_traits@V?$allocator@U?$Retainer@VMarker@v1_0@opentimelineio@@@SerializableObject@v1_0@opentimelineio@@@std@@@std@@SAXAEAV?$allocator@U?$Retainer@VMarker@v1_0@opentimelineio@@@SerializableObject@v1_0@opentimelineio@@@1@QEAU?$Retainer@VMarker@v1_0@opentimelineio@@@SerializableObject@v1_0@opentimelineio@@AEAU3456@@Z
	??$construct@U?$Retainer@VMarker@v1_0@opentimelineio@@@SerializableObject@v1_0@opentimelineio@@AEBQEAVMarker@34@@?$_Default_allocator_traits@V?$allocator@U?$Retainer@VMarker@v1_0@opentimelineio@@@SerializableObject@v1_0@opentimelineio@@@std@@@std@@SAXAEAV?$allocator@U?$Retainer@VMarker@v1_0@opentimelineio@@@SerializableObject@v1_0@opentimelineio@@@1@QEAU?$Retainer@VMarker@v1_0@opentimelineio@@@SerializableObject@v1_0@opentimelineio@@AEBQEAVMarker@56@@Z
	??$construct@U?$Retainer@VMarker@v1_0@opentimelineio@@@SerializableObject@v1_0@opentimelineio@@U1234@@?$_Default_allocator_traits@V?$allocator@U?$Retainer@VMarker@v1_0@opentimelineio@@@SerializableObject@v1_0@opentimelineio@@@std@@@std@@SAXAEAV?$allocator@U?$Retainer@VMarker@v1_0@opentimelineio@@@SerializableObject@v1_0@opentimelineio@@@1@QEAU?$Retainer@VMarker@v1_0@opentimelineio@@@SerializableObject@v1_0@opentimelineio@@$$QEAU3456@@Z
	??$construct@U?$Retainer@VSerializableObject@v1_0@opentimelineio@@@SerializableObject@v1_0@opentimelineio@@@any@linb@@AEAAX$$QEAU?$Retainer@VSerializableObject@v1_0@opentimelineio@@@SerializableObject@v1_0@opentimelineio@@@Z
	??$construct@U?$Retainer@VSerializableObject@v1_0@opentimelineio@@@SerializableObject@v1_0@opentimelineio@@AEAPEAV234@@?$_Default_allocator_traits@V?$allocator@U?$Retainer@VSerializableObject@v1_0@opentimelineio@@@SerializableObject@v1_0@opentimelineio@@@std@@@std@@SAXAEAV?$allocator@U?$Retainer@VSerializableObject@v1_0@opentimelineio@@@SerializableObject@v1_0@opentimelineio@@@1@QEAU?$Retainer@VSerializableObject@v1_0@opentimelineio@@@SerializableObject@v1_0@opentimelineio@@AEAPEAV456@@Z
	??$construct@U?$Retainer@VSerializableObject@v1_0@opentimelineio@@@SerializableObject@v1_0@opentimelineio@@AEAU1234@@?$_Default_allocator_traits@V?$allocator@U?$Retainer@VSerializableObject@v1_0@opentimelineio@@@SerializableObject@v1_0@opentimelineio@@@std@@@std@@SAXAEAV?$allocator@U?$Retainer@VSerializableObject@v1_0@opentimelineio@@@SerializableObject@v1_0@opentimelineio@@@1@QEAU?$Retainer@VSerializableObject@v1_0@opentimelineio@@@SerializableObject@v1_0@opentimelineio@@AEAU3456@@Z
	??$construct@U?$Retainer@VSerializableObject@v1_0@opentimelineio@@@SerializableObject@v1_0@opentimelineio@@AEBQEAV234@@?$_Default_allocator_traits@V?$allocator@U?$Retainer@VSerializableObject@v1_0@opentimelineio@@@SerializableObject@v1_0@opentimelineio@@@std@@@std@@SAXAEAV?$allocator@U?$Retainer@VSerializableObject@v1_0@opentimelineio@@@SerializableObject@v1_0@opentimelineio@@@1@QEAU?$Retainer@VSerializableObject@v1_0@opentimelineio@@@SerializableObject@v1_0@opentimelineio@@AEBQEAV456@@Z
	??$construct@U?$Retainer@VSerializableObject@v1_0@opentimelineio@@@SerializableObject@v1_0@opentimelineio@@U1234@@?$_Default_allocator_traits@V?$allocator@U?$Retainer@VSerializableObject@v1_0@opentimelineio@@@SerializableObject@v1_0@opentimelineio@@@std@@@std@@SAXAEAV?$allocator@U?$Retainer@VSerializableObject@v1_0@opentimelineio@@@SerializableObject@v1_0@opentimelineio@@@1@QEAU?$Retainer@VSerializableObject@v1_0@opentimelineio@@@SerializableObject@v1_0@opentimelineio@@$$QEAU3456@@Z
	??$construct@U?$pair@$$CBHV?$function@$$A6AXPEAVAnyDictionary@v1_0@opentimelineio@@@Z@std@@@std@@AEBUpiecewise_construct_t@2@V?$tuple@AEBH@2@V?$tuple@$$V@2@@?$_Default_allocator_traits@V?$allocator@U?$_Tree_node@U?$pair@$$CBHV?$function@$$A6AXPEAVAnyDictionary@v1_0@opentimelineio@@@Z@std@@@std@@PEAX@std@@@std@@@std@@SAXAEAV?$allocator@U?$_Tree_node@U?$pair@$$CBHV?$function@$$A6AXPEAVAnyDictionary@v1_0@opentimelineio@@@Z@std@@@std@@PEAX@std@@@1@QEAU?$pair@$$CBHV?$function@$$A6AXPEAVAnyDictionary@v1_0@opentimelineio@@@Z@std@@@1@AEBUpiecewise_construct_t@1@$$QEAV?$tuple@AEBH@1@$$QEAV?$tuple@$$V@1@@Z
	??$construct@U?$pair@$$CBV?$basic_string@DU?$char_traits@D@std@@V?$allocator@D@2@@std@@H@std@@AEBUpiecewise_construct_t@2@V?$tuple@AEBV?$basic_string@DU?$char_traits@D@std@@V?$allocator@D@2@@std@@@2@V?$tuple@$$V@2@@?$_Default_allocator_traits@V?$allocator@U?$_Tree_node@U?$pair@$$CBV?$basic_string@DU?$char_traits@D@std@@V?$allocator@D@2@@std@@H@std@@PEAX@std@@@std@@@std@@SAXAEAV?$allocator@U?$_Tree_node@U?$pair@$$CBV?$basic_string@DU?$char_traits@D@std@@V?$allocator@D@2@@std@@H@std@@PEAX@std@@@1@QEAU?$pair@$$CBV?$basic_string@DU?$char_traits@D@std@@V?$allocator@D@2@@std@@H@1@AEBUpiecewise_construct_t@1@$$QEAV?$tuple@AEBV?$basic_string@DU?$char_traits@D@std@@V?$allocator@D@2@@std@@@1@$$QEAV?$tuple@$$V@1@@Z
	??$construct@U?$pair@$$CBV?$basic_string@DU?$char_traits@D@std@@V?$allocator@D@2@@std@@PEAVSerializableObject@v1_0@opentimelineio@@@std@@AEBUpiecewise_construct_t@2@V?$tuple@AEBV?$basic_string@DU?$char_traits@D@std@@V?$allocator@D@2@@std@@@2@V?$tuple@$$V@2@@?$_Default_allocator_traits@V?$allocator@U?$_Tree_node@U?$pair@$$CBV?$basic_string@DU?$char_traits@D@std@@V?$allocator@D@2@@std@@PEAVSerializableObject@v1_0@opentimelineio@@@std@@PEAX@std@@@std@@@std@@SAXAEAV?$allocator@U?$_Tree_node@U?$pair@$$CBV?$basic_string@DU?$char_traits@D@std@@V?$allocator@D@2@@std@@PEAVSerializableObject@v1_0@opentimelineio@@@std@@PEAX@std@@@1@QEAU?$pair@$$CBV?$basic_string@DU?$char_traits@D@std@@V?$allocator@D@2@@std@@PEAVSerializableObject@v1_0@opentimelineio@@@1@AEBUpiecewise_construct_t@1@$$QEAV?$tuple@AEBV?$basic_string@DU?$char_traits@D@std@@V?$allocator@D@2@@std@@@1@$$QEAV?$tuple@$$V@1@@Z
	??$construct@U?$pair@$$CBV?$basic_string@DU?$char_traits@D@std@@V?$allocator@D@2@@std@@PEAV_TypeRecord@TypeRegistry@v1_0@opentimelineio@@@std@@AEBUpiecewise_construct_t@2@V?$tuple@$$QEAV?$basic_string@DU?$char_traits@D@std@@V?$allocator@D@2@@std@@@2@V?$tuple@$$V@2@@?$_Default_allocator_traits@V?$allocator@U?$_Tree_node@U?$pair@$$CBV?$basic_string@DU?$char_traits@D@std@@V?$allocator@D@2@@std@@PEAV_TypeRecord@TypeRegistry@v1_0@opentimelineio@@@std@@PEAX@std@@@std@@@std@@SAXAEAV?$allocator@U?$_Tree_node@U?$pair@$$CBV?$basic_string@DU?$char_traits@D@std@@V?$allocator@D@2@@std@@PEAV_TypeRecord@TypeRegistry@v1_0@opentimelineio@@@std@@PEAX@std@@@1@QEAU?$pair@$$CBV?$basic_string@DU?$char_traits@D@std@@V?$allocator@D@2@@std@@PEAV_TypeRecord@TypeRegistry@v1_0@opentimelineio@@@1@AEBUpiecewise_construct_t@1@$$QEAV?$tuple@$$QEAV?$basic_string@DU?$char_traits@D@std@@V?$allocator@D@2@@std@@@1@$$QEAV?$tuple@$$V@1@@Z
	??$construct@U?$pair@$$CBV?$basic_string@DU?$char_traits@D@std@@V?$allocator@D@2@@std@@PEAV_TypeRecord@TypeRegistry@v1_0@opentimelineio@@@std@@AEBUpiecewise_construct_t@2@V?$tuple@AEBV?$basic_string@DU?$char_traits@D@std@@V?$allocator@D@2@@std@@@2@V?$tuple@$$V@2@@?$_Default_allocator_traits@V?$allocator@U?$_Tree_node@U?$pair@$$CBV?$basic_string@DU?$char_traits@D@std@@V?$allocator@D@2@@std@@PEAV_TypeRecord@TypeRegistry@v1_0@opentimelineio@@@std@@PEAX@std@@@std@@@std@@SAXAEAV?$allocator@U?$_Tree_node@U?$pair@$$CBV?$basic_string@DU?$char_traits@D@std@@V?$allocator@D@2@@std@@PEAV_TypeRecord@TypeRegistry@v1_0@opentimelineio@@@std@@PEAX@std@@@1@QEAU?$pair@$$CBV?$basic_string@DU?$char_traits@D@std@@V?$allocator@D@2@@std@@PEAV_TypeRecord@TypeRegistry@v1_0@opentimelineio@@@1@AEBUpiecewise_construct_t@1@$$QEAV?$tuple@AEBV?$basic_string@DU?$char_traits@D@std@@V?$allocator@D@2@@std@@@1@$$QEAV?$tuple@$$V@1@@Z
	??$construct@U?$pair@$$CBV?$basic_string@DU?$char_traits@D@std@@V?$allocator@D@2@@std@@V?$function@$$A6AXAEBVany@linb@@@Z@2@@std@@AEBUpiecewise_construct_t@2@V?$tuple@$$QEAV?$basic_string@DU?$char_traits@D@std@@V?$allocator@D@2@@std@@@2@V?$tuple@$$V@2@@?$_Default_allocator_traits@V?$allocator@U?$_Tree_node@U?$pair@$$CBV?$basic_string@DU?$char_traits@D@std@@V?$allocator@D@2@@std@@V?$function@$$A6AXAEBVany@linb@@@Z@2@@std@@PEAX@std@@@std@@@std@@SAXAEAV?$allocator@U?$_Tree_node@U?$pair@$$CBV?$basic_string@DU?$char_traits@D@std@@V?$allocator@D@2@@std@@V?$function@$$A6AXAEBVany@linb@@@Z@2@@std@@PEAX@std@@@1@QEAU?$pair@$$CBV?$basic_string@DU?$char_traits@D@std@@V?$allocator@D@2@@std@@V?$function@$$A6AXAEBVany@linb@@@Z@2@@1@AEBUpiecewise_construct_t@1@$$QEAV?$tuple@$$QEAV?$basic_string@DU?$char_traits@D@std@@V?$allocator@D@2@@std@@@1@$$QEAV?$tuple@$$V@1@@Z
	??$construct@U?$pair@$$CBV?$basic_string@DU?$char_traits@D@std@@V?$allocator@D@2@@std@@Vany@linb@@@std@@AEAU12@@?$_Default_allocator_traits@V?$allocator@U?$_Tree_node@U?$pair@$$CBV?$basic_string@DU?$char_traits@D@std@@V?$allocator@D@2@@std@@Vany@linb@@@std@@PEAX@std@@@std@@@std@@SAXAEAV?$allocator@U?$_Tree_node@U?$pair@$$CBV?$basic_string@DU?$char_traits@D@std@@V?$allocator@D@2@@std@@Vany@linb@@@std@@PEAX@std@@@1@QEAU?$pair@$$CBV?$basic_string@DU?$char_traits@D@std@@V?$allocator@D@2@@std@@Vany@linb@@@1@AEAU31@@Z
	??$construct@U?$pair@$$CBV?$basic_string@DU?$char_traits@D@std@@V?$allocator@D@2@@std@@Vany@linb@@@std@@AEAV?$basic_string@DU?$char_traits@D@std@@V?$allocator@D@2@@2@AEAVany@linb@@@?$_Default_allocator_traits@V?$allocator@U?$_Tree_node@U?$pair@$$CBV?$basic_string@DU?$char_traits@D@std@@V?$allocator@D@2@@std@@Vany@linb@@@std@@PEAX@std@@@std@@@std@@SAXAEAV?$allocator@U?$_Tree_node@U?$pair@$$CBV?$basic_string@DU?$char_traits@D@std@@V?$allocator@D@2@@std@@Vany@linb@@@std@@PEAX@std@@@1@QEAU?$pair@$$CBV?$basic_string@DU?$char_traits@D@std@@V?$allocator@D@2@@std@@Vany@linb@@@1@AEAV?$basic_string@DU?$char_traits@D@std@@V?$allocator@D@2@@1@AEAVany@linb@@@Z
	??$construct@U?$pair@$$CBV?$basic_string@DU?$char_traits@D@std@@V?$allocator@D@2@@std@@Vany@linb@@@std@@AEBUpiecewise_construct_t@2@V?$tuple@$$QEAV?$basic_string@DU?$char_traits@D@std@@V?$allocator@D@2@@std@@@2@V?$tuple@$$V@2@@?$_Default_allocator_traits@V?$allocator@U?$_Tree_node@U?$pair@$$CBV?$basic_string@DU?$char_traits@D@std@@V?$allocator@D@2@@std@@Vany@linb@@@std@@PEAX@std@@@std@@@std@@SAXAEAV?$allocator@U?$_Tree_node@U?$pair@$$CBV?$basic_string@DU?$char_traits@D@std@@V?$allocator@D@2@@std@@Vany@linb@@@std@@PEAX@std@@@1@QEAU?$pair@$$CBV?$basic_string@DU?$char_traits@D@std@@V?$allocator@D@2@@std@@Vany@linb@@@1@AEBUpiecewise_construct_t@1@$$QEAV?$tuple@$$QEAV?$basic_string@DU?$char_traits@D@std@@V?$allocator@D@2@@std@@@1@$$QEAV?$tuple@$$V@1@@Z
	??$construct@U?$pair@$$CBV?$basic_string@DU?$char_traits@D@std@@V?$allocator@D@2@@std@@Vany@linb@@@std@@AEBV?$basic_string@DU?$char_traits@D@std@@V?$allocator@D@2@@2@Vany@linb@@@?$_Default_allocator_traits@V?$allocator@U?$_Tree_node@U?$pair@$$CBV?$basic_string@DU?$char_traits@D@std@@V?$allocator@D@2@@std@@Vany@linb@@@std@@PEAX@std@@@std@@@std@@SAXAEAV?$allocator@U?$_Tree_node@U?$pair@$$CBV?$basic_string@DU?$char_traits@D@std@@V?$allocator@D@2@@std@@Vany@linb@@@std@@PEAX@std@@@1@QEAU?$pair@$$CBV?$basic_string@DU?$char_traits@D@std@@V?$allocator@D@2@@std@@Vany@linb@@@1@AEBV?$basic_string@DU?$char_traits@D@std@@V?$allocator@D@2@@1@$$QEAVany@linb@@@Z
	??$construct@U?$pair@QEAVComposable@v1_0@opentimelineio@@VTimeRange@2opentime@@@std@@AEBUpiecewise_construct_t@2@V?$tuple@$$QEAPEAVComposable@v1_0@opentimelineio@@@2@V?$tuple@$$V@2@@?$_Default_allocator_traits@V?$allocator@U?$_Tree_node@U?$pair@QEAVComposable@v1_0@opentimelineio@@VTimeRange@2opentime@@@std@@PEAX@std@@@std@@@std@@SAXAEAV?$allocator@U?$_Tree_node@U?$pair@QEAVComposable@v1_0@opentimelineio@@VTimeRange@2opentime@@@std@@PEAX@std@@@1@QEAU?$pair@QEAVComposable@v1_0@opentimelineio@@VTimeRange@2opentime@@@1@AEBUpiecewise_construct_t@1@$$QEAV?$tuple@$$QEAPEAVComposable@v1_0@opentimelineio@@@1@$$QEAV?$tuple@$$V@1@@Z
	??$construct@U?$pair@QEAVComposable@v1_0@opentimelineio@@VTimeRange@2opentime@@@std@@AEBUpiecewise_construct_t@2@V?$tuple@AEBQEAVComposable@v1_0@opentimelineio@@@2@V?$tuple@$$V@2@@?$_Default_allocator_traits@V?$allocator@U?$_Tree_node@U?$pair@QEAVComposable@v1_0@opentimelineio@@VTimeRange@2opentime@@@std@@PEAX@std@@@std@@@std@@SAXAEAV?$allocator@U?$_Tree_node@U?$pair@QEAVComposable@v1_0@opentimelineio@@VTimeRange@2opentime@@@std@@PEAX@std@@@1@QEAU?$pair@QEAVComposable@v1_0@opentimelineio@@VTimeRange@2opentime@@@1@AEBUpiecewise_construct_t@1@$$QEAV?$tuple@AEBQEAVComposable@v1_0@opentimelineio@@@1@$$QEAV?$tuple@$$V@1@@Z
	??$construct@U?$pair@QEAVSerializableObject@v1_0@opentimelineio@@H@std@@AEBUpiecewise_construct_t@2@V?$tuple@AEBQEAVSerializableObject@v1_0@opentimelineio@@@2@V?$tuple@$$V@2@@?$_Default_allocator_traits@V?$allocator@U?$_Tree_node@U?$pair@QEAVSerializableObject@v1_0@opentimelineio@@H@std@@PEAX@std@@@std@@@std@@SAXAEAV?$allocator@U?$_Tree_node@U?$pair@QEAVSerializableObject@v1_0@opentimelineio@@H@std@@PEAX@std@@@1@QEAU?$pair@QEAVSerializableObject@v1_0@opentimelineio@@H@1@AEBUpiecewise_construct_t@1@$$QEAV?$tuple@AEBQEAVSerializableObject@v1_0@opentimelineio@@@1@$$QEAV?$tuple@$$V@1@@Z
	??$construct@U?$pair@QEAVSerializableObject@v1_0@opentimelineio@@VAnyDictionary@23@@std@@AEAPEAVSerializableObject@v1_0@opentimelineio@@VAnyDictionary@45@@?$_Default_allocator_traits@V?$allocator@U?$_Tree_node@U?$pair@QEAVSerializableObject@v1_0@opentimelineio@@VAnyDictionary@23@@std@@PEAX@std@@@std@@@std@@SAXAEAV?$allocator@U?$_Tree_node@U?$pair@QEAVSerializableObject@v1_0@opentimelineio@@VAnyDictionary@23@@std@@PEAX@std@@@1@QEAU?$pair@QEAVSerializableObject@v1_0@opentimelineio@@VAnyDictionary@23@@1@AEAPEAVSerializableObject@v1_0@opentimelineio@@$$QEAVAnyDictionary@56@@Z
	??$construct@U?$pair@QEAVTrack@v1_0@opentimelineio@@V?$map@PEAVComposable@v1_0@opentimelineio@@VTimeRange@2opentime@@U?$less@PEAVComposable@v1_0@opentimelineio@@@std@@V?$allocator@U?$pair@QEAVComposable@v1_0@opentimelineio@@VTimeRange@2opentime@@@std@@@7@@std@@@std@@AEAPEAVTrack@v1_0@opentimelineio@@V?$map@PEAVComposable@v1_0@opentimelineio@@VTimeRange@2opentime@@U?$less@PEAVComposable@v1_0@opentimelineio@@@std@@V?$allocator@U?$pair@QEAVComposable@v1_0@opentimelineio@@VTimeRange@2opentime@@@std@@@7@@2@@?$_Default_allocator_traits@V?$allocator@U?$_Tree_node@U?$pair@QEAVTrack@v1_0@opentimelineio@@V?$map@PEAVComposable@v1_0@opentimelineio@@VTimeRange@2opentime@@U?$less@PEAVComposable@v1_0@opentimelineio@@@std@@V?$allocator@U?$pair@QEAVComposable@v1_0@opentimelineio@@VTimeRange@2opentime@@@std@@@7@@std@@@std@@PEAX@std@@@std@@@std@@SAXAEAV?$allocator@U?$_Tree_node@U?$pair@QEAVTrack@v1_0@opentimelineio@@V?$map@PEAVComposable@v1_0@opentimelineio@@VTimeRange@2opentime@@U?$less@PEAVComposable@v1_0@opentimelineio@@@std@@V?$allocator@U?$pair@QEAVComposable@v1_0@opentimelineio@@VTimeRange@2opentime@@@std@@@7@@std@@@std@@PEAX@std@@@1@QEAU?$pair@QEAVTrack@v1_0@opentimelineio@@V?$map@PEAVComposable@v1_0@opentimelineio@@VTimeRange@2opentime@@U?$less@PEAVComposable@v1_0@opentimelineio@@@std@@V?$allocator@U?$pair@QEAVComposable@v1_0@opentimelineio@@VTimeRange@2opentime@@@std@@@7@@std@@@1@AEAPEAVTrack@v1_0@opentimelineio@@$$QEAV?$map@PEAVComposable@v1_0@opentimelineio@@VTimeRange@2opentime@@U?$less@PEAVComposable@v1_0@opentimelineio@@@std@@V?$allocator@U?$pair@QEAVComposable@v1_0@opentimelineio@@VTimeRange@2opentime@@@std@@@7@@1@@Z
	??$construct@U?$pair@QEBVSerializableObject@v1_0@opentimelineio@@V?$basic_string@DU?$char_traits@D@std@@V?$allocator@D@2@@std@@@std@@AEBUpiecewise_construct_t@2@V?$tuple@AEBQEBVSerializableObject@v1_0@opentimelineio@@@2@V?$tuple@$$V@2@@?$_Default_allocator_traits@V?$allocator@U?$_Tree_node@U?$pair@QEBVSerializableObject@v1_0@opentimelineio@@V?$basic_string@DU?$char_traits@D@std@@V?$allocator@D@2@@std@@@std@@PEAX@std@@@std@@@std@@SAXAEAV?$allocator@U?$_Tree_node@U?$pair@QEBVSerializableObject@v1_0@opentimelineio@@V?$basic_string@DU?$char_traits@D@std@@V?$allocator@D@2@@std@@@std@@PEAX@std@@@1@QEAU?$pair@QEBVSerializableObject@v1_0@opentimelineio@@V?$basic_string@DU?$char_traits@D@std@@V?$allocator@D@2@@std@@@1@AEBUpiecewise_construct_t@1@$$QEAV?$tuple@AEBQEBVSerializableObject@v1_0@opentimelineio@@@1@$$QEAV?$tuple@$$V@1@@Z
	??$construct@U?$pair@QEBVtype_info@@V?$function@$$A6AXAEBVany@linb@@@Z@std@@@std@@AEBUpiecewise_construct_t@2@V?$tuple@$$QEAPEBVtype_info@@@2@V?$tuple@$$V@2@@?$_Default_allocator_traits@V?$allocator@U?$_Tree_node@U?$pair@QEBVtype_info@@V?$function@$$A6AXAEBVany@linb@@@Z@std@@@std@@PEAX@std@@@std@@@std@@SAXAEAV?$allocator@U?$_Tree_node@U?$pair@QEBVtype_info@@V?$function@$$A6AXAEBVany@linb@@@Z@std@@@std@@PEAX@std@@@1@QEAU?$pair@QEBVtype_info@@V?$function@$$A6AXAEBVany@linb@@@Z@std@@@1@AEBUpiecewise_construct_t@1@$$QEAV?$tuple@$$QEAPEBVtype_info@@@1@$$QEAV?$tuple@$$V@1@@Z
	??$construct@U?$pair@QEBVtype_info@@V?$function@$$A6A_NAEBVany@linb@@0@Z@std@@@std@@AEBUpiecewise_construct_t@2@V?$tuple@$$QEAPEBVtype_info@@@2@V?$tuple@$$V@2@@?$_Default_allocator_traits@V?$allocator@U?$_Tree_node@U?$pair@QEBVtype_info@@V?$function@$$A6A_NAEBVany@linb@@0@Z@std@@@std@@PEAX@std@@@std@@@std@@SAXAEAV?$allocator@U?$_Tree_node@U?$pair@QEBVtype_info@@V?$function@$$A6A_NAEBVany@linb@@0@Z@std@@@std@@PEAX@std@@@1@QEAU?$pair@QEBVtype_info@@V?$function@$$A6A_NAEBVany@linb@@0@Z@std@@@1@AEBUpiecewise_construct_t@1@$$QEAV?$tuple@$$QEAPEBVtype_info@@@1@$$QEAV?$tuple@$$V@1@@Z
	??$construct@UReferenceId@SerializableObject@v1_0@opentimelineio@@@any@linb@@AEAAX$$QEAUReferenceId@SerializableObject@v1_0@opentimelineio@@@Z
	??$construct@U_DictOrArray@CloningEncoder@v1_0@opentimelineio@@AEAU1234@@?$_Default_allocator_traits@V?$allocator@U_DictOrArray@CloningEncoder@v1_0@opentimelineio@@@std@@@std@@SAXAEAV?$allocator@U_DictOrArray@CloningEncoder@v1_0@opentimelineio@@@1@QEAU_DictOrArray@CloningEncoder@v1_0@opentimelineio@@AEAU3456@@Z
	??$construct@U_DictOrArray@CloningEncoder@v1_0@opentimelineio@@U1234@@?$_Default_allocator_traits@V?$allocator@U_DictOrArray@CloningEncoder@v1_0@opentimelineio@@@std@@@std@@SAXAEAV?$allocator@U_DictOrArray@CloningEncoder@v1_0@opentimelineio@@@1@QEAU_DictOrArray@CloningEncoder@v1_0@opentimelineio@@$$QEAU3456@@Z
	??$construct@U_DictOrArray@JSONDecoder@v1_0@opentimelineio@@AEAU1234@@?$_Default_allocator_traits@V?$allocator@U_DictOrArray@JSONDecoder@v1_0@opentimelineio@@@std@@@std@@SAXAEAV?$allocator@U_DictOrArray@JSONDecoder@v1_0@opentimelineio@@@1@QEAU_DictOrArray@JSONDecoder@v1_0@opentimelineio@@AEAU3456@@Z
	??$construct@U_DictOrArray@JSONDecoder@v1_0@opentimelineio@@U1234@@?$_Default_allocator_traits@V?$allocator@U_DictOrArray@JSONDecoder@v1_0@opentimelineio@@@std@@@std@@SAXAEAV?$allocator@U_DictOrArray@JSONDecoder@v1_0@opentimelineio@@@1@QEAU_DictOrArray@JSONDecoder@v1_0@opentimelineio@@$$QEAU3456@@Z
	??$construct@V?$basic_string@DU?$char_traits@D@std@@V?$allocator@D@2@@std@@@any@linb@@AEAAX$$QEAV?$basic_string@DU?$char_traits@D@std@@V?$allocator@D@2@@std@@@Z
	??$construct@VAnyDictionary@v1_0@opentimelineio@@@any@linb@@AEAAX$$QEAVAnyDictionary@v1_0@opentimelineio@@@Z
	??$construct@VAnyVector@v1_0@opentimelineio@@@any@linb@@AEAAX$$QEAVAnyVector@v1_0@opentimelineio@@@Z
	??$construct@VRationalTime@v1_0@opentime@@@any@linb@@AEAAX$$QEAVRationalTime@v1_0@opentime@@@Z
	??$construct@VTimeRange@v1_0@opentime@@@any@linb@@AEAAX$$QEAVTimeRange@v1_0@opentime@@@Z
	??$construct@VTimeTransform@v1_0@opentime@@@any@linb@@AEAAX$$QEAVTimeTransform@v1_0@opentime@@@Z
	??$construct@Vany@linb@@AEAV12@@?$_Default_allocator_traits@V?$allocator@Vany@linb@@@std@@@std@@SAXAEAV?$allocator@Vany@linb@@@1@QEAVany@linb@@AEAV34@@Z
	??$construct@Vany@linb@@V12@@?$_Default_allocator_traits@V?$allocator@Vany@linb@@@std@@@std@@SAXAEAV?$allocator@Vany@linb@@@1@QEAVany@linb@@$$QEAV34@@Z
	??$construct@_J@any@linb@@AEAAX$$QEA_J@Z
	??$destroy@PEAD@?$_Default_allocator_traits@V?$allocator@D@std@@@std@@SAXAEAV?$allocator@D@1@QEAPEAD@Z
	??$destroy@PEAU?$_Tree_node@PEAVComposable@v1_0@opentimelineio@@PEAX@std@@@?$_Default_allocator_traits@V?$allocator@U?$_Tree_node@PEAVComposable@v1_0@opentimelineio@@PEAX@std@@@std@@@std@@SAXAEAV?$allocator@U?$_Tree_node@PEAVComposable@v1_0@opentimelineio@@PEAX@std@@@1@QEAPEAU?$_Tree_node@PEAVComposable@v1_0@opentimelineio@@PEAX@1@@Z
	??$destroy@PEAU?$_Tree_node@PEBVComposition@v1_0@opentimelineio@@PEAX@std@@@?$_Default_allocator_traits@V?$allocator@U?$_Tree_node@PEBVComposition@v1_0@opentimelineio@@PEAX@std@@@std@@@std@@SAXAEAV?$allocator@U?$_Tree_node@PEBVComposition@v1_0@opentimelineio@@PEAX@std@@@1@QEAPEAU?$_Tree_node@PEBVComposition@v1_0@opentimelineio@@PEAX@1@@Z
	??$destroy@PEAU?$_Tree_node@U?$pair@$$CBHV?$function@$$A6AXPEAVAnyDictionary@v1_0@opentimelineio@@@Z@std@@@std@@PEAX@std@@@?$_Default_allocator_traits@V?$allocator@U?$_Tree_node@U?$pair@$$CBHV?$function@$$A6AXPEAVAnyDictionary@v1_0@opentimelineio@@@Z@std@@@std@@PEAX@std@@@std@@@std@@SAXAEAV?$allocator@U?$_Tree_node@U?$pair@$$CBHV?$function@$$A6AXPEAVAnyDictionary@v1_0@opentimelineio@@@Z@std@@@std@@PEAX@std@@@1@QEAPEAU?$_Tree_node@U?$pair@$$CBHV?$function@$$A6AXPEAVAnyDictionary@v1_0@opentimelineio@@@Z@std@@@std@@PEAX@1@@Z
	??$destroy@PEAU?$_Tree_node@U?$pair@$$CBV?$basic_string@DU?$char_traits@D@std@@V?$allocator@D@2@@std@@H@std@@PEAX@std@@@?$_Default_allocator_traits@V?$allocator@U?$_Tree_node@U?$pair@$$CBV?$basic_string@DU?$char_traits@D@std@@V?$allocator@D@2@@std@@H@std@@PEAX@std@@@std@@@std@@SAXAEAV?$allocator@U?$_Tree_node@U?$pair@$$CBV?$basic_string@DU?$char_traits@D@std@@V?$allocator@D@2@@std@@H@std@@PEAX@std@@@1@QEAPEAU?$_Tree_node@U?$pair@$$CBV?$basic_string@DU?$char_traits@D@std@@V?$allocator@D@2@@std@@H@std@@PEAX@1@@Z
	??$destroy@PEAU?$_Tree_node@U?$pair@$$CBV?$basic_string@DU?$char_traits@D@std@@V?$allocator@D@2@@std@@PEAVSerializableObject@v1_0@opentimelineio@@@std@@PEAX@std@@@?$_Default_allocator_traits@V?$allocator@U?$_Tree_node@U?$pair@$$CBV?$basic_string@DU?$char_traits@D@std@@V?$allocator@D@2@@std@@PEAVSerializableObject@v1_0@opentimelineio@@@std@@PEAX@std@@@std@@@std@@SAXAEAV?$allocator@U?$_Tree_node@U?$pair@$$CBV?$basic_string@DU?$char_traits@D@std@@V?$allocator@D@2@@std@@PEAVSerializableObject@v1_0@opentimelineio@@@std@@PEAX@std@@@1@QEAPEAU?$_Tree_node@U?$pair@$$CBV?$basic_string@DU?$char_traits@D@std@@V?$allocator@D@2@@std@@PEAVSerializableObject@v1_0@opentimelineio@@@std@@PEAX@1@@Z
	??$destroy@PEAU?$_Tree_node@U?$pair@$$CBV?$basic_string@DU?$char_traits@D@std@@V?$allocator@D@2@@std@@PEAV_TypeRecord@TypeRegistry@v1_0@opentimelineio@@@std@@PEAX@std@@@?$_Default_allocator_traits@V?$allocator@U?$_Tree_node@U?$pair@$$CBV?$basic_string@DU?$char_traits@D@std@@V?$allocator@D@2@@std@@PEAV_TypeRecord@TypeRegistry@v1_0@opentimelineio@@@std@@PEAX@std@@@std@@@std@@SAXAEAV?$allocator@U?$_Tree_node@U?$pair@$$CBV?$basic_string@DU?$char_traits@D@std@@V?$allocator@D@2@@std@@PEAV_TypeRecord@TypeRegistry@v1_0@opentimelineio@@@std@@PEAX@std@@@1@QEAPEAU?$_Tree_node@U?$pair@$$CBV?$basic_string@DU?$char_traits@D@std@@V?$allocator@D@2@@std@@PEAV_TypeRecord@TypeRegistry@v1_0@opentimelineio@@@std@@PEAX@1@@Z
	??$destroy@PEAU?$_Tree_node@U?$pair@$$CBV?$basic_string@DU?$char_traits@D@std@@V?$allocator@D@2@@std@@V?$function@$$A6AXAEBVany@linb@@@Z@2@@std@@PEAX@std@@@?$_Default_allocator_traits@V?$allocator@U?$_Tree_node@U?$pair@$$CBV?$basic_string@DU?$char_traits@D@std@@V?$allocator@D@2@@std@@V?$function@$$A6AXAEBVany@linb@@@Z@2@@std@@PEAX@std@@@std@@@std@@SAXAEAV?$allocator@U?$_Tree_node@U?$pair@$$CBV?$basic_string@DU?$char_traits@D@std@@V?$allocator@D@2@@std@@V?$function@$$A6AXAEBVany@linb@@@Z@2@@std@@PEAX@std@@@1@QEAPEAU?$_Tree_node@U?$pair@$$CBV?$basic_string@DU?$char_traits@D@std@@V?$allocator@D@2@@std@@V?$function@$$A6AXAEBVany@linb@@@Z@2@@std@@PEAX@1@@Z
	??$destroy@PEAU?$_Tree_node@U?$pair@$$CBV?$basic_string@DU?$char_traits@D@std@@V?$allocator@D@2@@std@@Vany@linb@@@std@@PEAX@std@@@?$_Default_allocator_traits@V?$allocator@U?$_Tree_node@U?$pair@$$CBV?$basic_string@DU?$char_traits@D@std@@V?$allocator@D@2@@std@@Vany@linb@@@std@@PEAX@std@@@std@@@std@@SAXAEAV?$allocator@U?$_Tree_node@U?$pair@$$CBV?$basic_string@DU?$char_traits@D@std@@V?$allocator@D@2@@std@@Vany@linb@@@std@@PEAX@std@@@1@QEAPEAU?$_Tree_node@U?$pair@$$CBV?$basic_string@DU?$char_traits@D@std@@V?$allocator@D@2@@std@@Vany@linb@@@std@@PEAX@1@@Z
	??$destroy@PEAU?$_Tree_node@U?$pair@QEAVComposable@v1_0@opentimelineio@@VTimeRange@2opentime@@@std@@PEAX@std@@@?$_Default_allocator_traits@V?$allocator@U?$_Tree_node@U?$pair@QEAVComposable@v1_0@opentimelineio@@VTimeRange@2opentime@@@std@@PEAX@std@@@std@@@std@@SAXAEAV?$allocator@U?$_Tree_node@U?$pair@QEAVComposable@v1_0@opentimelineio@@VTimeRange@2opentime@@@std@@PEAX@std@@@1@QEAPEAU?$_Tree_node@U?$pair@QEAVComposable@v1_0@opentimelineio@@VTimeRange@2opentime@@@std@@PEAX@1@@Z
	??$destroy@PEAU?$_Tree_node@U?$pair@QEAVSerializableObject@v1_0@opentimelineio@@H@std@@PEAX@std@@@?$_Default_allocator_traits@V?$allocator@U?$_Tree_node@U?$pair@QEAVSerializableObject@v1_0@opentimelineio@@H@std@@PEAX@std@@@std@@@std@@SAXAEAV?$allocator@U?$_Tree_node@U?$pair@QEAVSerializableObject@v1_0@opentimelineio@@H@std@@PEAX@std@@@1@QEAPEAU?$_Tree_node@U?$pair@QEAVSerializableObject@v1_0@opentimelineio@@H@std@@PEAX@1@@Z
	??$destroy@PEAU?$_Tree_node@U?$pair@QEAVSerializableObject@v1_0@opentimelineio@@VAnyDictionary@23@@std@@PEAX@std@@@?$_Default_allocator_traits@V?$allocator@U?$_Tree_node@U?$pair@QEAVSerializableObject@v1_0@opentimelineio@@VAnyDictionary@23@@std@@PEAX@std@@@std@@@std@@SAXAEAV?$allocator@U?$_Tree_node@U?$pair@QEAVSerializableObject@v1_0@opentimelineio@@VAnyDictionary@23@@std@@PEAX@std@@@1@QEAPEAU?$_Tree_node@U?$pair@QEAVSerializableObject@v1_0@opentimelineio@@VAnyDictionary@23@@std@@PEAX@1@@Z
	??$destroy@PEAU?$_Tree_node@U?$pair@QEAVTrack@v1_0@opentimelineio@@V?$map@PEAVComposable@v1_0@opentimelineio@@VTimeRange@2opentime@@U?$less@PEAVComposable@v1_0@opentimelineio@@@std@@V?$allocator@U?$pair@QEAVComposable@v1_0@opentimelineio@@VTimeRange@2opentime@@@std@@@7@@std@@@std@@PEAX@std@@@?$_Default_allocator_traits@V?$allocator@U?$_Tree_node@U?$pair@QEAVTrack@v1_0@opentimelineio@@V?$map@PEAVComposable@v1_0@opentimelineio@@VTimeRange@2opentime@@U?$less@PEAVComposable@v1_0@opentimelineio@@@std@@V?$allocator@U?$pair@QEAVComposable@v1_0@opentimelineio@@VTimeRange@2opentime@@@std@@@7@@std@@@std@@PEAX@std@@@std@@@std@@SAXAEAV?$allocator@U?$_Tree_node@U?$pair@QEAVTrack@v1_0@opentimelineio@@V?$map@PEAVComposable@v1_0@opentimelineio@@VTimeRange@2opentime@@U?$less@PEAVComposable@v1_0@opentimelineio@@@std@@V?$allocator@U?$pair@QEAVComposable@v1_0@opentimelineio@@VTimeRange@2opentime@@@std@@@7@@std@@@std@@PEAX@std@@@1@QEAPEAU?$_Tree_node@U?$pair@QEAVTrack@v1_0@opentimelineio@@V?$map@PEAVComposable@v1_0@opentimelineio@@VTimeRange@2opentime@@U?$less@PEAVComposable@v1_0@opentimelineio@@@std@@V?$allocator@U?$pair@QEAVComposable@v1_0@opentimelineio@@VTimeRange@2opentime@@@std@@@7@@std@@@std@@PEAX@1@@Z
	??$destroy@PEAU?$_Tree_node@U?$pair@QEBVSerializableObject@v1_0@opentimelineio@@V?$basic_string@DU?$char_traits@D@std@@V?$allocator@D@2@@std@@@std@@PEAX@std@@@?$_Default_allocator_traits@V?$allocator@U?$_Tree_node@U?$pair@QEBVSerializableObject@v1_0@opentimelineio@@V?$basic_string@DU?$char_traits@D@std@@V?$allocator@D@2@@std@@@std@@PEAX@std@@@std@@@std@@SAXAEAV?$allocator@U?$_Tree_node@U?$pair@QEBVSerializableObject@v1_0@opentimelineio@@V?$basic_string@DU?$char_traits@D@std@@V?$allocator@D@2@@std@@@std@@PEAX@std@@@1@QEAPEAU?$_Tree_node@U?$pair@QEBVSerializableObject@v1_0@opentimelineio@@V?$basic_string@DU?$char_traits@D@std@@V?$allocator@D@2@@std@@@std@@PEAX@1@@Z
	??$destroy@PEAU?$_Tree_node@U?$pair@QEBVtype_info@@V?$function@$$A6AXAEBVany@linb@@@Z@std@@@std@@PEAX@std@@@?$_Default_allocator_traits@V?$allocator@U?$_Tree_node@U?$pair@QEBVtype_info@@V?$function@$$A6AXAEBVany@linb@@@Z@std@@@std@@PEAX@std@@@std@@@std@@SAXAEAV?$allocator@U?$_Tree_node@U?$pair@QEBVtype_info@@V?$function@$$A6AXAEBVany@linb@@@Z@std@@@std@@PEAX@std@@@1@QEAPEAU?$_Tree_node@U?$pair@QEBVtype_info@@V?$function@$$A6AXAEBVany@linb@@@Z@std@@@std@@PEAX@1@@Z
	??$destroy@PEAU?$_Tree_node@U?$pair@QEBVtype_info@@V?$function@$$A6A_NAEBVany@linb@@0@Z@std@@@std@@PEAX@std@@@?$_Default_allocator_traits@V?$allocator@U?$_Tree_node@U?$pair@QEBVtype_info@@V?$function@$$A6A_NAEBVany@linb@@0@Z@std@@@std@@PEAX@std@@@std@@@std@@SAXAEAV?$allocator@U?$_Tree_node@U?$pair@QEBVtype_info@@V?$function@$$A6A_NAEBVany@linb@@0@Z@std@@@std@@PEAX@std@@@1@QEAPEAU?$_Tree_node@U?$pair@QEBVtype_info@@V?$function@$$A6A_NAEBVany@linb@@0@Z@std@@@std@@PEAX@1@@Z
	??$destroy@PEAVComposable@v1_0@opentimelineio@@@?$_Default_allocator_traits@V?$allocator@U?$_Tree_node@PEAVComposable@v1_0@opentimelineio@@PEAX@std@@@std@@@std@@SAXAEAV?$allocator@U?$_Tree_node@PEAVComposable@v1_0@opentimelineio@@PEAX@std@@@1@QEAPEAVComposable@v1_0@opentimelineio@@@Z
	??$destroy@PEBVComposition@v1_0@opentimelineio@@@?$_Default_allocator_traits@V?$allocator@U?$_Tree_node@PEBVComposition@v1_0@opentimelineio@@PEAX@std@@@std@@@std@@SAXAEAV?$allocator@U?$_Tree_node@PEBVComposition@v1_0@opentimelineio@@PEAX@std@@@1@QEAPEBVComposition@v1_0@opentimelineio@@@Z
	??$destroy@U?$Retainer@VComposable@v1_0@opentimelineio@@@SerializableObject@v1_0@opentimelineio@@@?$_Default_allocator_traits@V?$allocator@U?$Retainer@VComposable@v1_0@opentimelineio@@@SerializableObject@v1_0@opentimelineio@@@std@@@std@@SAXAEAV?$allocator@U?$Retainer@VComposable@v1_0@opentimelineio@@@SerializableObject@v1_0@opentimelineio@@@1@QEAU?$Retainer@VComposable@v1_0@opentimelineio@@@SerializableObject@v1_0@opentimelineio@@@Z
	??$destroy@U?$Retainer@VEffect@v1_0@opentimelineio@@@SerializableObject@v1_0@opentimelineio@@@?$_Default_allocator_traits@V?$allocator@U?$Retainer@VEffect@v1_0@opentimelineio@@@SerializableObject@v1_0@opentimelineio@@@std@@@std@@SAXAEAV?$allocator@U?$Retainer@VEffect@v1_0@opentimelineio@@@SerializableObject@v1_0@opentimelineio@@@1@QEAU?$Retainer@VEffect@v1_0@opentimelineio@@@SerializableObject@v1_0@opentimelineio@@@Z
	??$destroy@U?$Retainer@VMarker@v1_0@opentimelineio@@@SerializableObject@v1_0@opentimelineio@@@?$_Default_allocator_traits@V?$allocator@U?$Retainer@VMarker@v1_0@opentimelineio@@@SerializableObject@v1_0@opentimelineio@@@std@@@std@@SAXAEAV?$allocator@U?$Retainer@VMarker@v1_0@opentimelineio@@@SerializableObject@v1_0@opentimelineio@@@1@QEAU?$Retainer@VMarker@v1_0@opentimelineio@@@SerializableObject@v1_0@opentimelineio@@@Z
	??$destroy@U?$Retainer@VSerializableObject@v1_0@opentimelineio@@@SerializableObject@v1_0@opentimelineio@@@?$_Default_allocator_traits@V?$allocator@U?$Retainer@VSerializableObject@v1_0@opentimelineio@@@SerializableObject@v1_0@opentimelineio@@@std@@@std@@SAXAEAV?$allocator@U?$Retainer@VSerializableObject@v1_0@opentimelineio@@@SerializableObject@v1_0@opentimelineio@@@1@QEAU?$Retainer@VSerializableObject@v1_0@opentimelineio@@@SerializableObject@v1_0@opentimelineio@@@Z
	??$destroy@U?$pair@$$CBHV?$function@$$A6AXPEAVAnyDictionary@v1_0@opentimelineio@@@Z@std@@@std@@@?$_Default_allocator_traits@V?$allocator@U?$_Tree_node@U?$pair@$$CBHV?$function@$$A6AXPEAVAnyDictionary@v1_0@opentimelineio@@@Z@std@@@std@@PEAX@std@@@std@@@std@@SAXAEAV?$allocator@U?$_Tree_node@U?$pair@$$CBHV?$function@$$A6AXPEAVAnyDictionary@v1_0@opentimelineio@@@Z@std@@@std@@PEAX@std@@@1@QEAU?$pair@$$CBHV?$function@$$A6AXPEAVAnyDictionary@v1_0@opentimelineio@@@Z@std@@@1@@Z
	??$destroy@U?$pair@$$CBV?$basic_string@DU?$char_traits@D@std@@V?$allocator@D@2@@std@@H@std@@@?$_Default_allocator_traits@V?$allocator@U?$_Tree_node@U?$pair@$$CBV?$basic_string@DU?$char_traits@D@std@@V?$allocator@D@2@@std@@H@std@@PEAX@std@@@std@@@std@@SAXAEAV?$allocator@U?$_Tree_node@U?$pair@$$CBV?$basic_string@DU?$char_traits@D@std@@V?$allocator@D@2@@std@@H@std@@PEAX@std@@@1@QEAU?$pair@$$CBV?$basic_string@DU?$char_traits@D@std@@V?$allocator@D@2@@std@@H@1@@Z
	??$destroy@U?$pair@$$CBV?$basic_string@DU?$char_traits@D@std@@V?$allocator@D@2@@std@@PEAVSerializableObject@v1_0@opentimelineio@@@std@@@?$_Default_allocator_traits@V?$allocator@U?$_Tree_node@U?$pair@$$CBV?$basic_string@DU?$char_traits@D@std@@V?$allocator@D@2@@std@@PEAVSerializableObject@v1_0@opentimelineio@@@std@@PEAX@std@@@std@@@std@@SAXAEAV?$allocator@U?$_Tree_node@U?$pair@$$CBV?$basic_string@DU?$char_traits@D@std@@V?$allocator@D@2@@std@@PEAVSerializableObject@v1_0@opentimelineio@@@std@@PEAX@std@@@1@QEAU?$pair@$$CBV?$basic_string@DU?$char_traits@D@std@@V?$allocator@D@2@@std@@PEAVSerializableObject@v1_0@opentimelineio@@@1@@Z
	??$destroy@U?$pair@$$CBV?$basic_string@DU?$char_traits@D@std@@V?$allocator@D@2@@std@@PEAV_TypeRecord@TypeRegistry@v1_0@opentimelineio@@@std@@@?$_Default_allocator_traits@V?$allocator@U?$_Tree_node@U?$pair@$$CBV?$basic_string@DU?$char_traits@D@std@@V?$allocator@D@2@@std@@PEAV_TypeRecord@TypeRegistry@v1_0@opentimelineio@@@std@@PEAX@std@@@std@@@std@@SAXAEAV?$allocator@U?$_Tree_node@U?$pair@$$CBV?$basic_string@DU?$char_traits@D@std@@V?$allocator@D@2@@std@@PEAV_TypeRecord@TypeRegistry@v1_0@opentimelineio@@@std@@PEAX@std@@@1@QEAU?$pair@$$CBV?$basic_string@DU?$char_traits@D@std@@V?$allocator@D@2@@std@@PEAV_TypeRecord@TypeRegistry@v1_0@opentimelineio@@@1@@Z
	??$destroy@U?$pair@$$CBV?$basic_string@DU?$char_traits@D@std@@V?$allocator@D@2@@std@@V?$function@$$A6AXAEBVany@linb@@@Z@2@@std@@@?$_Default_allocator_traits@V?$allocator@U?$_Tree_node@U?$pair@$$CBV?$basic_string@DU?$char_traits@D@std@@V?$allocator@D@2@@std@@V?$function@$$A6AXAEBVany@linb@@@Z@2@@std@@PEAX@std@@@std@@@std@@SAXAEAV?$allocator@U?$_Tree_node@U?$pair@$$CBV?$basic_string@DU?$char_traits@D@std@@V?$allocator@D@2@@std@@V?$function@$$A6AXAEBVany@linb@@@Z@2@@std@@PEAX@std@@@1@QEAU?$pair@$$CBV?$basic_string@DU?$char_traits@D@std@@V?$allocator@D@2@@std@@V?$function@$$A6AXAEBVany@linb@@@Z@2@@1@@Z
	??$destroy@U?$pair@$$CBV?$basic_string@DU?$char_traits@D@std@@V?$allocator@D@2@@std@@Vany@linb@@@std@@@?$_Default_allocator_traits@V?$allocator@U?$_Tree_node@U?$pair@$$CBV?$basic_string@DU?$char_traits@D@std@@V?$allocator@D@2@@std@@Vany@linb@@@std@@PEAX@std@@@std@@@std@@SAXAEAV?$allocator@U?$_Tree_node@U?$pair@$$CBV?$basic_string@DU?$char_traits@D@std@@V?$allocator@D@2@@std@@Vany@linb@@@std@@PEAX@std@@@1@QEAU?$pair@$$CBV?$basic_string@DU?$char_traits@D@std@@V?$allocator@D@2@@std@@Vany@linb@@@1@@Z
	??$destroy@U?$pair@QEAVComposable@v1_0@opentimelineio@@VTimeRange@2opentime@@@std@@@?$_Default_allocator_traits@V?$allocator@U?$_Tree_node@U?$pair@QEAVComposable@v1_0@opentimelineio@@VTimeRange@2opentime@@@std@@PEAX@std@@@std@@@std@@SAXAEAV?$allocator@U?$_Tree_node@U?$pair@QEAVComposable@v1_0@opentimelineio@@VTimeRange@2opentime@@@std@@PEAX@std@@@1@QEAU?$pair@QEAVComposable@v1_0@opentimelineio@@VTimeRange@2opentime@@@1@@Z
	??$destroy@U?$pair@QEAVSerializableObject@v1_0@opentimelineio@@H@std@@@?$_Default_allocator_traits@V?$allocator@U?$_Tree_node@U?$pair@QEAVSerializableObject@v1_0@opentimelineio@@H@std@@PEAX@std@@@std@@@std@@SAXAEAV?$allocator@U?$_Tree_node@U?$pair@QEAVSerializableObject@v1_0@opentimelineio@@H@std@@PEAX@std@@@1@QEAU?$pair@QEAVSerializableObject@v1_0@opentimelineio@@H@1@@Z
	??$destroy@U?$pair@QEAVSerializableObject@v1_0@opentimelineio@@VAnyDictionary@23@@std@@@?$_Default_allocator_traits@V?$allocator@U?$_Tree_node@U?$pair@QEAVSerializableObject@v1_0@opentimelineio@@VAnyDictionary@23@@std@@PEAX@std@@@std@@@std@@SAXAEAV?$allocator@U?$_Tree_node@U?$pair@QEAVSerializableObject@v1_0@opentimelineio@@VAnyDictionary@23@@std@@PEAX@std@@@1@QEAU?$pair@QEAVSerializableObject@v1_0@opentimelineio@@VAnyDictionary@23@@1@@Z
	??$destroy@U?$pair@QEAVTrack@v1_0@opentimelineio@@V?$map@PEAVComposable@v1_0@opentimelineio@@VTimeRange@2opentime@@U?$less@PEAVComposable@v1_0@opentimelineio@@@std@@V?$allocator@U?$pair@QEAVComposable@v1_0@opentimelineio@@VTimeRange@2opentime@@@std@@@7@@std@@@std@@@?$_Default_allocator_traits@V?$allocator@U?$_Tree_node@U?$pair@QEAVTrack@v1_0@opentimelineio@@V?$map@PEAVComposable@v1_0@opentimelineio@@VTimeRange@2opentime@@U?$less@PEAVComposable@v1_0@opentimelineio@@@std@@V?$allocator@U?$pair@QEAVComposable@v1_0@opentimelineio@@VTimeRange@2opentime@@@std@@@7@@std@@@std@@PEAX@std@@@std@@@std@@SAXAEAV?$allocator@U?$_Tree_node@U?$pair@QEAVTrack@v1_0@opentimelineio@@V?$map@PEAVComposable@v1_0@opentimelineio@@VTimeRange@2opentime@@U?$less@PEAVComposable@v1_0@opentimelineio@@@std@@V?$allocator@U?$pair@QEAVComposable@v1_0@opentimelineio@@VTimeRange@2opentime@@@std@@@7@@std@@@std@@PEAX@std@@@1@QEAU?$pair@QEAVTrack@v1_0@opentimelineio@@V?$map@PEAVComposable@v1_0@opentimelineio@@VTimeRange@2opentime@@U?$less@PEAVComposable@v1_0@opentimelineio@@@std@@V?$allocator@U?$pair@QEAVComposable@v1_0@opentimelineio@@VTimeRange@2opentime@@@std@@@7@@std@@@1@@Z
	??$destroy@U?$pair@QEBVSerializableObject@v1_0@opentimelineio@@V?$basic_string@DU?$char_traits@D@std@@V?$allocator@D@2@@std@@@std@@@?$_Default_allocator_traits@V?$allocator@U?$_Tree_node@U?$pair@QEBVSerializableObject@v1_0@opentimelineio@@V?$basic_string@DU?$char_traits@D@std@@V?$allocator@D@2@@std@@@std@@PEAX@std@@@std@@@std@@SAXAEAV?$allocator@U?$_Tree_node@U?$pair@QEBVSerializableObject@v1_0@opentimelineio@@V?$basic_string@DU?$char_traits@D@std@@V?$allocator@D@2@@std@@@std@@PEAX@std@@@1@QEAU?$pair@QEBVSerializableObject@v1_0@opentimelineio@@V?$basic_string@DU?$char_traits@D@std@@V?$allocator@D@2@@std@@@1@@Z
	??$destroy@U?$pair@QEBVtype_info@@V?$function@$$A6AXAEBVany@linb@@@Z@std@@@std@@@?$_Default_allocator_traits@V?$allocator@U?$_Tree_node@U?$pair@QEBVtype_info@@V?$function@$$A6AXAEBVany@linb@@@Z@std@@@std@@PEAX@std@@@std@@@std@@SAXAEAV?$allocator@U?$_Tree_node@U?$pair@QEBVtype_info@@V?$function@$$A6AXAEBVany@linb@@@Z@std@@@std@@PEAX@std@@@1@QEAU?$pair@QEBVtype_info@@V?$function@$$A6AXAEBVany@linb@@@Z@std@@@1@@Z
	??$destroy@U?$pair@QEBVtype_info@@V?$function@$$A6A_NAEBVany@linb@@0@Z@std@@@std@@@?$_Default_allocator_traits@V?$allocator@U?$_Tree_node@U?$pair@QEBVtype_info@@V?$function@$$A6A_NAEBVany@linb@@0@Z@std@@@std@@PEAX@std@@@std@@@std@@SAXAEAV?$allocator@U?$_Tree_node@U?$pair@QEBVtype_info@@V?$function@$$A6A_NAEBVany@linb@@0@Z@std@@@std@@PEAX@std@@@1@QEAU?$pair@QEBVtype_info@@V?$function@$$A6A_NAEBVany@linb@@0@Z@std@@@1@@Z
	??$destroy@U_DictOrArray@CloningEncoder@v1_0@opentimelineio@@@?$_Default_allocator_traits@V?$allocator@U_DictOrArray@CloningEncoder@v1_0@opentimelineio@@@std@@@std@@SAXAEAV?$allocator@U_DictOrArray@CloningEncoder@v1_0@opentimelineio@@@1@QEAU_DictOrArray@CloningEncoder@v1_0@opentimelineio@@@Z
	??$destroy@U_DictOrArray@JSONDecoder@v1_0@opentimelineio@@@?$_Default_allocator_traits@V?$allocator@U_DictOrArray@JSONDecoder@v1_0@opentimelineio@@@std@@@std@@SAXAEAV?$allocator@U_DictOrArray@JSONDecoder@v1_0@opentimelineio@@@1@QEAU_DictOrArray@JSONDecoder@v1_0@opentimelineio@@@Z
	??$destroy@Vany@linb@@@?$_Default_allocator_traits@V?$allocator@Vany@linb@@@std@@@std@@SAXAEAV?$allocator@Vany@linb@@@1@QEAVany@linb@@@Z
	??$distance@PEAPEAVSerializableObject@v1_0@opentimelineio@@@std@@YA_JPEAPEAVSerializableObject@v1_0@opentimelineio@@0@Z
	??$distance@PEAVany@linb@@@std@@YA_JPEAVany@linb@@0@Z
	??$distance@PEBQEAVComposable@v1_0@opentimelineio@@@std@@YA_JPEBQEAVComposable@v1_0@opentimelineio@@0@Z
	??$distance@PEBQEAVComposition@v1_0@opentimelineio@@@std@@YA_JPEBQEAVComposition@v1_0@opentimelineio@@0@Z
	??$distance@PEBQEAVEffect@v1_0@opentimelineio@@@std@@YA_JPEBQEAVEffect@v1_0@opentimelineio@@0@Z
	??$distance@PEBQEAVMarker@v1_0@opentimelineio@@@std@@YA_JPEBQEAVMarker@v1_0@opentimelineio@@0@Z
	??$distance@PEBQEAVSerializableObject@v1_0@opentimelineio@@@std@@YA_JPEBQEAVSerializableObject@v1_0@opentimelineio@@0@Z
	??$distance@PEBU?$Retainer@VComposable@v1_0@opentimelineio@@@SerializableObject@v1_0@opentimelineio@@@std@@YA_JPEBU?$Retainer@VComposable@v1_0@opentimelineio@@@SerializableObject@v1_0@opentimelineio@@0@Z
	??$distance@V?$_Tree_const_iterator@V?$_Tree_val@U?$_Tree_simple_types@PEAVComposable@v1_0@opentimelineio@@@std@@@std@@@std@@@std@@YA_JV?$_Tree_const_iterator@V?$_Tree_val@U?$_Tree_simple_types@PEAVComposable@v1_0@opentimelineio@@@std@@@std@@@0@0@Z
	??$distance@V?$_Tree_const_iterator@V?$_Tree_val@U?$_Tree_simple_types@PEBVComposition@v1_0@opentimelineio@@@std@@@std@@@std@@@std@@YA_JV?$_Tree_const_iterator@V?$_Tree_val@U?$_Tree_simple_types@PEBVComposition@v1_0@opentimelineio@@@std@@@std@@@0@0@Z
	??$distance@V?$_Tree_iterator@V?$_Tree_val@U?$_Tree_simple_types@U?$pair@$$CBV?$basic_string@DU?$char_traits@D@std@@V?$allocator@D@2@@std@@Vany@linb@@@std@@@std@@@std@@@std@@@std@@YA_JV?$_Tree_iterator@V?$_Tree_val@U?$_Tree_simple_types@U?$pair@$$CBV?$basic_string@DU?$char_traits@D@std@@V?$allocator@D@2@@std@@Vany@linb@@@std@@@std@@@std@@@0@0@Z
	??$distance@V?$_Tree_iterator@V?$_Tree_val@U?$_Tree_simple_types@U?$pair@QEAVTrack@v1_0@opentimelineio@@V?$map@PEAVComposable@v1_0@opentimelineio@@VTimeRange@2opentime@@U?$less@PEAVComposable@v1_0@opentimelineio@@@std@@V?$allocator@U?$pair@QEAVComposable@v1_0@opentimelineio@@VTimeRange@2opentime@@@std@@@7@@std@@@std@@@std@@@std@@@std@@@std@@YA_JV?$_Tree_iterator@V?$_Tree_val@U?$_Tree_simple_types@U?$pair@QEAVTrack@v1_0@opentimelineio@@V?$map@PEAVComposable@v1_0@opentimelineio@@VTimeRange@2opentime@@U?$less@PEAVComposable@v1_0@opentimelineio@@@std@@V?$allocator@U?$pair@QEAVComposable@v1_0@opentimelineio@@VTimeRange@2opentime@@@std@@@7@@std@@@std@@@std@@@std@@@0@0@Z
	??$do_construct@AEAHH@any@linb@@AEAAXAEAH@Z
	??$do_construct@AEANN@any@linb@@AEAAXAEAN@Z
	??$do_construct@AEAUReferenceId@SerializableObject@v1_0@opentimelineio@@U1234@@any@linb@@AEAAXAEAUReferenceId@SerializableObject@v1_0@opentimelineio@@@Z
	??$do_construct@AEAV?$basic_string@DU?$char_traits@D@std@@V?$allocator@D@2@@std@@V12@@any@linb@@AEAAXAEAV?$basic_string@DU?$char_traits@D@std@@V?$allocator@D@2@@std@@@Z
	??$do_construct@AEAVRationalTime@v1_0@opentime@@V123@@any@linb@@AEAAXAEAVRationalTime@v1_0@opentime@@@Z
	??$do_construct@AEAVTimeRange@v1_0@opentime@@V123@@any@linb@@AEAAXAEAVTimeRange@v1_0@opentime@@@Z
	??$do_construct@AEAVTimeTransform@v1_0@opentime@@V123@@any@linb@@AEAAXAEAVTimeTransform@v1_0@opentime@@@Z
	??$do_construct@AEA_J_J@any@linb@@AEAAXAEA_J@Z
	??$do_construct@AEA_N_N@any@linb@@AEAAXAEA_N@Z
	??$do_construct@AEBV?$basic_string@DU?$char_traits@D@std@@V?$allocator@D@2@@std@@V12@@any@linb@@AEAAXAEBV?$basic_string@DU?$char_traits@D@std@@V?$allocator@D@2@@std@@@Z
	??$do_construct@AEBVRationalTime@v1_0@opentime@@V123@@any@linb@@AEAAXAEBVRationalTime@v1_0@opentime@@@Z
	??$do_construct@AEBVTimeRange@v1_0@opentime@@V123@@any@linb@@AEAAXAEBVTimeRange@v1_0@opentime@@@Z
	??$do_construct@AEBVTimeTransform@v1_0@opentime@@V123@@any@linb@@AEAAXAEBVTimeTransform@v1_0@opentime@@@Z
	??$do_construct@HH@any@linb@@AEAAX$$QEAH@Z
	??$do_construct@U?$Retainer@VSerializableObject@v1_0@opentimelineio@@@SerializableObject@v1_0@opentimelineio@@U1234@@any@linb@@AEAAX$$QEAU?$Retainer@VSerializableObject@v1_0@opentimelineio@@@SerializableObject@v1_0@opentimelineio@@@Z
	??$do_construct@UReferenceId@SerializableObject@v1_0@opentimelineio@@U1234@@any@linb@@AEAAX$$QEAUReferenceId@SerializableObject@v1_0@opentimelineio@@@Z
	??$do_construct@V?$basic_string@DU?$char_traits@D@std@@V?$allocator@D@2@@std@@V12@@any@linb@@AEAAX$$QEAV?$basic_string@DU?$char_traits@D@std@@V?$allocator@D@2@@std@@@Z
	??$do_construct@VAnyDictionary@v1_0@opentimelineio@@V123@@any@linb@@AEAAX$$QEAVAnyDictionary@v1_0@opentimelineio@@@Z
	??$do_construct@VAnyVector@v1_0@opentimelineio@@V123@@any@linb@@AEAAX$$QEAVAnyVector@v1_0@opentimelineio@@@Z
	??$do_construct@VRationalTime@v1_0@opentime@@V123@@any@linb@@AEAAX$$QEAVRationalTime@v1_0@opentime@@@Z
	??$do_construct@VTimeRange@v1_0@opentime@@V123@@any@linb@@AEAAX$$QEAVTimeRange@v1_0@opentime@@@Z
	??$do_construct@VTimeTransform@v1_0@opentime@@V123@@any@linb@@AEAAX$$QEAVTimeTransform@v1_0@opentime@@@Z
	??$do_construct@_J_J@any@linb@@AEAAX$$QEA_J@Z
	??$emplace@AEAPEAVSerializableObject@v1_0@opentimelineio@@VAnyDictionary@23@@?$_Tree@V?$_Tmap_traits@PEAVSerializableObject@v1_0@opentimelineio@@VAnyDictionary@23@U?$less@PEAVSerializableObject@v1_0@opentimelineio@@@std@@V?$allocator@U?$pair@QEAVSerializableObject@v1_0@opentimelineio@@VAnyDictionary@23@@std@@@6@$0A@@std@@@std@@QEAA?AU?$pair@V?$_Tree_iterator@V?$_Tree_val@U?$_Tree_simple_types@U?$pair@QEAVSerializableObject@v1_0@opentimelineio@@VAnyDictionary@23@@std@@@std@@@std@@@std@@_N@1@AEAPEAVSerializableObject@v1_0@opentimelineio@@$$QEAVAnyDictionary@45@@Z
	??$emplace@AEAPEAVTrack@v1_0@opentimelineio@@V?$map@PEAVComposable@v1_0@opentimelineio@@VTimeRange@2opentime@@U?$less@PEAVComposable@v1_0@opentimelineio@@@std@@V?$allocator@U?$pair@QEAVComposable@v1_0@opentimelineio@@VTimeRange@2opentime@@@std@@@7@@std@@@?$_Tree@V?$_Tmap_traits@PEAVTrack@v1_0@opentimelineio@@V?$map@PEAVComposable@v1_0@opentimelineio@@VTimeRange@2opentime@@U?$less@PEAVComposable@v1_0@opentimelineio@@@std@@V?$allocator@U?$pair@QEAVComposable@v1_0@opentimelineio@@VTimeRange@2opentime@@@std@@@7@@std@@U?$less@PEAVTrack@v1_0@opentimelineio@@@5@V?$allocator@U?$pair@QEAVTrack@v1_0@opentimelineio@@V?$map@PEAVComposable@v1_0@opentimelineio@@VTimeRange@2opentime@@U?$less@PEAVComposable@v1_0@opentimelineio@@@std@@V?$allocator@U?$pair@QEAVComposable@v1_0@opentimelineio@@VTimeRange@2opentime@@@std@@@7@@std@@@std@@@5@$0A@@std@@@std@@QEAA?AU?$pair@V?$_Tree_iterator@V?$_Tree_val@U?$_Tree_simple_types@U?$pair@QEAVTrack@v1_0@opentimelineio@@V?$map@PEAVComposable@v1_0@opentimelineio@@VTimeRange@2opentime@@U?$less@PEAVComposable@v1_0@opentimelineio@@@std@@V?$allocator@U?$pair@QEAVComposable@v1_0@opentimelineio@@VTimeRange@2opentime@@@std@@@7@@std@@@std@@@std@@@std@@@std@@_N@1@AEAPEAVTrack@v1_0@opentimelineio@@$$QEAV?$map@PEAVComposable@v1_0@opentimelineio@@VTimeRange@2opentime@@U?$less@PEAVComposable@v1_0@opentimelineio@@@std@@V?$allocator@U?$pair@QEAVComposable@v1_0@opentimelineio@@VTimeRange@2opentime@@@std@@@7@@1@@Z
	??$emplace@AEAV?$basic_string@DU?$char_traits@D@std@@V?$allocator@D@2@@std@@AEAVany@linb@@@?$_Tree@V?$_Tmap_traits@V?$basic_string@DU?$char_traits@D@std@@V?$allocator@D@2@@std@@Vany@linb@@U?$less@V?$basic_string@DU?$char_traits@D@std@@V?$allocator@D@2@@std@@@2@V?$allocator@U?$pair@$$CBV?$basic_string@DU?$char_traits@D@std@@V?$allocator@D@2@@std@@Vany@linb@@@std@@@2@$0A@@std@@@std@@QEAA?AU?$pair@V?$_Tree_iterator@V?$_Tree_val@U?$_Tree_simple_types@U?$pair@$$CBV?$basic_string@DU?$char_traits@D@std@@V?$allocator@D@2@@std@@Vany@linb@@@std@@@std@@@std@@@std@@_N@1@AEAV?$basic_string@DU?$char_traits@D@std@@V?$allocator@D@2@@1@AEAVany@linb@@@Z
	??$emplace@AEBV?$basic_string@DU?$char_traits@D@std@@V?$allocator@D@2@@std@@Vany@linb@@@?$_Tree@V?$_Tmap_traits@V?$basic_string@DU?$char_traits@D@std@@V?$allocator@D@2@@std@@Vany@linb@@U?$less@V?$basic_string@DU?$char_traits@D@std@@V?$allocator@D@2@@std@@@2@V?$allocator@U?$pair@$$CBV?$basic_string@DU?$char_traits@D@std@@V?$allocator@D@2@@std@@Vany@linb@@@std@@@2@$0A@@std@@@std@@QEAA?AU?$pair@V?$_Tree_iterator@V?$_Tree_val@U?$_Tree_simple_types@U?$pair@$$CBV?$basic_string@DU?$char_traits@D@std@@V?$allocator@D@2@@std@@Vany@linb@@@std@@@std@@@std@@@std@@_N@1@AEBV?$basic_string@DU?$char_traits@D@std@@V?$allocator@D@2@@1@$$QEAVany@linb@@@Z
	??$emplace@U?$Retainer@VComposable@v1_0@opentimelineio@@@SerializableObject@v1_0@opentimelineio@@@?$vector@U?$Retainer@VComposable@v1_0@opentimelineio@@@SerializableObject@v1_0@opentimelineio@@V?$allocator@U?$Retainer@VComposable@v1_0@opentimelineio@@@SerializableObject@v1_0@opentimelineio@@@std@@@std@@QEAA?AV?$_Vector_iterator@V?$_Vector_val@U?$_Simple_types@U?$Retainer@VComposable@v1_0@opentimelineio@@@SerializableObject@v1_0@opentimelineio@@@std@@@std@@@1@V?$_Vector_const_iterator@V?$_Vector_val@U?$_Simple_types@U?$Retainer@VComposable@v1_0@opentimelineio@@@SerializableObject@v1_0@opentimelineio@@@std@@@std@@@1@$$QEAU?$Retainer@VComposable@v1_0@opentimelineio@@@SerializableObject@v1_0@opentimelineio@@@Z
	??$emplace@U?$Retainer@VSerializableObject@v1_0@opentimelineio@@@SerializableObject@v1_0@opentimelineio@@@?$vector@U?$Retainer@VSerializableObject@v1_0@opentimelineio@@@SerializableObject@v1_0@opentimelineio@@V?$allocator@U?$Retainer@VSerializableObject@v1_0@opentimelineio@@@SerializableObject@v1_0@opentimelineio@@@std@@@std@@QEAA?AV?$_Vector_iterator@V?$_Vector_val@U?$_Simple_types@U?$Retainer@VSerializableObject@v1_0@opentimelineio@@@SerializableObject@v1_0@opentimelineio@@@std@@@std@@@1@V?$_Vector_const_iterator@V?$_Vector_val@U?$_Simple_types@U?$Retainer@VSerializableObject@v1_0@opentimelineio@@@SerializableObject@v1_0@opentimelineio@@@std@@@std@@@1@$$QEAU?$Retainer@VSerializableObject@v1_0@opentimelineio@@@SerializableObject@v1_0@opentimelineio@@@Z
	??$emplace_back@AEAPEAVComposable@v1_0@opentimelineio@@@?$vector@U?$Retainer@VComposable@v1_0@opentimelineio@@@SerializableObject@v1_0@opentimelineio@@V?$allocator@U?$Retainer@VComposable@v1_0@opentimelineio@@@SerializableObject@v1_0@opentimelineio@@@std@@@std@@QEAAXAEAPEAVComposable@v1_0@opentimelineio@@@Z
	??$emplace_back@AEAPEAVSerializableObject@v1_0@opentimelineio@@@?$vector@U?$Retainer@VSerializableObject@v1_0@opentimelineio@@@SerializableObject@v1_0@opentimelineio@@V?$allocator@U?$Retainer@VSerializableObject@v1_0@opentimelineio@@@SerializableObject@v1_0@opentimelineio@@@std@@@std@@QEAAXAEAPEAVSerializableObject@v1_0@opentimelineio@@@Z
	??$emplace_back@AEAU?$Retainer@VComposable@v1_0@opentimelineio@@@SerializableObject@v1_0@opentimelineio@@@?$vector@U?$Retainer@VComposable@v1_0@opentimelineio@@@SerializableObject@v1_0@opentimelineio@@V?$allocator@U?$Retainer@VComposable@v1_0@opentimelineio@@@SerializableObject@v1_0@opentimelineio@@@std@@@std@@QEAAXAEAU?$Retainer@VComposable@v1_0@opentimelineio@@@SerializableObject@v1_0@opentimelineio@@@Z
	??$emplace_back@AEAU?$Retainer@VEffect@v1_0@opentimelineio@@@SerializableObject@v1_0@opentimelineio@@@?$vector@U?$Retainer@VEffect@v1_0@opentimelineio@@@SerializableObject@v1_0@opentimelineio@@V?$allocator@U?$Retainer@VEffect@v1_0@opentimelineio@@@SerializableObject@v1_0@opentimelineio@@@std@@@std@@QEAAXAEAU?$Retainer@VEffect@v1_0@opentimelineio@@@SerializableObject@v1_0@opentimelineio@@@Z
	??$emplace_back@AEAU?$Retainer@VMarker@v1_0@opentimelineio@@@SerializableObject@v1_0@opentimelineio@@@?$vector@U?$Retainer@VMarker@v1_0@opentimelineio@@@SerializableObject@v1_0@opentimelineio@@V?$allocator@U?$Retainer@VMarker@v1_0@opentimelineio@@@SerializableObject@v1_0@opentimelineio@@@std@@@std@@QEAAXAEAU?$Retainer@VMarker@v1_0@opentimelineio@@@SerializableObject@v1_0@opentimelineio@@@Z
	??$emplace_back@AEAU?$Retainer@VSerializableObject@v1_0@opentimelineio@@@SerializableObject@v1_0@opentimelineio@@@?$vector@U?$Retainer@VSerializableObject@v1_0@opentimelineio@@@SerializableObject@v1_0@opentimelineio@@V?$allocator@U?$Retainer@VSerializableObject@v1_0@opentimelineio@@@SerializableObject@v1_0@opentimelineio@@@std@@@std@@QEAAXAEAU?$Retainer@VSerializableObject@v1_0@opentimelineio@@@SerializableObject@v1_0@opentimelineio@@@Z
	??$emplace_back@AEAVany@linb@@@?$vector@Vany@linb@@V?$allocator@Vany@linb@@@std@@@std@@QEAAXAEAVany@linb@@@Z
	??$emplace_back@AEBQEAVComposable@v1_0@opentimelineio@@@?$vector@PEAVComposable@v1_0@opentimelineio@@V?$allocator@PEAVComposable@v1_0@opentimelineio@@@std@@@std@@QEAAXAEBQEAVComposable@v1_0@opentimelineio@@@Z
	??$emplace_back@AEBQEAVComposition@v1_0@opentimelineio@@@?$vector@PEAVComposition@v1_0@opentimelineio@@V?$allocator@PEAVComposition@v1_0@opentimelineio@@@std@@@std@@QEAAXAEBQEAVComposition@v1_0@opentimelineio@@@Z
	??$emplace_back@AEBQEAVTrack@v1_0@opentimelineio@@@?$vector@PEAVTrack@v1_0@opentimelineio@@V?$allocator@PEAVTrack@v1_0@opentimelineio@@@std@@@std@@QEAAXAEBQEAVTrack@v1_0@opentimelineio@@@Z
	??$emplace_back@U_DictOrArray@CloningEncoder@v1_0@opentimelineio@@@?$vector@U_DictOrArray@CloningEncoder@v1_0@opentimelineio@@V?$allocator@U_DictOrArray@CloningEncoder@v1_0@opentimelineio@@@std@@@std@@QEAAX$$QEAU_DictOrArray@CloningEncoder@v1_0@opentimelineio@@@Z
	??$emplace_back@U_DictOrArray@JSONDecoder@v1_0@opentimelineio@@@?$vector@U_DictOrArray@JSONDecoder@v1_0@opentimelineio@@V?$allocator@U_DictOrArray@JSONDecoder@v1_0@opentimelineio@@@std@@@std@@QEAAX$$QEAU_DictOrArray@JSONDecoder@v1_0@opentimelineio@@@Z
	??$emplace_back@Vany@linb@@@?$vector@Vany@linb@@V?$allocator@Vany@linb@@@std@@@std@@QEAAX$$QEAVany@linb@@@Z
	??$emplace_hint@AEBQEAVComposable@v1_0@opentimelineio@@@?$_Tree@V?$_Tset_traits@PEAVComposable@v1_0@opentimelineio@@U?$less@PEAVComposable@v1_0@opentimelineio@@@std@@V?$allocator@PEAVComposable@v1_0@opentimelineio@@@5@$0A@@std@@@std@@QEAA?AV?$_Tree_const_iterator@V?$_Tree_val@U?$_Tree_simple_types@PEAVComposable@v1_0@opentimelineio@@@std@@@std@@@1@V21@AEBQEAVComposable@v1_0@opentimelineio@@@Z
	??$emplace_hint@AEBUpiecewise_construct_t@std@@V?$tuple@$$QEAPEAVComposable@v1_0@opentimelineio@@@2@V?$tuple@$$V@2@@?$_Tree@V?$_Tmap_traits@PEAVComposable@v1_0@opentimelineio@@VTimeRange@2opentime@@U?$less@PEAVComposable@v1_0@opentimelineio@@@std@@V?$allocator@U?$pair@QEAVComposable@v1_0@opentimelineio@@VTimeRange@2opentime@@@std@@@7@$0A@@std@@@std@@QEAA?AV?$_Tree_iterator@V?$_Tree_val@U?$_Tree_simple_types@U?$pair@QEAVComposable@v1_0@opentimelineio@@VTimeRange@2opentime@@@std@@@std@@@std@@@1@V?$_Tree_const_iterator@V?$_Tree_val@U?$_Tree_simple_types@U?$pair@QEAVComposable@v1_0@opentimelineio@@VTimeRange@2opentime@@@std@@@std@@@std@@@1@AEBUpiecewise_construct_t@1@$$QEAV?$tuple@$$QEAPEAVComposable@v1_0@opentimelineio@@@1@$$QEAV?$tuple@$$V@1@@Z
	??$emplace_hint@AEBUpiecewise_construct_t@std@@V?$tuple@$$QEAPEBVtype_info@@@2@V?$tuple@$$V@2@@?$_Tree@V?$_Tmap_traits@PEBVtype_info@@V?$function@$$A6AXAEBVany@linb@@@Z@std@@U?$less@PEBVtype_info@@@3@V?$allocator@U?$pair@QEBVtype_info@@V?$function@$$A6AXAEBVany@linb@@@Z@std@@@std@@@3@$0A@@std@@@std@@QEAA?AV?$_Tree_iterator@V?$_Tree_val@U?$_Tree_simple_types@U?$pair@QEBVtype_info@@V?$function@$$A6AXAEBVany@linb@@@Z@std@@@std@@@std@@@std@@@1@V?$_Tree_const_iterator@V?$_Tree_val@U?$_Tree_simple_types@U?$pair@QEBVtype_info@@V?$function@$$A6AXAEBVany@linb@@@Z@std@@@std@@@std@@@std@@@1@AEBUpiecewise_construct_t@1@$$QEAV?$tuple@$$QEAPEBVtype_info@@@1@$$QEAV?$tuple@$$V@1@@Z
	??$emplace_hint@AEBUpiecewise_construct_t@std@@V?$tuple@$$QEAPEBVtype_info@@@2@V?$tuple@$$V@2@@?$_Tree@V?$_Tmap_traits@PEBVtype_info@@V?$function@$$A6A_NAEBVany@linb@@0@Z@std@@U?$less@PEBVtype_info@@@3@V?$allocator@U?$pair@QEBVtype_info@@V?$function@$$A6A_NAEBVany@linb@@0@Z@std@@@std@@@3@$0A@@std@@@std@@QEAA?AV?$_Tree_iterator@V?$_Tree_val@U?$_Tree_simple_types@U?$pair@QEBVtype_info@@V?$function@$$A6A_NAEBVany@linb@@0@Z@std@@@std@@@std@@@std@@@1@V?$_Tree_const_iterator@V?$_Tree_val@U?$_Tree_simple_types@U?$pair@QEBVtype_info@@V?$function@$$A6A_NAEBVany@linb@@0@Z@std@@@std@@@std@@@std@@@1@AEBUpiecewise_construct_t@1@$$QEAV?$tuple@$$QEAPEBVtype_info@@@1@$$QEAV?$tuple@$$V@1@@Z
	??$emplace_hint@AEBUpiecewise_construct_t@std@@V?$tuple@$$QEAV?$basic_string@DU?$char_traits@D@std@@V?$allocator@D@2@@std@@@2@V?$tuple@$$V@2@@?$_Tree@V?$_Tmap_traits@V?$basic_string@DU?$char_traits@D@std@@V?$allocator@D@2@@std@@PEAV_TypeRecord@TypeRegistry@v1_0@opentimelineio@@U?$less@V?$basic_string@DU?$char_traits@D@std@@V?$allocator@D@2@@std@@@2@V?$allocator@U?$pair@$$CBV?$basic_string@DU?$char_traits@D@std@@V?$allocator@D@2@@std@@PEAV_TypeRecord@TypeRegistry@v1_0@opentimelineio@@@std@@@2@$0A@@std@@@std@@QEAA?AV?$_Tree_iterator@V?$_Tree_val@U?$_Tree_simple_types@U?$pair@$$CBV?$basic_string@DU?$char_traits@D@std@@V?$allocator@D@2@@std@@PEAV_TypeRecord@TypeRegistry@v1_0@opentimelineio@@@std@@@std@@@std@@@1@V?$_Tree_const_iterator@V?$_Tree_val@U?$_Tree_simple_types@U?$pair@$$CBV?$basic_string@DU?$char_traits@D@std@@V?$allocator@D@2@@std@@PEAV_TypeRecord@TypeRegistry@v1_0@opentimelineio@@@std@@@std@@@std@@@1@AEBUpiecewise_construct_t@1@$$QEAV?$tuple@$$QEAV?$basic_string@DU?$char_traits@D@std@@V?$allocator@D@2@@std@@@1@$$QEAV?$tuple@$$V@1@@Z
	??$emplace_hint@AEBUpiecewise_construct_t@std@@V?$tuple@$$QEAV?$basic_string@DU?$char_traits@D@std@@V?$allocator@D@2@@std@@@2@V?$tuple@$$V@2@@?$_Tree@V?$_Tmap_traits@V?$basic_string@DU?$char_traits@D@std@@V?$allocator@D@2@@std@@V?$function@$$A6AXAEBVany@linb@@@Z@2@U?$less@V?$basic_string@DU?$char_traits@D@std@@V?$allocator@D@2@@std@@@2@V?$allocator@U?$pair@$$CBV?$basic_string@DU?$char_traits@D@std@@V?$allocator@D@2@@std@@V?$function@$$A6AXAEBVany@linb@@@Z@2@@std@@@2@$0A@@std@@@std@@QEAA?AV?$_Tree_iterator@V?$_Tree_val@U?$_Tree_simple_types@U?$pair@$$CBV?$basic_string@DU?$char_traits@D@std@@V?$allocator@D@2@@std@@V?$function@$$A6AXAEBVany@linb@@@Z@2@@std@@@std@@@std@@@1@V?$_Tree_const_iterator@V?$_Tree_val@U?$_Tree_simple_types@U?$pair@$$CBV?$basic_string@DU?$char_traits@D@std@@V?$allocator@D@2@@std@@V?$function@$$A6AXAEBVany@linb@@@Z@2@@std@@@std@@@std@@@1@AEBUpiecewise_construct_t@1@$$QEAV?$tuple@$$QEAV?$basic_string@DU?$char_traits@D@std@@V?$allocator@D@2@@std@@@1@$$QEAV?$tuple@$$V@1@@Z
	??$emplace_hint@AEBUpiecewise_construct_t@std@@V?$tuple@$$QEAV?$basic_string@DU?$char_traits@D@std@@V?$allocator@D@2@@std@@@2@V?$tuple@$$V@2@@?$_Tree@V?$_Tmap_traits@V?$basic_string@DU?$char_traits@D@std@@V?$allocator@D@2@@std@@Vany@linb@@U?$less@V?$basic_string@DU?$char_traits@D@std@@V?$allocator@D@2@@std@@@2@V?$allocator@U?$pair@$$CBV?$basic_string@DU?$char_traits@D@std@@V?$allocator@D@2@@std@@Vany@linb@@@std@@@2@$0A@@std@@@std@@QEAA?AV?$_Tree_iterator@V?$_Tree_val@U?$_Tree_simple_types@U?$pair@$$CBV?$basic_string@DU?$char_traits@D@std@@V?$allocator@D@2@@std@@Vany@linb@@@std@@@std@@@std@@@1@V?$_Tree_const_iterator@V?$_Tree_val@U?$_Tree_simple_types@U?$pair@$$CBV?$basic_string@DU?$char_traits@D@std@@V?$allocator@D@2@@std@@Vany@linb@@@std@@@std@@@std@@@1@AEBUpiecewise_construct_t@1@$$QEAV?$tuple@$$QEAV?$basic_string@DU?$char_traits@D@std@@V?$allocator@D@2@@std@@@1@$$QEAV?$tuple@$$V@1@@Z
	??$emplace_hint@AEBUpiecewise_construct_t@std@@V?$tuple@AEBH@2@V?$tuple@$$V@2@@?$_Tree@V?$_Tmap_traits@HV?$function@$$A6AXPEAVAnyDictionary@v1_0@opentimelineio@@@Z@std@@U?$less@H@2@V?$allocator@U?$pair@$$CBHV?$function@$$A6AXPEAVAnyDictionary@v1_0@opentimelineio@@@Z@std@@@std@@@2@$0A@@std@@@std@@QEAA?AV?$_Tree_iterator@V?$_Tree_val@U?$_Tree_simple_types@U?$pair@$$CBHV?$function@$$A6AXPEAVAnyDictionary@v1_0@opentimelineio@@@Z@std@@@std@@@std@@@std@@@1@V?$_Tree_const_iterator@V?$_Tree_val@U?$_Tree_simple_types@U?$pair@$$CBHV?$function@$$A6AXPEAVAnyDictionary@v1_0@opentimelineio@@@Z@std@@@std@@@std@@@std@@@1@AEBUpiecewise_construct_t@1@$$QEAV?$tuple@AEBH@1@$$QEAV?$tuple@$$V@1@@Z
	??$emplace_hint@AEBUpiecewise_construct_t@std@@V?$tuple@AEBQEAVComposable@v1_0@opentimelineio@@@2@V?$tuple@$$V@2@@?$_Tree@V?$_Tmap_traits@PEAVComposable@v1_0@opentimelineio@@VTimeRange@2opentime@@U?$less@PEAVComposable@v1_0@opentimelineio@@@std@@V?$allocator@U?$pair@QEAVComposable@v1_0@opentimelineio@@VTimeRange@2opentime@@@std@@@7@$0A@@std@@@std@@QEAA?AV?$_Tree_iterator@V?$_Tree_val@U?$_Tree_simple_types@U?$pair@QEAVComposable@v1_0@opentimelineio@@VTimeRange@2opentime@@@std@@@std@@@std@@@1@V?$_Tree_const_iterator@V?$_Tree_val@U?$_Tree_simple_types@U?$pair@QEAVComposable@v1_0@opentimelineio@@VTimeRange@2opentime@@@std@@@std@@@std@@@1@AEBUpiecewise_construct_t@1@$$QEAV?$tuple@AEBQEAVComposable@v1_0@opentimelineio@@@1@$$QEAV?$tuple@$$V@1@@Z
	??$emplace_hint@AEBUpiecewise_construct_t@std@@V?$tuple@AEBQEAVSerializableObject@v1_0@opentimelineio@@@2@V?$tuple@$$V@2@@?$_Tree@V?$_Tmap_traits@PEAVSerializableObject@v1_0@opentimelineio@@HU?$less@PEAVSerializableObject@v1_0@opentimelineio@@@std@@V?$allocator@U?$pair@QEAVSerializableObject@v1_0@opentimelineio@@H@std@@@5@$0A@@std@@@std@@QEAA?AV?$_Tree_iterator@V?$_Tree_val@U?$_Tree_simple_types@U?$pair@QEAVSerializableObject@v1_0@opentimelineio@@H@std@@@std@@@std@@@1@V?$_Tree_const_iterator@V?$_Tree_val@U?$_Tree_simple_types@U?$pair@QEAVSerializableObject@v1_0@opentimelineio@@H@std@@@std@@@std@@@1@AEBUpiecewise_construct_t@1@$$QEAV?$tuple@AEBQEAVSerializableObject@v1_0@opentimelineio@@@1@$$QEAV?$tuple@$$V@1@@Z
	??$emplace_hint@AEBUpiecewise_construct_t@std@@V?$tuple@AEBQEBVSerializableObject@v1_0@opentimelineio@@@2@V?$tuple@$$V@2@@?$_Tree@V?$_Tmap_traits@PEBVSerializableObject@v1_0@opentimelineio@@V?$basic_string@DU?$char_traits@D@std@@V?$allocator@D@2@@std@@U?$less@PEBVSerializableObject@v1_0@opentimelineio@@@5@V?$allocator@U?$pair@QEBVSerializableObject@v1_0@opentimelineio@@V?$basic_string@DU?$char_traits@D@std@@V?$allocator@D@2@@std@@@std@@@5@$0A@@std@@@std@@QEAA?AV?$_Tree_iterator@V?$_Tree_val@U?$_Tree_simple_types@U?$pair@QEBVSerializableObject@v1_0@opentimelineio@@V?$basic_string@DU?$char_traits@D@std@@V?$allocator@D@2@@std@@@std@@@std@@@std@@@1@V?$_Tree_const_iterator@V?$_Tree_val@U?$_Tree_simple_types@U?$pair@QEBVSerializableObject@v1_0@opentimelineio@@V?$basic_string@DU?$char_traits@D@std@@V?$allocator@D@2@@std@@@std@@@std@@@std@@@1@AEBUpiecewise_construct_t@1@$$QEAV?$tuple@AEBQEBVSerializableObject@v1_0@opentimelineio@@@1@$$QEAV?$tuple@$$V@1@@Z
	??$emplace_hint@AEBUpiecewise_construct_t@std@@V?$tuple@AEBV?$basic_string@DU?$char_traits@D@std@@V?$allocator@D@2@@std@@@2@V?$tuple@$$V@2@@?$_Tree@V?$_Tmap_traits@V?$basic_string@DU?$char_traits@D@std@@V?$allocator@D@2@@std@@HU?$less@V?$basic_string@DU?$char_traits@D@std@@V?$allocator@D@2@@std@@@2@V?$allocator@U?$pair@$$CBV?$basic_string@DU?$char_traits@D@std@@V?$allocator@D@2@@std@@H@std@@@2@$0A@@std@@@std@@QEAA?AV?$_Tree_iterator@V?$_Tree_val@U?$_Tree_simple_types@U?$pair@$$CBV?$basic_string@DU?$char_traits@D@std@@V?$allocator@D@2@@std@@H@std@@@std@@@std@@@1@V?$_Tree_const_iterator@V?$_Tree_val@U?$_Tree_simple_types@U?$pair@$$CBV?$basic_string@DU?$char_traits@D@std@@V?$allocator@D@2@@std@@H@std@@@std@@@std@@@1@AEBUpiecewise_construct_t@1@$$QEAV?$tuple@AEBV?$basic_string@DU?$char_traits@D@std@@V?$allocator@D@2@@std@@@1@$$QEAV?$tuple@$$V@1@@Z
	??$emplace_hint@AEBUpiecewise_construct_t@std@@V?$tuple@AEBV?$basic_string@DU?$char_traits@D@std@@V?$allocator@D@2@@std@@@2@V?$tuple@$$V@2@@?$_Tree@V?$_Tmap_traits@V?$basic_string@DU?$char_traits@D@std@@V?$allocator@D@2@@std@@PEAVSerializableObject@v1_0@opentimelineio@@U?$less@V?$basic_string@DU?$char_traits@D@std@@V?$allocator@D@2@@std@@@2@V?$allocator@U?$pair@$$CBV?$basic_string@DU?$char_traits@D@std@@V?$allocator@D@2@@std@@PEAVSerializableObject@v1_0@opentimelineio@@@std@@@2@$0A@@std@@@std@@QEAA?AV?$_Tree_iterator@V?$_Tree_val@U?$_Tree_simple_types@U?$pair@$$CBV?$basic_string@DU?$char_traits@D@std@@V?$allocator@D@2@@std@@PEAVSerializableObject@v1_0@opentimelineio@@@std@@@std@@@std@@@1@V?$_Tree_const_iterator@V?$_Tree_val@U?$_Tree_simple_types@U?$pair@$$CBV?$basic_string@DU?$char_traits@D@std@@V?$allocator@D@2@@std@@PEAVSerializableObject@v1_0@opentimelineio@@@std@@@std@@@std@@@1@AEBUpiecewise_construct_t@1@$$QEAV?$tuple@AEBV?$basic_string@DU?$char_traits@D@std@@V?$allocator@D@2@@std@@@1@$$QEAV?$tuple@$$V@1@@Z
	??$emplace_hint@AEBUpiecewise_construct_t@std@@V?$tuple@AEBV?$basic_string@DU?$char_traits@D@std@@V?$allocator@D@2@@std@@@2@V?$tuple@$$V@2@@?$_Tree@V?$_Tmap_traits@V?$basic_string@DU?$char_traits@D@std@@V?$allocator@D@2@@std@@PEAV_TypeRecord@TypeRegistry@v1_0@opentimelineio@@U?$less@V?$basic_string@DU?$char_traits@D@std@@V?$allocator@D@2@@std@@@2@V?$allocator@U?$pair@$$CBV?$basic_string@DU?$char_traits@D@std@@V?$allocator@D@2@@std@@PEAV_TypeRecord@TypeRegistry@v1_0@opentimelineio@@@std@@@2@$0A@@std@@@std@@QEAA?AV?$_Tree_iterator@V?$_Tree_val@U?$_Tree_simple_types@U?$pair@$$CBV?$basic_string@DU?$char_traits@D@std@@V?$allocator@D@2@@std@@PEAV_TypeRecord@TypeRegistry@v1_0@opentimelineio@@@std@@@std@@@std@@@1@V?$_Tree_const_iterator@V?$_Tree_val@U?$_Tree_simple_types@U?$pair@$$CBV?$basic_string@DU?$char_traits@D@std@@V?$allocator@D@2@@std@@PEAV_TypeRecord@TypeRegistry@v1_0@opentimelineio@@@std@@@std@@@std@@@1@AEBUpiecewise_construct_t@1@$$QEAV?$tuple@AEBV?$basic_string@DU?$char_traits@D@std@@V?$allocator@D@2@@std@@@1@$$QEAV?$tuple@$$V@1@@Z
	??$end@D$0BF@@std@@YAPEADAEAY0BF@D@Z
	??$erase@V?$_Tree_iterator@V?$_Tree_val@U?$_Tree_simple_types@U?$pair@QEBVSerializableObject@v1_0@opentimelineio@@V?$basic_string@DU?$char_traits@D@std@@V?$allocator@D@2@@std@@@std@@@std@@@std@@@std@@X@?$_Tree@V?$_Tmap_traits@PEBVSerializableObject@v1_0@opentimelineio@@V?$basic_string@DU?$char_traits@D@std@@V?$allocator@D@2@@std@@U?$less@PEBVSerializableObject@v1_0@opentimelineio@@@5@V?$allocator@U?$pair@QEBVSerializableObject@v1_0@opentimelineio@@V?$basic_string@DU?$char_traits@D@std@@V?$allocator@D@2@@std@@@std@@@5@$0A@@std@@@std@@QEAA?AV?$_Tree_iterator@V?$_Tree_val@U?$_Tree_simple_types@U?$pair@QEBVSerializableObject@v1_0@opentimelineio@@V?$basic_string@DU?$char_traits@D@std@@V?$allocator@D@2@@std@@@std@@@std@@@std@@@1@V21@@Z
	??$forward@$$QEAPEAVComposable@v1_0@opentimelineio@@@std@@YA$$QEAPEAVComposable@v1_0@opentimelineio@@AEAPEAV123@@Z
	??$forward@$$QEAPEBVtype_info@@@std@@YA$$QEAPEBVtype_info@@AEAPEBV1@@Z
	??$forward@$$QEAV?$basic_string@DU?$char_traits@D@std@@V?$allocator@D@2@@std@@@std@@YA$$QEAV?$basic_string@DU?$char_traits@D@std@@V?$allocator@D@2@@0@AEAV10@@Z
	??$forward@$$T@std@@YA$$QEA$$TAEA$$T@Z
	??$forward@AEAH@std@@YAAEAHAEAH@Z
	??$forward@AEAN@std@@YAAEANAEAN@Z
	??$forward@AEAP6A_NAEBVany@linb@@0@Z@std@@YAAEAP6A_NAEBVany@linb@@0@ZAEAP6A_N00@Z@Z
	??$forward@AEAP8?$CursorStreamWrapper@U?$GenericStringStream@U?$UTF8@D@OTIO_rapidjson@@@OTIO_rapidjson@@U?$UTF8@D@2@@OTIO_rapidjson@@EBA_KXZ@std@@YAAEAP8?$CursorStreamWrapper@U?$GenericStringStream@U?$UTF8@D@OTIO_rapidjson@@@OTIO_rapidjson@@U?$UTF8@D@2@@OTIO_rapidjson@@EBA_KXZAEAP812@EBA_KXZ@Z
	??$forward@AEAP8?$CursorStreamWrapper@VFileReadStream@OTIO_rapidjson@@U?$UTF8@D@2@@OTIO_rapidjson@@EBA_KXZ@std@@YAAEAP8?$CursorStreamWrapper@VFileReadStream@OTIO_rapidjson@@U?$UTF8@D@2@@OTIO_rapidjson@@EBA_KXZAEAP812@EBA_KXZ@Z
	??$forward@AEAP8Encoder@v1_0@opentimelineio@@EAAXAEBUErrorStatus@23@@Z@std@@YAAEAP8Encoder@v1_0@opentimelineio@@EAAXAEBUErrorStatus@23@@ZAEAP8123@EAAX0@Z@Z
	??$forward@AEAP8JSONDecoder@v1_0@opentimelineio@@EAAXAEBUErrorStatus@23@@Z@std@@YAAEAP8JSONDecoder@v1_0@opentimelineio@@EAAXAEBUErrorStatus@23@@ZAEAP8123@EAAX0@Z@Z
	??$forward@AEAPEAD@std@@YAAEAPEADAEAPEAD@Z
	??$forward@AEAPEAU?$_Tree_node@PEAVComposable@v1_0@opentimelineio@@PEAX@std@@@std@@YAAEAPEAU?$_Tree_node@PEAVComposable@v1_0@opentimelineio@@PEAX@0@AEAPEAU10@@Z
	??$forward@AEAPEAU?$_Tree_node@PEBVComposition@v1_0@opentimelineio@@PEAX@std@@@std@@YAAEAPEAU?$_Tree_node@PEBVComposition@v1_0@opentimelineio@@PEAX@0@AEAPEAU10@@Z
	??$forward@AEAPEAU?$_Tree_node@U?$pair@$$CBHV?$function@$$A6AXPEAVAnyDictionary@v1_0@opentimelineio@@@Z@std@@@std@@PEAX@std@@@std@@YAAEAPEAU?$_Tree_node@U?$pair@$$CBHV?$function@$$A6AXPEAVAnyDictionary@v1_0@opentimelineio@@@Z@std@@@std@@PEAX@0@AEAPEAU10@@Z
	??$forward@AEAPEAU?$_Tree_node@U?$pair@$$CBV?$basic_string@DU?$char_traits@D@std@@V?$allocator@D@2@@std@@H@std@@PEAX@std@@@std@@YAAEAPEAU?$_Tree_node@U?$pair@$$CBV?$basic_string@DU?$char_traits@D@std@@V?$allocator@D@2@@std@@H@std@@PEAX@0@AEAPEAU10@@Z
	??$forward@AEAPEAU?$_Tree_node@U?$pair@$$CBV?$basic_string@DU?$char_traits@D@std@@V?$allocator@D@2@@std@@PEAVSerializableObject@v1_0@opentimelineio@@@std@@PEAX@std@@@std@@YAAEAPEAU?$_Tree_node@U?$pair@$$CBV?$basic_string@DU?$char_traits@D@std@@V?$allocator@D@2@@std@@PEAVSerializableObject@v1_0@opentimelineio@@@std@@PEAX@0@AEAPEAU10@@Z
	??$forward@AEAPEAU?$_Tree_node@U?$pair@$$CBV?$basic_string@DU?$char_traits@D@std@@V?$allocator@D@2@@std@@PEAV_TypeRecord@TypeRegistry@v1_0@opentimelineio@@@std@@PEAX@std@@@std@@YAAEAPEAU?$_Tree_node@U?$pair@$$CBV?$basic_string@DU?$char_traits@D@std@@V?$allocator@D@2@@std@@PEAV_TypeRecord@TypeRegistry@v1_0@opentimelineio@@@std@@PEAX@0@AEAPEAU10@@Z
	??$forward@AEAPEAU?$_Tree_node@U?$pair@$$CBV?$basic_string@DU?$char_traits@D@std@@V?$allocator@D@2@@std@@V?$function@$$A6AXAEBVany@linb@@@Z@2@@std@@PEAX@std@@@std@@YAAEAPEAU?$_Tree_node@U?$pair@$$CBV?$basic_string@DU?$char_traits@D@std@@V?$allocator@D@2@@std@@V?$function@$$A6AXAEBVany@linb@@@Z@2@@std@@PEAX@0@AEAPEAU10@@Z
	??$forward@AEAPEAU?$_Tree_node@U?$pair@$$CBV?$basic_string@DU?$char_traits@D@std@@V?$allocator@D@2@@std@@Vany@linb@@@std@@PEAX@std@@@std@@YAAEAPEAU?$_Tree_node@U?$pair@$$CBV?$basic_string@DU?$char_traits@D@std@@V?$allocator@D@2@@std@@Vany@linb@@@std@@PEAX@0@AEAPEAU10@@Z
	??$forward@AEAPEAU?$_Tree_node@U?$pair@QEAVComposable@v1_0@opentimelineio@@VTimeRange@2opentime@@@std@@PEAX@std@@@std@@YAAEAPEAU?$_Tree_node@U?$pair@QEAVComposable@v1_0@opentimelineio@@VTimeRange@2opentime@@@std@@PEAX@0@AEAPEAU10@@Z
	??$forward@AEAPEAU?$_Tree_node@U?$pair@QEAVSerializableObject@v1_0@opentimelineio@@H@std@@PEAX@std@@@std@@YAAEAPEAU?$_Tree_node@U?$pair@QEAVSerializableObject@v1_0@opentimelineio@@H@std@@PEAX@0@AEAPEAU10@@Z
	??$forward@AEAPEAU?$_Tree_node@U?$pair@QEAVSerializableObject@v1_0@opentimelineio@@VAnyDictionary@23@@std@@PEAX@std@@@std@@YAAEAPEAU?$_Tree_node@U?$pair@QEAVSerializableObject@v1_0@opentimelineio@@VAnyDictionary@23@@std@@PEAX@0@AEAPEAU10@@Z
	??$forward@AEAPEAU?$_Tree_node@U?$pair@QEAVTrack@v1_0@opentimelineio@@V?$map@PEAVComposable@v1_0@opentimelineio@@VTimeRange@2opentime@@U?$less@PEAVComposable@v1_0@opentimelineio@@@std@@V?$allocator@U?$pair@QEAVComposable@v1_0@opentimelineio@@VTimeRange@2opentime@@@std@@@7@@std@@@std@@PEAX@std@@@std@@YAAEAPEAU?$_Tree_node@U?$pair@QEAVTrack@v1_0@opentimelineio@@V?$map@PEAVComposable@v1_0@opentimelineio@@VTimeRange@2opentime@@U?$less@PEAVComposable@v1_0@opentimelineio@@@std@@V?$allocator@U?$pair@QEAVComposable@v1_0@opentimelineio@@VTimeRange@2opentime@@@std@@@7@@std@@@std@@PEAX@0@AEAPEAU10@@Z
	??$forward@AEAPEAU?$_Tree_node@U?$pair@QEBVSerializableObject@v1_0@opentimelineio@@V?$basic_string@DU?$char_traits@D@std@@V?$allocator@D@2@@std@@@std@@PEAX@std@@@std@@YAAEAPEAU?$_Tree_node@U?$pair@QEBVSerializableObject@v1_0@opentimelineio@@V?$basic_string@DU?$char_traits@D@std@@V?$allocator@D@2@@std@@@std@@PEAX@0@AEAPEAU10@@Z
	??$forward@AEAPEAU?$_Tree_node@U?$pair@QEBVtype_info@@V?$function@$$A6AXAEBVany@linb@@@Z@std@@@std@@PEAX@std@@@std@@YAAEAPEAU?$_Tree_node@U?$pair@QEBVtype_info@@V?$function@$$A6AXAEBVany@linb@@@Z@std@@@std@@PEAX@0@AEAPEAU10@@Z
	??$forward@AEAPEAU?$_Tree_node@U?$pair@QEBVtype_info@@V?$function@$$A6A_NAEBVany@linb@@0@Z@std@@@std@@PEAX@std@@@std@@YAAEAPEAU?$_Tree_node@U?$pair@QEBVtype_info@@V?$function@$$A6A_NAEBVany@linb@@0@Z@std@@@std@@PEAX@0@AEAPEAU10@@Z
	??$forward@AEAPEAV?$CursorStreamWrapper@U?$GenericStringStream@U?$UTF8@D@OTIO_rapidjson@@@OTIO_rapidjson@@U?$UTF8@D@2@@OTIO_rapidjson@@@std@@YAAEAPEAV?$CursorStreamWrapper@U?$GenericStringStream@U?$UTF8@D@OTIO_rapidjson@@@OTIO_rapidjson@@U?$UTF8@D@2@@OTIO_rapidjson@@AEAPEAV12@@Z
